

Microchip MPLAB XC8 Assembler V2.10 build 88905656 
                                                                                               Fri Sep 27 17:06:13 2019

Microchip MPLAB XC8 C Compiler v2.10 (Free license) build 20190730164152 Og1 
     1                           	processor	18F8722
     2                           	fnconf	rparam,??,?,0
     3                           	opt	pw 120
     4                           	opt	flic
     5                           	psect	idataBANK0,global,class=CODE,delta=1,noexec
     6                           	psect	smallconst,global,reloc=2,class=SMALLCONST,delta=1,noexec
     7                           	psect	nvBANK0,global,class=BANK0,space=1,delta=1,lowdata,noexec
     8                           	psect	cinit,global,reloc=2,class=CODE,delta=1
     9                           	psect	bssCOMRAM,global,class=COMRAM,space=1,delta=1,noexec
    10                           	psect	bssBANK0,global,class=BANK0,space=1,delta=1,lowdata,noexec
    11                           	psect	dataBANK0,global,class=BANK0,space=1,delta=1,lowdata,noexec
    12                           	psect	cstackBANK1,global,class=BANK1,space=1,delta=1,noexec
    13                           	psect	cstackBANK0,global,class=BANK0,space=1,delta=1,noexec
    14                           	psect	cstackCOMRAM,global,class=COMRAM,space=1,delta=1,noexec
    15                           	psect	text0,global,reloc=2,class=CODE,delta=1
    16                           	psect	text1,global,reloc=2,class=CODE,delta=1
    17                           	psect	text2,global,reloc=2,class=CODE,delta=1
    18                           	psect	text3,global,reloc=2,class=CODE,delta=1
    19                           	psect	text4,global,reloc=2,class=CODE,delta=1
    20                           	psect	text5,global,reloc=2,class=CODE,delta=1
    21                           	psect	text6,global,reloc=2,class=CODE,delta=1
    22                           	psect	text7,global,reloc=2,class=CODE,delta=1,group=2
    23                           	psect	text8,global,reloc=2,class=CODE,delta=1,group=2
    24                           	psect	text9,global,reloc=2,class=CODE,delta=1,group=2
    25                           	psect	text10,global,reloc=2,class=CODE,delta=1,group=1
    26                           	psect	text11,global,reloc=2,class=CODE,delta=1,group=2
    27                           	psect	text12,global,reloc=2,class=CODE,delta=1,group=1
    28                           	psect	text13,global,reloc=2,class=CODE,delta=1,group=2
    29                           	psect	text14,global,reloc=2,class=CODE,delta=1,group=1
    30                           	psect	text15,global,reloc=2,class=CODE,delta=1,group=1
    31                           	psect	text16,global,reloc=2,class=CODE,delta=1,group=1
    32                           	psect	text17,global,reloc=2,class=CODE,delta=1,group=1
    33                           	psect	text18,global,reloc=2,class=CODE,delta=1,group=1
    34                           	psect	text19,global,reloc=2,class=CODE,delta=1,group=1
    35                           	psect	text20,global,reloc=2,class=CODE,delta=1
    36                           	psect	text21,global,reloc=2,class=CODE,delta=1
    37                           	psect	text22,global,reloc=2,class=CODE,delta=1
    38                           	psect	text23,global,reloc=2,class=CODE,delta=1
    39                           	psect	text24,global,reloc=2,class=CODE,delta=1
    40                           	psect	text25,global,reloc=2,class=CODE,delta=1
    41                           	psect	intcode,global,reloc=2,class=CODE,delta=1
    42                           	psect	intcode_body,global,reloc=2,class=CODE,delta=1
    43                           	psect	text27,global,reloc=2,class=CODE,delta=1
    44                           	psect	text28,global,reloc=2,class=CODE,delta=1
    45                           	psect	text29,global,reloc=2,class=CODE,delta=1
    46                           	psect	intsave_regs,global,class=BIGRAM,space=1,delta=1,noexec
    47                           	psect	rparam,global,class=COMRAM,space=1,delta=1,noexec
    48                           	psect	temp,global,ovrld,common,class=COMRAM,space=1,delta=1
    49  0000                     
    50                           ; Version 2.10
    51                           ; Generated 31/07/2019 GMT
    52                           ; 
    53                           ; Copyright © 2019, Microchip Technology Inc. and its subsidiaries ("Microchip")
    54                           ; All rights reserved.
    55                           ; 
    56                           ; This software is developed by Microchip Technology Inc. and its subsidiaries ("Microch
      +                          ip").
    57                           ; 
    58                           ; Redistribution and use in source and binary forms, with or without modification, are
    59                           ; permitted provided that the following conditions are met:
    60                           ; 
    61                           ;     1. Redistributions of source code must retain the above copyright notice, this lis
      +                          t of
    62                           ;        conditions and the following disclaimer.
    63                           ; 
    64                           ;     2. Redistributions in binary form must reproduce the above copyright notice, this 
      +                          list
    65                           ;        of conditions and the following disclaimer in the documentation and/or other
    66                           ;        materials provided with the distribution.
    67                           ; 
    68                           ;     3. Microchip's name may not be used to endorse or promote products derived from th
      +                          is
    69                           ;        software without specific prior written permission.
    70                           ; 
    71                           ; THIS SOFTWARE IS PROVIDED BY MICROCHIP "AS IS" AND ANY EXPRESS OR IMPLIED WARRANTIES,
    72                           ; INCLUDING, BUT NOT LIMITED TO, THE IMPLIED WARRANTIES OF MERCHANTABILITY AND FITNESS F
      +                          OR
    73                           ; PURPOSE ARE DISCLAIMED.  IN NO EVENT SHALL MICROCHIP BE LIABLE FOR ANY DIRECT, INDIREC
      +                          T,
    74                           ; INCIDENTAL, SPECIAL, EXEMPLARY, OR CONSEQUENTIAL DAMAGES (INCLUDING BUT NOT LIMITED TO
    75                           ; PROCUREMENT OF SUBSTITUTE GOODS OR SERVICES; LOSS OF USE, DATA OR PROFITS; OR BUSINESS
    76                           ; INTERRUPTION) HOWSOEVER CAUSED AND ON ANY THEORY OF LIABILITY, WHETHER IN CONTRACT, ST
      +                          RICT
    77                           ; LIABILITY, OR TORT (INCLUDING NEGLIGENCE OR OTHERWISE) ARISING IN ANY WAY OUT OF THE U
      +                          SE OF
    78                           ; THIS SOFTWARE, EVEN IF ADVISED OF THE POSSIBILITY OF SUCH DAMAGE.
    79                           ; 
    80                           ; 
    81                           ; Code-generator required, PIC18F8722 Definitions
    82                           ; 
    83                           ; SFR Addresses
    84  0000                     
    85                           	psect	idataBANK0
    86  005992                     __pidataBANK0:
    87                           	opt callstack 0
    88                           
    89                           ;initializer for _secondReadRB0
    90  005992  01                 	db	1
    91                           
    92                           ;initializer for _firstReadRB0
    93  005993  01                 	db	1
    94                           
    95                           ;initializer for _secondReadRA5
    96  005994  01                 	db	1
    97                           
    98                           ;initializer for _firstReadRA5
    99  005995  01                 	db	1
   100                           
   101                           	psect	smallconst
   102  001000                     __psmallconst:
   103                           	opt callstack 0
   104  001000  00                 	db	0
   105  001001                     _dp_l:
   106                           	opt callstack 0
   107  001001  0000               	dw	0
   108  001003  0000               	dw	0
   109  001005  CFDC               	dw	53212
   110  001007  35D1               	dw	13777
   111  001009                     __end_of_dp_l:
   112                           	opt callstack 0
   113  001009                     _dp_h:
   114                           	opt callstack 0
   115  001009  0000               	dw	0
   116  00100B  0000               	dw	0
   117  00100D  C000               	dw	49152
   118  00100F  3F15               	dw	16149
   119  001011                     __end_of_dp_h:
   120                           	opt callstack 0
   121  001011  4260               	dw	16992
   122  001013  0DA2               	dw	3490
   123  001015                     __end_ofsqrtf@tiny:
   124                           	opt callstack 0
   125  001015  A570               	dw	42352
   126  001017  36EC               	dw	14060
   127  001019                     __end_of_ivln2_l:
   128                           	opt callstack 0
   129  001019  AA3B               	dw	43579
   130  00101B  3FB8               	dw	16312
   131  00101D                     __end_of_ivln2:
   132                           	opt callstack 0
   133  00101D  384F               	dw	14415
   134  00101F  3F76               	dw	16246
   135  001021                     __end_of_cp:
   136                           	opt callstack 0
   137  001021  AA3C               	dw	43580
   138  001023  3338               	dw	13112
   139  001025                     __end_of_ovt:
   140                           	opt callstack 0
   141  001025  BE8C               	dw	48780
   142  001027  35BF               	dw	13759
   143  001029                     __end_of_lg2_l:
   144                           	opt callstack 0
   145  001029  7200               	dw	29184
   146  00102B  3F31               	dw	16177
   147  00102D                     __end_of_lg2_h:
   148                           	opt callstack 0
   149  00102D  7218               	dw	29208
   150  00102F  3F31               	dw	16177
   151  001031                     __end_of_lg2:
   152                           	opt callstack 0
   153  001031  BB4C               	dw	47948
   154  001033  3331               	dw	13105
   155  001035                     __end_of_P5:
   156                           	opt callstack 0
   157  001035  EA0E               	dw	59918
   158  001037  B5DD               	dw	46557
   159  001039                     __end_of_P4:
   160                           	opt callstack 0
   161  001039  B355               	dw	45909
   162  00103B  388A               	dw	14474
   163  00103D                     __end_of_P3:
   164                           	opt callstack 0
   165  00103D  0B61               	dw	2913
   166  00103F  BB36               	dw	47926
   167  001041                     __end_of_P2:
   168                           	opt callstack 0
   169  001041  AAAB               	dw	43691
   170  001043  3E2A               	dw	15914
   171  001045                     __end_of_P1:
   172                           	opt callstack 0
   173  001045  F142               	dw	61762
   174  001047  3E53               	dw	15955
   175  001049                     __end_of_L6:
   176                           	opt callstack 0
   177  001049  3255               	dw	12885
   178  00104B  3E6C               	dw	15980
   179  00104D                     __end_of_L5:
   180                           	opt callstack 0
   181  00104D  A305               	dw	41733
   182  00104F  3E8B               	dw	16011
   183  001051                     __end_of_L4:
   184                           	opt callstack 0
   185  001051  AAAB               	dw	43691
   186  001053  3EAA               	dw	16042
   187  001055                     __end_of_L3:
   188                           	opt callstack 0
   189  001055  6DB7               	dw	28087
   190  001057  3EDB               	dw	16091
   191  001059                     __end_of_L2:
   192                           	opt callstack 0
   193  001059  999A               	dw	39322
   194  00105B  3F19               	dw	16153
   195  00105D                     __end_of_L1:
   196                           	opt callstack 0
   197  00105D  4260               	dw	16992
   198  00105F  0DA2               	dw	3490
   199  001061                     __end_of_tiny:
   200                           	opt callstack 0
   201  001061  F2CA               	dw	62154
   202  001063  7149               	dw	29001
   203  001065                     __end_of_huge:
   204                           	opt callstack 0
   205  001065  0000               	dw	0
   206  001067  4B80               	dw	19328
   207  001069                     __end_of_two24:
   208                           	opt callstack 0
   209  001069                     _bp:
   210                           	opt callstack 0
   211  001069  0000               	dw	0
   212  00106B  3F80               	dw	16256
   213  00106D  0000               	dw	0
   214  00106F  3FC0               	dw	16320
   215  001071                     __end_of_bp:
   216                           	opt callstack 0
   217  001071  AA00               	dw	43520
   218  001073  3FB8               	dw	16312
   219  001075                     __end_of_ivln2_h:
   220                           	opt callstack 0
   221  001075  23C6               	dw	9158
   222  001077  B8F6               	dw	47350
   223  001079                     __end_of_cp_l:
   224                           	opt callstack 0
   225  001079  4000               	dw	16384
   226  00107B  3F76               	dw	16246
   227  00107D                     __end_of_cp_h:
   228                           	opt callstack 0
   229  00107D                     STR_1:
   230                           
   231                           ; BSR set to: 0
   232  00107D  00                 	db	0
   233                           
   234                           ; #config settings
   235  00107E  00                 	db	0	; dummy byte at the end
   236  0000                     
   237                           	psect	nvBANK0
   238  0000C6                     __pnvBANK0:
   239                           	opt callstack 0
   240  0000C6                     _timerCounter:
   241                           	opt callstack 0
   242  0000C6                     	ds	2
   243  0000                     _TMR0	set	4054
   244  0000                     _OSCCON	set	4051
   245  0000                     _ADCON1	set	4033
   246  0000                     _TRISBbits	set	3987
   247  0000                     _TRISAbits	set	3986
   248  0000                     _TRISD	set	3989
   249  0000                     _LATD	set	3980
   250  0000                     _T0CON	set	4053
   251  0000                     _INTCONbits	set	4082
   252  0000                     _PORTAbits	set	3968
   253  0000                     _PORTBbits	set	3969
   254                           
   255                           	psect	cinit
   256  005878                     __pcinit:
   257                           	opt callstack 0
   258  005878                     start_initialization:
   259                           	opt callstack 0
   260  005878                     __initialization:
   261                           	opt callstack 0
   262                           
   263                           ; Initialize objects allocated to BANK0 (4 bytes)
   264                           ; load TBLPTR registers with __pidataBANK0
   265  005878  0E92               	movlw	low __pidataBANK0
   266  00587A  6EF6               	movwf	tblptrl,c
   267  00587C  0E59               	movlw	high __pidataBANK0
   268  00587E  6EF7               	movwf	tblptrh,c
   269  005880  0E00               	movlw	low (__pidataBANK0 shr (0+16))
   270  005882  6EF8               	movwf	tblptru,c
   271  005884  EE00  F0C2         	lfsr	0,__pdataBANK0
   272  005888  EE10 F004          	lfsr	1,4
   273  00588C                     copy_data0:
   274  00588C  0009               	tblrd		*+
   275  00588E  CFF5 FFEE          	movff	tablat,postinc0
   276  005892  50E5               	movf	postdec1,w,c
   277  005894  50E1               	movf	fsr1l,w,c
   278  005896  E1FA               	bnz	copy_data0
   279                           
   280                           ; Clear objects allocated to BANK0 (13 bytes)
   281  005898  EE00  F0B5         	lfsr	0,__pbssBANK0
   282  00589C  0E0D               	movlw	13
   283  00589E                     clear_0:
   284  00589E  6AEE               	clrf	postinc0,c
   285  0058A0  06E8               	decf	wreg,f,c
   286  0058A2  E1FD               	bnz	clear_0
   287                           
   288                           ; Clear objects allocated to COMRAM (2 bytes)
   289  0058A4  6A5C               	clrf	(__pbssCOMRAM+1)& (0+255),c
   290  0058A6  6A5B               	clrf	__pbssCOMRAM& (0+255),c
   291  0058A8                     end_of_initialization:
   292                           	opt callstack 0
   293  0058A8                     __end_of__initialization:
   294                           	opt callstack 0
   295  0058A8  905D               	bcf	int$flags,0,c	;clear compiler interrupt flag (level 1)
   296  0058AA  925D               	bcf	int$flags,1,c	;clear compiler interrupt flag (level 2)
   297  0058AC  0100               	movlb	0
   298  0058AE  EF21  F02A         	goto	_main	;jump to C main() function
   299                           
   300                           	psect	bssCOMRAM
   301  00005B                     __pbssCOMRAM:
   302                           	opt callstack 0
   303  00005B                     _countI:
   304                           	opt callstack 0
   305  00005B                     	ds	2
   306                           
   307                           	psect	bssBANK0
   308  0000B5                     __pbssBANK0:
   309                           	opt callstack 0
   310  0000B5                     fabsf@F463:
   311                           	opt callstack 0
   312  0000B5                     	ds	4
   313  0000B9                     _errno:
   314                           	opt callstack 0
   315  0000B9                     	ds	2
   316  0000BB                     _fastCount:
   317                           	opt callstack 0
   318  0000BB                     	ds	2
   319  0000BD                     _slowCount:
   320                           	opt callstack 0
   321  0000BD                     	ds	2
   322  0000BF                     _countD:
   323                           	opt callstack 0
   324  0000BF                     	ds	2
   325  0000C1                     _state:
   326                           	opt callstack 0
   327  0000C1                     	ds	1
   328                           
   329                           	psect	dataBANK0
   330  0000C2                     __pdataBANK0:
   331                           	opt callstack 0
   332  0000C2                     _secondReadRB0:
   333                           	opt callstack 0
   334  0000C2                     	ds	1
   335  0000C3                     _firstReadRB0:
   336                           	opt callstack 0
   337  0000C3                     	ds	1
   338  0000C4                     _secondReadRA5:
   339                           	opt callstack 0
   340  0000C4                     	ds	1
   341  0000C5                     _firstReadRA5:
   342                           	opt callstack 0
   343  0000C5                     	ds	1
   344                           
   345                           	psect	cstackBANK1
   346  000100                     __pcstackBANK1:
   347                           	opt callstack 0
   348  000100                     _powf$1349:
   349                           	opt callstack 0
   350                           
   351                           ; 4 bytes @ 0x0
   352  000100                     	ds	4
   353  000104                     _powf$1350:
   354                           	opt callstack 0
   355                           
   356                           ; 4 bytes @ 0x4
   357  000104                     	ds	4
   358  000108                     _powf$1354:
   359                           	opt callstack 0
   360                           
   361                           ; 4 bytes @ 0x8
   362  000108                     	ds	4
   363  00010C                     _powf$1355:
   364                           	opt callstack 0
   365                           
   366                           ; 4 bytes @ 0xC
   367  00010C                     	ds	4
   368  000110                     _powf$1356:
   369                           	opt callstack 0
   370                           
   371                           ; 4 bytes @ 0x10
   372  000110                     	ds	4
   373  000114                     _powf$1357:
   374                           	opt callstack 0
   375                           
   376                           ; 4 bytes @ 0x14
   377  000114                     	ds	4
   378  000118                     _powf$1358:
   379                           	opt callstack 0
   380                           
   381                           ; 4 bytes @ 0x18
   382  000118                     	ds	4
   383  00011C                     powf@t2:
   384                           	opt callstack 0
   385                           
   386                           ; 4 bytes @ 0x1C
   387  00011C                     	ds	4
   388  000120                     powf@z_h:
   389                           	opt callstack 0
   390                           
   391                           ; 4 bytes @ 0x20
   392  000120                     	ds	4
   393  000124                     powf@z_l:
   394                           	opt callstack 0
   395                           
   396                           ; 4 bytes @ 0x24
   397  000124                     	ds	4
   398  000128                     powf@y1:
   399                           	opt callstack 0
   400                           
   401                           ; 4 bytes @ 0x28
   402  000128                     	ds	4
   403  00012C                     powf@i:
   404                           	opt callstack 0
   405                           
   406                           ; 4 bytes @ 0x2C
   407  00012C                     	ds	4
   408  000130                     powf@s_l:
   409                           	opt callstack 0
   410                           
   411                           ; 4 bytes @ 0x30
   412  000130                     	ds	4
   413  000134                     powf@t_l:
   414                           	opt callstack 0
   415                           
   416                           ; 4 bytes @ 0x34
   417  000134                     	ds	4
   418  000138                     _powf$1348:
   419                           	opt callstack 0
   420                           
   421                           ; 4 bytes @ 0x38
   422  000138                     	ds	4
   423  00013C                     _powf$1352:
   424                           	opt callstack 0
   425                           
   426                           ; 4 bytes @ 0x3C
   427  00013C                     	ds	4
   428  000140                     _powf$1353:
   429                           	opt callstack 0
   430                           
   431                           ; 4 bytes @ 0x40
   432  000140                     	ds	4
   433  000144                     powf@w:
   434                           	opt callstack 0
   435                           
   436                           ; 4 bytes @ 0x44
   437  000144                     	ds	4
   438  000148                     _powf$1346:
   439                           	opt callstack 0
   440                           
   441                           ; 4 bytes @ 0x48
   442  000148                     	ds	4
   443  00014C                     powf@r:
   444                           	opt callstack 0
   445                           
   446                           ; 4 bytes @ 0x4C
   447  00014C                     	ds	4
   448  000150                     powf@yisint:
   449                           	opt callstack 0
   450                           
   451                           ; 4 bytes @ 0x50
   452  000150                     	ds	4
   453  000154                     powf@s:
   454                           	opt callstack 0
   455                           
   456                           ; 4 bytes @ 0x54
   457  000154                     	ds	4
   458  000158                     _powf$1345:
   459                           	opt callstack 0
   460                           
   461                           ; 4 bytes @ 0x58
   462  000158                     	ds	4
   463  00015C                     _powf$1351:
   464                           	opt callstack 0
   465                           
   466                           ; 4 bytes @ 0x5C
   467  00015C                     	ds	4
   468  000160                     powf@hx:
   469                           	opt callstack 0
   470                           
   471                           ; 4 bytes @ 0x60
   472  000160                     	ds	4
   473  000164                     powf@p_l:
   474                           	opt callstack 0
   475                           
   476                           ; 4 bytes @ 0x64
   477  000164                     	ds	4
   478  000168                     powf@t_h:
   479                           	opt callstack 0
   480                           
   481                           ; 4 bytes @ 0x68
   482  000168                     	ds	4
   483  00016C                     powf@s_h:
   484                           	opt callstack 0
   485                           
   486                           ; 4 bytes @ 0x6C
   487  00016C                     	ds	4
   488  000170                     powf@ax:
   489                           	opt callstack 0
   490                           
   491                           ; 4 bytes @ 0x70
   492  000170                     	ds	4
   493  000174                     powf@u:
   494                           	opt callstack 0
   495                           
   496                           ; 4 bytes @ 0x74
   497  000174                     	ds	4
   498  000178                     powf@v:
   499                           	opt callstack 0
   500                           
   501                           ; 4 bytes @ 0x78
   502  000178                     	ds	4
   503  00017C                     powf@hy:
   504                           	opt callstack 0
   505                           
   506                           ; 4 bytes @ 0x7C
   507  00017C                     	ds	4
   508  000180                     powf@t1:
   509                           	opt callstack 0
   510                           
   511                           ; 4 bytes @ 0x80
   512  000180                     	ds	4
   513  000184                     powf@sn:
   514                           	opt callstack 0
   515                           
   516                           ; 4 bytes @ 0x84
   517  000184                     	ds	4
   518  000188                     powf@n:
   519                           	opt callstack 0
   520                           
   521                           ; 4 bytes @ 0x88
   522  000188                     	ds	4
   523  00018C                     powf@s2:
   524                           	opt callstack 0
   525                           
   526                           ; 4 bytes @ 0x8C
   527  00018C                     	ds	4
   528  000190                     powf@iy:
   529                           	opt callstack 0
   530                           
   531                           ; 4 bytes @ 0x90
   532  000190                     	ds	4
   533  000194                     powf@is:
   534                           	opt callstack 0
   535                           
   536                           ; 4 bytes @ 0x94
   537  000194                     	ds	4
   538  000198                     _powf$1347:
   539                           	opt callstack 0
   540                           
   541                           ; 4 bytes @ 0x98
   542  000198                     	ds	4
   543  00019C                     powf@p_h:
   544                           	opt callstack 0
   545                           
   546                           ; 4 bytes @ 0x9C
   547  00019C                     	ds	4
   548  0001A0                     powf@k:
   549                           	opt callstack 0
   550                           
   551                           ; 4 bytes @ 0xA0
   552  0001A0                     	ds	4
   553  0001A4                     _powf$1344:
   554                           	opt callstack 0
   555                           
   556                           ; 4 bytes @ 0xA4
   557  0001A4                     	ds	4
   558  0001A8                     powf@ix:
   559                           	opt callstack 0
   560                           
   561                           ; 4 bytes @ 0xA8
   562  0001A8                     	ds	4
   563  0001AC                     powf@j:
   564                           	opt callstack 0
   565                           
   566                           ; 4 bytes @ 0xAC
   567  0001AC                     	ds	4
   568  0001B0                     powf@t:
   569                           	opt callstack 0
   570                           
   571                           ; 4 bytes @ 0xB0
   572  0001B0                     	ds	4
   573  0001B4                     powf@z:
   574                           	opt callstack 0
   575                           
   576                           ; 4 bytes @ 0xB4
   577  0001B4                     	ds	4
   578  0001B8                     powf@__xc8_float_word:
   579                           	opt callstack 0
   580                           
   581                           ; 4 bytes @ 0xB8
   582  0001B8                     	ds	4
   583                           
   584                           	psect	cstackBANK0
   585  000060                     __pcstackBANK0:
   586                           	opt callstack 0
   587  000060                     	ds	4
   588  000064                     sqrtf@s:
   589                           	opt callstack 0
   590                           
   591                           ; 4 bytes @ 0x4
   592  000064                     	ds	4
   593  000068                     sqrtf@i:
   594                           	opt callstack 0
   595                           
   596                           ; 4 bytes @ 0x8
   597  000068                     	ds	4
   598  00006C                     sqrtf@__xc8_float_word:
   599                           	opt callstack 0
   600                           
   601                           ; 4 bytes @ 0xC
   602  00006C                     	ds	4
   603  000070                     sqrtf@q:
   604                           	opt callstack 0
   605                           
   606                           ; 4 bytes @ 0x10
   607  000070                     	ds	4
   608  000074                     sqrtf@t:
   609                           	opt callstack 0
   610                           
   611                           ; 4 bytes @ 0x14
   612  000074                     	ds	4
   613  000078                     sqrtf@z:
   614                           	opt callstack 0
   615                           
   616                           ; 4 bytes @ 0x18
   617  000078                     	ds	4
   618  00007C                     sqrtf@m:
   619                           	opt callstack 0
   620                           
   621                           ; 4 bytes @ 0x1C
   622  00007C                     	ds	4
   623  000080                     sqrtf@r:
   624                           	opt callstack 0
   625                           
   626                           ; 4 bytes @ 0x20
   627  000080                     	ds	4
   628  000084                     sqrtf@ix:
   629                           	opt callstack 0
   630                           
   631                           ; 4 bytes @ 0x24
   632  000084                     	ds	4
   633  000088                     ?_powf:
   634                           	opt callstack 0
   635  000088                     powf@x:
   636                           	opt callstack 0
   637                           
   638                           ; 4 bytes @ 0x28
   639  000088                     	ds	4
   640  00008C                     powf@y:
   641                           	opt callstack 0
   642                           
   643                           ; 4 bytes @ 0x2C
   644  00008C                     	ds	4
   645  000090                     ??_powf:
   646                           
   647                           ; 1 bytes @ 0x30
   648  000090                     	ds	9
   649  000099                     ?___fltol:
   650                           	opt callstack 0
   651  000099                     ___fltol@f1:
   652                           	opt callstack 0
   653                           
   654                           ; 4 bytes @ 0x39
   655  000099                     	ds	4
   656  00009D                     ??___fltol:
   657                           
   658                           ; 1 bytes @ 0x3D
   659  00009D                     	ds	4
   660  0000A1                     ___fltol@sign1:
   661                           	opt callstack 0
   662                           
   663                           ; 1 bytes @ 0x41
   664  0000A1                     	ds	1
   665  0000A2                     ___fltol@exp1:
   666                           	opt callstack 0
   667                           
   668                           ; 1 bytes @ 0x42
   669  0000A2                     	ds	1
   670  0000A3                     _calculateTmr$1340:
   671                           	opt callstack 0
   672                           
   673                           ; 4 bytes @ 0x43
   674  0000A3                     	ds	4
   675  0000A7                     _calculateTmr$1341:
   676                           	opt callstack 0
   677                           
   678                           ; 4 bytes @ 0x47
   679  0000A7                     	ds	4
   680  0000AB                     _calculateTmr$1342:
   681                           	opt callstack 0
   682                           
   683                           ; 4 bytes @ 0x4B
   684  0000AB                     	ds	4
   685  0000AF                     _calculateTmr$1343:
   686                           	opt callstack 0
   687                           
   688                           ; 4 bytes @ 0x4F
   689  0000AF                     	ds	4
   690  0000B3                     ??_main:
   691                           
   692                           ; 1 bytes @ 0x53
   693  0000B3                     	ds	2
   694                           
   695                           	psect	cstackCOMRAM
   696  000001                     __pcstackCOMRAM:
   697                           	opt callstack 0
   698  000001                     button@checkI:
   699                           	opt callstack 0
   700                           
   701                           ; 1 bytes @ 0x0
   702  000001                     	ds	1
   703  000002                     button@checkD:
   704                           	opt callstack 0
   705                           
   706                           ; 1 bytes @ 0x1
   707  000002                     	ds	1
   708  000003                     ?___fladd:
   709                           	opt callstack 0
   710  000003                     ?_fabsf:
   711                           	opt callstack 0
   712  000003                     ?_nanf:
   713                           	opt callstack 0
   714  000003                     ?___flneg:
   715                           	opt callstack 0
   716  000003                     nanf@s:
   717                           	opt callstack 0
   718  000003                     ___flneg@f1:
   719                           	opt callstack 0
   720  000003                     ___fladd@b:
   721                           	opt callstack 0
   722  000003                     fabsf@x:
   723                           	opt callstack 0
   724                           
   725                           ; 4 bytes @ 0x2
   726  000003                     	ds	4
   727  000007                     ___fladd@a:
   728                           	opt callstack 0
   729  000007                     fabsf@u:
   730                           	opt callstack 0
   731  000007                     nanf@u:
   732                           	opt callstack 0
   733                           
   734                           ; 4 bytes @ 0x6
   735  000007                     	ds	4
   736  00000B                     ??___fladd:
   737                           
   738                           ; 1 bytes @ 0xA
   739  00000B                     	ds	4
   740  00000F                     ___fladd@signs:
   741                           	opt callstack 0
   742                           
   743                           ; 1 bytes @ 0xE
   744  00000F                     	ds	1
   745  000010                     ___fladd@aexp:
   746                           	opt callstack 0
   747                           
   748                           ; 1 bytes @ 0xF
   749  000010                     	ds	1
   750  000011                     ___fladd@bexp:
   751                           	opt callstack 0
   752                           
   753                           ; 1 bytes @ 0x10
   754  000011                     	ds	1
   755  000012                     ___fladd@grs:
   756                           	opt callstack 0
   757                           
   758                           ; 1 bytes @ 0x11
   759  000012                     	ds	1
   760  000013                     ?___flmul:
   761                           	opt callstack 0
   762  000013                     ___flmul@b:
   763                           	opt callstack 0
   764                           
   765                           ; 4 bytes @ 0x12
   766  000013                     	ds	4
   767  000017                     ___flmul@a:
   768                           	opt callstack 0
   769                           
   770                           ; 4 bytes @ 0x16
   771  000017                     	ds	4
   772  00001B                     ??___flmul:
   773                           
   774                           ; 1 bytes @ 0x1A
   775  00001B                     	ds	4
   776  00001F                     ___flmul@sign:
   777                           	opt callstack 0
   778                           
   779                           ; 1 bytes @ 0x1E
   780  00001F                     	ds	1
   781  000020                     ___flmul@grs:
   782                           	opt callstack 0
   783                           
   784                           ; 4 bytes @ 0x1F
   785  000020                     	ds	4
   786  000024                     ___flmul@aexp:
   787                           	opt callstack 0
   788                           
   789                           ; 1 bytes @ 0x23
   790  000024                     	ds	1
   791  000025                     ___flmul@bexp:
   792                           	opt callstack 0
   793                           
   794                           ; 1 bytes @ 0x24
   795  000025                     	ds	1
   796  000026                     ___flmul@prod:
   797                           	opt callstack 0
   798                           
   799                           ; 4 bytes @ 0x25
   800  000026                     	ds	4
   801  00002A                     ___flmul@temp:
   802                           	opt callstack 0
   803                           
   804                           ; 2 bytes @ 0x29
   805  00002A                     	ds	2
   806  00002C                     ?_scalbnf:
   807                           	opt callstack 0
   808  00002C                     ?___xxtofl:
   809                           	opt callstack 0
   810  00002C                     ___xxtofl@val:
   811                           	opt callstack 0
   812  00002C                     scalbnf@x:
   813                           	opt callstack 0
   814                           
   815                           ; 4 bytes @ 0x2B
   816  00002C                     	ds	4
   817  000030                     ??___xxtofl:
   818  000030                     scalbnf@n:
   819                           	opt callstack 0
   820                           
   821                           ; 2 bytes @ 0x2F
   822  000030                     	ds	2
   823  000032                     ??_scalbnf:
   824                           
   825                           ; 1 bytes @ 0x31
   826  000032                     	ds	2
   827  000034                     ___xxtofl@sign:
   828                           	opt callstack 0
   829                           
   830                           ; 1 bytes @ 0x33
   831  000034                     	ds	1
   832  000035                     ___xxtofl@exp:
   833                           	opt callstack 0
   834                           
   835                           ; 1 bytes @ 0x34
   836  000035                     	ds	1
   837  000036                     ___xxtofl@arg:
   838                           	opt callstack 0
   839  000036                     scalbnf@u:
   840                           	opt callstack 0
   841                           
   842                           ; 4 bytes @ 0x35
   843  000036                     	ds	4
   844  00003A                     ?___flsub:
   845                           	opt callstack 0
   846  00003A                     ___flsub@b:
   847                           	opt callstack 0
   848  00003A                     scalbnf@y:
   849                           	opt callstack 0
   850                           
   851                           ; 4 bytes @ 0x39
   852  00003A                     	ds	4
   853  00003E                     ___flsub@a:
   854                           	opt callstack 0
   855                           
   856                           ; 4 bytes @ 0x3D
   857  00003E                     	ds	4
   858  000042                     ?___fldiv:
   859                           	opt callstack 0
   860  000042                     ___flge@ff1:
   861                           	opt callstack 0
   862  000042                     ___fldiv@b:
   863                           	opt callstack 0
   864                           
   865                           ; 4 bytes @ 0x41
   866  000042                     	ds	4
   867  000046                     ___flge@ff2:
   868                           	opt callstack 0
   869  000046                     ___fldiv@a:
   870                           	opt callstack 0
   871                           
   872                           ; 4 bytes @ 0x45
   873  000046                     	ds	4
   874  00004A                     ??___fldiv:
   875  00004A                     ??___flge:
   876                           
   877                           ; 1 bytes @ 0x49
   878  00004A                     	ds	4
   879  00004E                     ?_sqrtf:
   880                           	opt callstack 0
   881  00004E                     ___fldiv@rem:
   882                           	opt callstack 0
   883  00004E                     sqrtf@x:
   884                           	opt callstack 0
   885                           
   886                           ; 4 bytes @ 0x4D
   887  00004E                     	ds	4
   888  000052                     ??_sqrtf:
   889  000052                     ___fldiv@sign:
   890                           	opt callstack 0
   891                           
   892                           ; 1 bytes @ 0x51
   893  000052                     	ds	1
   894  000053                     ___fldiv@new_exp:
   895                           	opt callstack 0
   896                           
   897                           ; 2 bytes @ 0x52
   898  000053                     	ds	2
   899  000055                     ___fldiv@grs:
   900                           	opt callstack 0
   901                           
   902                           ; 4 bytes @ 0x54
   903  000055                     	ds	4
   904  000059                     ___fldiv@bexp:
   905                           	opt callstack 0
   906                           
   907                           ; 1 bytes @ 0x58
   908  000059                     	ds	1
   909  00005A                     ___fldiv@aexp:
   910                           	opt callstack 0
   911                           
   912                           ; 1 bytes @ 0x59
   913  00005A                     	ds	1
   914  00005B                     
   915                           ; 1 bytes @ 0x5A
   916 ;;
   917 ;;Main: autosize = 0, tempsize = 2, incstack = 0, save=0
   918 ;;
   919 ;; *************** function _main *****************
   920 ;; Defined at:
   921 ;;		line 18 in file "main.c"
   922 ;; Parameters:    Size  Location     Type
   923 ;;		None
   924 ;; Auto vars:     Size  Location     Type
   925 ;;		None
   926 ;; Return value:  Size  Location     Type
   927 ;;                  1    wreg      void 
   928 ;; Registers used:
   929 ;;		wreg, status,2, status,0, tblptrl, tblptrh, tblptru, prodl, prodh, cstack
   930 ;; Tracked objects:
   931 ;;		On entry : 0/0
   932 ;;		On exit  : 0/0
   933 ;;		Unchanged: 0/0
   934 ;; Data sizes:     COMRAM   BANK0   BANK1   BANK2   BANK3   BANK4   BANK5   BANK6   BANK7   BANK8   BANK9  BANK10  BANK1
      +1  BANK12  BANK13  BANK14  BANK15
   935 ;;      Params:         0       0       0       0       0       0       0       0       0       0       0       0       
      +0       0       0       0       0
   936 ;;      Locals:         0       0       0       0       0       0       0       0       0       0       0       0       
      +0       0       0       0       0
   937 ;;      Temps:          0       2       0       0       0       0       0       0       0       0       0       0       
      +0       0       0       0       0
   938 ;;      Totals:         0       2       0       0       0       0       0       0       0       0       0       0       
      +0       0       0       0       0
   939 ;;Total ram usage:        2 bytes
   940 ;; Hardware stack levels required when called:    8
   941 ;; This function calls:
   942 ;;		_calculateTmr
   943 ;;		_fastDecrease
   944 ;;		_fastIncrease
   945 ;;		_init
   946 ;;		_initButton
   947 ;;		_initLED
   948 ;;		_initOsc
   949 ;;		_initTmr
   950 ;;		_normalDecrease
   951 ;;		_normalIncrease
   952 ;;		_slowDecrease
   953 ;;		_slowIncrease
   954 ;; This function is called by:
   955 ;;		Startup code after reset
   956 ;; This function uses a non-reentrant model
   957 ;;
   958                           
   959                           	psect	text0
   960  005442                     __ptext0:
   961                           	opt callstack 0
   962  005442                     _main:
   963                           	opt callstack 23
   964  005442                     
   965                           ;main.c: 19:     initTmr();
   966  005442  ECB1  F02C         	call	_initTmr	;wreg free
   967  005446                     
   968                           ;main.c: 20:     initLED();
   969  005446  ECBC  F02C         	call	_initLED	;wreg free
   970  00544A                     
   971                           ;main.c: 21:     initButton();
   972  00544A  ECC1  F02C         	call	_initButton	;wreg free
   973  00544E                     
   974                           ;main.c: 22:     initOsc();
   975  00544E  ECC6  F02C         	call	_initOsc	;wreg free
   976  005452                     
   977                           ;main.c: 23:     calculateTmr();
   978  005452  ECEF  F027         	call	_calculateTmr	;wreg free
   979  005456  EF47  F02A         	goto	l5297
   980  00545A                     l5281:
   981                           
   982                           ; BSR set to: 0
   983  00545A  ECC2  F02A         	call	_init	;wreg free
   984                           
   985                           ;main.c: 27:                 break;
   986  00545E  EF47  F02A         	goto	l5297
   987  005462                     l5283:
   988                           
   989                           ; BSR set to: 0
   990  005462  EC1E  F02C         	call	_normalIncrease	;wreg free
   991                           
   992                           ;main.c: 29:                 break;
   993  005466  EF47  F02A         	goto	l5297
   994  00546A                     l5285:
   995                           
   996                           ; BSR set to: 0
   997  00546A  EC68  F02B         	call	_slowIncrease	;wreg free
   998                           
   999                           ;main.c: 31:                 break;
  1000  00546E  EF47  F02A         	goto	l5297
  1001  005472                     l5287:
  1002                           
  1003                           ; BSR set to: 0
  1004  005472  ECBD  F02B         	call	_fastIncrease	;wreg free
  1005                           
  1006                           ;main.c: 33:                 break;
  1007  005476  EF47  F02A         	goto	l5297
  1008  00547A                     l5289:
  1009                           
  1010                           ; BSR set to: 0
  1011  00547A  EC35  F02B         	call	_normalDecrease	;wreg free
  1012                           
  1013                           ;main.c: 35:                 break;
  1014  00547E  EF47  F02A         	goto	l5297
  1015  005482                     l5291:
  1016                           
  1017                           ; BSR set to: 0
  1018  005482  EC73  F02A         	call	_slowDecrease	;wreg free
  1019                           
  1020                           ;main.c: 37:                 break;
  1021  005486  EF47  F02A         	goto	l5297
  1022  00548A                     l5293:
  1023                           
  1024                           ; BSR set to: 0
  1025  00548A  ECFF  F02A         	call	_fastDecrease	;wreg free
  1026  00548E                     l5297:
  1027  00548E  0100               	movlb	0	; () banked
  1028  005490  51C1               	movf	_state& (0+255),w,b
  1029  005492  6FB3               	movwf	??_main& (0+255),b
  1030  005494  6BB4               	clrf	(??_main+1)& (0+255),b
  1031                           
  1032                           ; Switch on 2 bytes has been partitioned into a top level switch of size 1, and 1 sub-sw
      +                          itches
  1033                           ; Switch size 1, requested type "simple"
  1034                           ; Number of cases is 1, Range of values is 0 to 0
  1035                           ; switch strategies available:
  1036                           ; Name         Instructions Cycles
  1037                           ; simple_byte            4     3 (average)
  1038                           ;	Chosen strategy is simple_byte
  1039  005496  51B4               	movf	(??_main+1)& (0+255),w,b
  1040  005498  0A00               	xorlw	0	; case 0
  1041  00549A  B4D8               	btfsc	status,2,c
  1042  00549C  EF52  F02A         	goto	l5323
  1043  0054A0  EF47  F02A         	goto	l5297
  1044  0054A4                     l5323:
  1045                           
  1046                           ; BSR set to: 0
  1047                           ; Switch size 1, requested type "simple"
  1048                           ; Number of cases is 7, Range of values is 0 to 6
  1049                           ; switch strategies available:
  1050                           ; Name         Instructions Cycles
  1051                           ; simple_byte           22    12 (average)
  1052                           ;	Chosen strategy is simple_byte
  1053  0054A4  51B3               	movf	??_main& (0+255),w,b
  1054  0054A6  0A00               	xorlw	0	; case 0
  1055  0054A8  B4D8               	btfsc	status,2,c
  1056  0054AA  EF2D  F02A         	goto	l5281
  1057  0054AE  0A01               	xorlw	1	; case 1
  1058  0054B0  B4D8               	btfsc	status,2,c
  1059  0054B2  EF31  F02A         	goto	l5283
  1060  0054B6  0A03               	xorlw	3	; case 2
  1061  0054B8  B4D8               	btfsc	status,2,c
  1062  0054BA  EF35  F02A         	goto	l5285
  1063  0054BE  0A01               	xorlw	1	; case 3
  1064  0054C0  B4D8               	btfsc	status,2,c
  1065  0054C2  EF39  F02A         	goto	l5287
  1066  0054C6  0A07               	xorlw	7	; case 4
  1067  0054C8  B4D8               	btfsc	status,2,c
  1068  0054CA  EF3D  F02A         	goto	l5289
  1069  0054CE  0A01               	xorlw	1	; case 5
  1070  0054D0  B4D8               	btfsc	status,2,c
  1071  0054D2  EF41  F02A         	goto	l5291
  1072  0054D6  0A03               	xorlw	3	; case 6
  1073  0054D8  B4D8               	btfsc	status,2,c
  1074  0054DA  EF45  F02A         	goto	l5293
  1075  0054DE  EF47  F02A         	goto	l5297
  1076  0054E2  EF07  F000         	goto	start
  1077  0054E6                     __end_of_main:
  1078                           	opt callstack 0
  1079                           
  1080 ;; *************** function _slowIncrease *****************
  1081 ;; Defined at:
  1082 ;;		line 29 in file "LEDControl.c"
  1083 ;; Parameters:    Size  Location     Type
  1084 ;;		None
  1085 ;; Auto vars:     Size  Location     Type
  1086 ;;		None
  1087 ;; Return value:  Size  Location     Type
  1088 ;;                  1    wreg      void 
  1089 ;; Registers used:
  1090 ;;		wreg, status,2, status,0
  1091 ;; Tracked objects:
  1092 ;;		On entry : 0/0
  1093 ;;		On exit  : 0/0
  1094 ;;		Unchanged: 0/0
  1095 ;; Data sizes:     COMRAM   BANK0   BANK1   BANK2   BANK3   BANK4   BANK5   BANK6   BANK7   BANK8   BANK9  BANK10  BANK1
      +1  BANK12  BANK13  BANK14  BANK15
  1096 ;;      Params:         0       0       0       0       0       0       0       0       0       0       0       0       
      +0       0       0       0       0
  1097 ;;      Locals:         0       0       0       0       0       0       0       0       0       0       0       0       
      +0       0       0       0       0
  1098 ;;      Temps:          0       0       0       0       0       0       0       0       0       0       0       0       
      +0       0       0       0       0
  1099 ;;      Totals:         0       0       0       0       0       0       0       0       0       0       0       0       
      +0       0       0       0       0
  1100 ;;Total ram usage:        0 bytes
  1101 ;; Hardware stack levels used:    1
  1102 ;; Hardware stack levels required when called:    3
  1103 ;; This function calls:
  1104 ;;		Nothing
  1105 ;; This function is called by:
  1106 ;;		_main
  1107 ;; This function uses a non-reentrant model
  1108 ;;
  1109                           
  1110                           	psect	text1
  1111  0056D0                     __ptext1:
  1112                           	opt callstack 0
  1113  0056D0                     _slowIncrease:
  1114                           	opt callstack 27
  1115  0056D0                     
  1116                           ;LEDControl.c: 30:     if (countI == 0) {
  1117  0056D0  505B               	movf	_countI^0,w,c
  1118  0056D2  105C               	iorwf	(_countI+1)^0,w,c
  1119  0056D4  A4D8               	btfss	status,2,c
  1120  0056D6  EF6F  F02B         	goto	u4111
  1121  0056DA  EF71  F02B         	goto	u4110
  1122  0056DE                     u4111:
  1123  0056DE  EF74  F02B         	goto	l3925
  1124  0056E2                     u4110:
  1125  0056E2                     
  1126                           ;LEDControl.c: 31:         state = INIT;
  1127  0056E2  0E00               	movlw	0
  1128  0056E4  0100               	movlb	0	; () banked
  1129  0056E6  6FC1               	movwf	_state& (0+255),b
  1130  0056E8                     l3925:
  1131                           
  1132                           ;LEDControl.c: 33:     if (countI > 3000/20) {
  1133  0056E8  BE5C               	btfsc	(_countI+1)^0,7,c
  1134  0056EA  EF80  F02B         	goto	u4121
  1135  0056EE  505C               	movf	(_countI+1)^0,w,c
  1136  0056F0  E109               	bnz	u4120
  1137  0056F2  0E97               	movlw	151
  1138  0056F4  5C5B               	subwf	_countI^0,w,c
  1139  0056F6  A0D8               	btfss	status,0,c
  1140  0056F8  EF80  F02B         	goto	u4121
  1141  0056FC  EF82  F02B         	goto	u4120
  1142  005700                     u4121:
  1143  005700  EF85  F02B         	goto	l3929
  1144  005704                     u4120:
  1145  005704                     
  1146                           ;LEDControl.c: 34:         state = FAST_INCREASE;
  1147  005704  0E03               	movlw	3
  1148  005706  0100               	movlb	0	; () banked
  1149  005708  6FC1               	movwf	_state& (0+255),b
  1150  00570A                     l3929:
  1151                           
  1152                           ;LEDControl.c: 36:     if (slowCount > 500/20) {
  1153  00570A  0100               	movlb	0	; () banked
  1154  00570C  BFBE               	btfsc	(_slowCount+1)& (0+255),7,b
  1155  00570E  EF92  F02B         	goto	u4131
  1156  005712  51BE               	movf	(_slowCount+1)& (0+255),w,b
  1157  005714  E109               	bnz	u4130
  1158  005716  0E1A               	movlw	26
  1159  005718  5DBD               	subwf	_slowCount& (0+255),w,b
  1160  00571A  A0D8               	btfss	status,0,c
  1161  00571C  EF92  F02B         	goto	u4131
  1162  005720  EF94  F02B         	goto	u4130
  1163  005724                     u4131:
  1164  005724  EF99  F02B         	goto	l283
  1165  005728                     u4130:
  1166  005728                     
  1167                           ; BSR set to: 0
  1168                           ;LEDControl.c: 37:         LATD++;
  1169  005728  2A8C               	incf	140,f,c	;volatile
  1170  00572A                     
  1171                           ; BSR set to: 0
  1172                           ;LEDControl.c: 38:         slowCount = 0;
  1173  00572A  0E00               	movlw	0
  1174  00572C  6FBE               	movwf	(_slowCount+1)& (0+255),b
  1175  00572E  0E00               	movlw	0
  1176  005730  6FBD               	movwf	_slowCount& (0+255),b
  1177  005732                     l283:
  1178                           
  1179                           ; BSR set to: 0
  1180  005732  0012               	return		;funcret
  1181  005734                     __end_of_slowIncrease:
  1182                           	opt callstack 0
  1183                           
  1184 ;; *************** function _slowDecrease *****************
  1185 ;; Defined at:
  1186 ;;		line 61 in file "LEDControl.c"
  1187 ;; Parameters:    Size  Location     Type
  1188 ;;		None
  1189 ;; Auto vars:     Size  Location     Type
  1190 ;;		None
  1191 ;; Return value:  Size  Location     Type
  1192 ;;                  1    wreg      void 
  1193 ;; Registers used:
  1194 ;;		wreg, status,2, status,0
  1195 ;; Tracked objects:
  1196 ;;		On entry : 0/0
  1197 ;;		On exit  : 0/0
  1198 ;;		Unchanged: 0/0
  1199 ;; Data sizes:     COMRAM   BANK0   BANK1   BANK2   BANK3   BANK4   BANK5   BANK6   BANK7   BANK8   BANK9  BANK10  BANK1
      +1  BANK12  BANK13  BANK14  BANK15
  1200 ;;      Params:         0       0       0       0       0       0       0       0       0       0       0       0       
      +0       0       0       0       0
  1201 ;;      Locals:         0       0       0       0       0       0       0       0       0       0       0       0       
      +0       0       0       0       0
  1202 ;;      Temps:          0       0       0       0       0       0       0       0       0       0       0       0       
      +0       0       0       0       0
  1203 ;;      Totals:         0       0       0       0       0       0       0       0       0       0       0       0       
      +0       0       0       0       0
  1204 ;;Total ram usage:        0 bytes
  1205 ;; Hardware stack levels used:    1
  1206 ;; Hardware stack levels required when called:    3
  1207 ;; This function calls:
  1208 ;;		Nothing
  1209 ;; This function is called by:
  1210 ;;		_main
  1211 ;; This function uses a non-reentrant model
  1212 ;;
  1213                           
  1214                           	psect	text2
  1215  0054E6                     __ptext2:
  1216                           	opt callstack 0
  1217  0054E6                     _slowDecrease:
  1218                           	opt callstack 27
  1219  0054E6                     
  1220                           ;LEDControl.c: 62:     if (countD == 0 || countI > 0) {
  1221  0054E6  0100               	movlb	0	; () banked
  1222  0054E8  51BF               	movf	_countD& (0+255),w,b
  1223  0054EA  11C0               	iorwf	(_countD+1)& (0+255),w,b
  1224  0054EC  B4D8               	btfsc	status,2,c
  1225  0054EE  EF7B  F02A         	goto	u4201
  1226  0054F2  EF7D  F02A         	goto	u4200
  1227  0054F6                     u4201:
  1228  0054F6  EF8A  F02A         	goto	l3961
  1229  0054FA                     u4200:
  1230  0054FA                     
  1231                           ; BSR set to: 0
  1232  0054FA  BE5C               	btfsc	(_countI+1)^0,7,c
  1233  0054FC  EF88  F02A         	goto	u4211
  1234  005500  505C               	movf	(_countI+1)^0,w,c
  1235  005502  E108               	bnz	u4210
  1236  005504  045B               	decf	_countI^0,w,c
  1237  005506  A0D8               	btfss	status,0,c
  1238  005508  EF88  F02A         	goto	u4211
  1239  00550C  EF8A  F02A         	goto	u4210
  1240  005510                     u4211:
  1241  005510  EF8C  F02A         	goto	l3963
  1242  005514                     u4210:
  1243  005514                     l3961:
  1244                           
  1245                           ; BSR set to: 0
  1246                           ;LEDControl.c: 63:         state = INIT;
  1247  005514  0E00               	movlw	0
  1248  005516  6FC1               	movwf	_state& (0+255),b
  1249  005518                     l3963:
  1250                           
  1251                           ; BSR set to: 0
  1252                           ;LEDControl.c: 65:     if (countD > 3000/20 && countI == 0) {
  1253  005518  BFC0               	btfsc	(_countD+1)& (0+255),7,b
  1254  00551A  EF98  F02A         	goto	u4221
  1255  00551E  51C0               	movf	(_countD+1)& (0+255),w,b
  1256  005520  E109               	bnz	u4220
  1257  005522  0E97               	movlw	151
  1258  005524  5DBF               	subwf	_countD& (0+255),w,b
  1259  005526  A0D8               	btfss	status,0,c
  1260  005528  EF98  F02A         	goto	u4221
  1261  00552C  EF9A  F02A         	goto	u4220
  1262  005530                     u4221:
  1263  005530  EFA5  F02A         	goto	l3969
  1264  005534                     u4220:
  1265  005534                     
  1266                           ; BSR set to: 0
  1267  005534  505B               	movf	_countI^0,w,c
  1268  005536  105C               	iorwf	(_countI+1)^0,w,c
  1269  005538  A4D8               	btfss	status,2,c
  1270  00553A  EFA1  F02A         	goto	u4231
  1271  00553E  EFA3  F02A         	goto	u4230
  1272  005542                     u4231:
  1273  005542  EFA5  F02A         	goto	l3969
  1274  005546                     u4230:
  1275  005546                     
  1276                           ; BSR set to: 0
  1277                           ;LEDControl.c: 66:         state = FAST_DECREASE;
  1278  005546  0E06               	movlw	6
  1279  005548  6FC1               	movwf	_state& (0+255),b
  1280  00554A                     l3969:
  1281                           
  1282                           ; BSR set to: 0
  1283                           ;LEDControl.c: 68:     if (slowCount > 500/20 && countI == 0) {
  1284  00554A  BFBE               	btfsc	(_slowCount+1)& (0+255),7,b
  1285  00554C  EFB1  F02A         	goto	u4241
  1286  005550  51BE               	movf	(_slowCount+1)& (0+255),w,b
  1287  005552  E109               	bnz	u4240
  1288  005554  0E1A               	movlw	26
  1289  005556  5DBD               	subwf	_slowCount& (0+255),w,b
  1290  005558  A0D8               	btfss	status,0,c
  1291  00555A  EFB1  F02A         	goto	u4241
  1292  00555E  EFB3  F02A         	goto	u4240
  1293  005562                     u4241:
  1294  005562  EFC1  F02A         	goto	l303
  1295  005566                     u4240:
  1296  005566                     
  1297                           ; BSR set to: 0
  1298  005566  505B               	movf	_countI^0,w,c
  1299  005568  105C               	iorwf	(_countI+1)^0,w,c
  1300  00556A  A4D8               	btfss	status,2,c
  1301  00556C  EFBA  F02A         	goto	u4251
  1302  005570  EFBC  F02A         	goto	u4250
  1303  005574                     u4251:
  1304  005574  EFC1  F02A         	goto	l303
  1305  005578                     u4250:
  1306  005578                     
  1307                           ; BSR set to: 0
  1308                           ;LEDControl.c: 69:         LATD--;
  1309  005578  068C               	decf	140,f,c	;volatile
  1310  00557A                     
  1311                           ; BSR set to: 0
  1312                           ;LEDControl.c: 70:         slowCount = 0;
  1313  00557A  0E00               	movlw	0
  1314  00557C  6FBE               	movwf	(_slowCount+1)& (0+255),b
  1315  00557E  0E00               	movlw	0
  1316  005580  6FBD               	movwf	_slowCount& (0+255),b
  1317  005582                     l303:
  1318                           
  1319                           ; BSR set to: 0
  1320  005582  0012               	return		;funcret
  1321  005584                     __end_of_slowDecrease:
  1322                           	opt callstack 0
  1323                           
  1324 ;; *************** function _normalIncrease *****************
  1325 ;; Defined at:
  1326 ;;		line 20 in file "LEDControl.c"
  1327 ;; Parameters:    Size  Location     Type
  1328 ;;		None
  1329 ;; Auto vars:     Size  Location     Type
  1330 ;;		None
  1331 ;; Return value:  Size  Location     Type
  1332 ;;                  1    wreg      void 
  1333 ;; Registers used:
  1334 ;;		wreg, status,2, status,0
  1335 ;; Tracked objects:
  1336 ;;		On entry : 0/0
  1337 ;;		On exit  : 0/0
  1338 ;;		Unchanged: 0/0
  1339 ;; Data sizes:     COMRAM   BANK0   BANK1   BANK2   BANK3   BANK4   BANK5   BANK6   BANK7   BANK8   BANK9  BANK10  BANK1
      +1  BANK12  BANK13  BANK14  BANK15
  1340 ;;      Params:         0       0       0       0       0       0       0       0       0       0       0       0       
      +0       0       0       0       0
  1341 ;;      Locals:         0       0       0       0       0       0       0       0       0       0       0       0       
      +0       0       0       0       0
  1342 ;;      Temps:          0       0       0       0       0       0       0       0       0       0       0       0       
      +0       0       0       0       0
  1343 ;;      Totals:         0       0       0       0       0       0       0       0       0       0       0       0       
      +0       0       0       0       0
  1344 ;;Total ram usage:        0 bytes
  1345 ;; Hardware stack levels used:    1
  1346 ;; Hardware stack levels required when called:    3
  1347 ;; This function calls:
  1348 ;;		Nothing
  1349 ;; This function is called by:
  1350 ;;		_main
  1351 ;; This function uses a non-reentrant model
  1352 ;;
  1353                           
  1354                           	psect	text3
  1355  00583C                     __ptext3:
  1356                           	opt callstack 0
  1357  00583C                     _normalIncrease:
  1358                           	opt callstack 27
  1359  00583C                     
  1360                           ;LEDControl.c: 21:     if (countI == 0) {
  1361  00583C  505B               	movf	_countI^0,w,c
  1362  00583E  105C               	iorwf	(_countI+1)^0,w,c
  1363  005840  A4D8               	btfss	status,2,c
  1364  005842  EF25  F02C         	goto	u4091
  1365  005846  EF27  F02C         	goto	u4090
  1366  00584A                     u4091:
  1367  00584A  EF2A  F02C         	goto	l3917
  1368  00584E                     u4090:
  1369  00584E                     
  1370                           ;LEDControl.c: 22:         state = INIT;
  1371  00584E  0E00               	movlw	0
  1372  005850  0100               	movlb	0	; () banked
  1373  005852  6FC1               	movwf	_state& (0+255),b
  1374  005854                     l3917:
  1375                           
  1376                           ;LEDControl.c: 24:     if (countI > 1000/20) {
  1377  005854  BE5C               	btfsc	(_countI+1)^0,7,c
  1378  005856  EF36  F02C         	goto	u4101
  1379  00585A  505C               	movf	(_countI+1)^0,w,c
  1380  00585C  E109               	bnz	u4100
  1381  00585E  0E33               	movlw	51
  1382  005860  5C5B               	subwf	_countI^0,w,c
  1383  005862  A0D8               	btfss	status,0,c
  1384  005864  EF36  F02C         	goto	u4101
  1385  005868  EF38  F02C         	goto	u4100
  1386  00586C                     u4101:
  1387  00586C  EF3B  F02C         	goto	l277
  1388  005870                     u4100:
  1389  005870                     
  1390                           ;LEDControl.c: 25:         state = SLOW_INCREASE;
  1391  005870  0E02               	movlw	2
  1392  005872  0100               	movlb	0	; () banked
  1393  005874  6FC1               	movwf	_state& (0+255),b
  1394  005876                     l277:
  1395  005876  0012               	return		;funcret
  1396  005878                     __end_of_normalIncrease:
  1397                           	opt callstack 0
  1398                           
  1399 ;; *************** function _normalDecrease *****************
  1400 ;; Defined at:
  1401 ;;		line 52 in file "LEDControl.c"
  1402 ;; Parameters:    Size  Location     Type
  1403 ;;		None
  1404 ;; Auto vars:     Size  Location     Type
  1405 ;;		None
  1406 ;; Return value:  Size  Location     Type
  1407 ;;                  1    wreg      void 
  1408 ;; Registers used:
  1409 ;;		wreg, status,2, status,0
  1410 ;; Tracked objects:
  1411 ;;		On entry : 0/0
  1412 ;;		On exit  : 0/0
  1413 ;;		Unchanged: 0/0
  1414 ;; Data sizes:     COMRAM   BANK0   BANK1   BANK2   BANK3   BANK4   BANK5   BANK6   BANK7   BANK8   BANK9  BANK10  BANK1
      +1  BANK12  BANK13  BANK14  BANK15
  1415 ;;      Params:         0       0       0       0       0       0       0       0       0       0       0       0       
      +0       0       0       0       0
  1416 ;;      Locals:         0       0       0       0       0       0       0       0       0       0       0       0       
      +0       0       0       0       0
  1417 ;;      Temps:          0       0       0       0       0       0       0       0       0       0       0       0       
      +0       0       0       0       0
  1418 ;;      Totals:         0       0       0       0       0       0       0       0       0       0       0       0       
      +0       0       0       0       0
  1419 ;;Total ram usage:        0 bytes
  1420 ;; Hardware stack levels used:    1
  1421 ;; Hardware stack levels required when called:    3
  1422 ;; This function calls:
  1423 ;;		Nothing
  1424 ;; This function is called by:
  1425 ;;		_main
  1426 ;; This function uses a non-reentrant model
  1427 ;;
  1428                           
  1429                           	psect	text4
  1430  00566A                     __ptext4:
  1431                           	opt callstack 0
  1432  00566A                     _normalDecrease:
  1433                           	opt callstack 27
  1434  00566A                     
  1435                           ;LEDControl.c: 53:     if (countD == 0 || countI > 0) {
  1436  00566A  0100               	movlb	0	; () banked
  1437  00566C  51BF               	movf	_countD& (0+255),w,b
  1438  00566E  11C0               	iorwf	(_countD+1)& (0+255),w,b
  1439  005670  B4D8               	btfsc	status,2,c
  1440  005672  EF3D  F02B         	goto	u4161
  1441  005676  EF3F  F02B         	goto	u4160
  1442  00567A                     u4161:
  1443  00567A  EF4C  F02B         	goto	l3949
  1444  00567E                     u4160:
  1445  00567E                     
  1446                           ; BSR set to: 0
  1447  00567E  BE5C               	btfsc	(_countI+1)^0,7,c
  1448  005680  EF4A  F02B         	goto	u4171
  1449  005684  505C               	movf	(_countI+1)^0,w,c
  1450  005686  E108               	bnz	u4170
  1451  005688  045B               	decf	_countI^0,w,c
  1452  00568A  A0D8               	btfss	status,0,c
  1453  00568C  EF4A  F02B         	goto	u4171
  1454  005690  EF4C  F02B         	goto	u4170
  1455  005694                     u4171:
  1456  005694  EF4E  F02B         	goto	l3951
  1457  005698                     u4170:
  1458  005698                     l3949:
  1459                           
  1460                           ; BSR set to: 0
  1461                           ;LEDControl.c: 54:         state = INIT;
  1462  005698  0E00               	movlw	0
  1463  00569A  6FC1               	movwf	_state& (0+255),b
  1464  00569C                     l3951:
  1465                           
  1466                           ; BSR set to: 0
  1467                           ;LEDControl.c: 56:     if (countD > 1000/20 && countI == 0) {
  1468  00569C  BFC0               	btfsc	(_countD+1)& (0+255),7,b
  1469  00569E  EF5A  F02B         	goto	u4181
  1470  0056A2  51C0               	movf	(_countD+1)& (0+255),w,b
  1471  0056A4  E109               	bnz	u4180
  1472  0056A6  0E33               	movlw	51
  1473  0056A8  5DBF               	subwf	_countD& (0+255),w,b
  1474  0056AA  A0D8               	btfss	status,0,c
  1475  0056AC  EF5A  F02B         	goto	u4181
  1476  0056B0  EF5C  F02B         	goto	u4180
  1477  0056B4                     u4181:
  1478  0056B4  EF67  F02B         	goto	l295
  1479  0056B8                     u4180:
  1480  0056B8                     
  1481                           ; BSR set to: 0
  1482  0056B8  505B               	movf	_countI^0,w,c
  1483  0056BA  105C               	iorwf	(_countI+1)^0,w,c
  1484  0056BC  A4D8               	btfss	status,2,c
  1485  0056BE  EF63  F02B         	goto	u4191
  1486  0056C2  EF65  F02B         	goto	u4190
  1487  0056C6                     u4191:
  1488  0056C6  EF67  F02B         	goto	l295
  1489  0056CA                     u4190:
  1490  0056CA                     
  1491                           ; BSR set to: 0
  1492                           ;LEDControl.c: 57:         state = SLOW_DECREASE;
  1493  0056CA  0E05               	movlw	5
  1494  0056CC  6FC1               	movwf	_state& (0+255),b
  1495  0056CE                     l295:
  1496                           
  1497                           ; BSR set to: 0
  1498  0056CE  0012               	return		;funcret
  1499  0056D0                     __end_of_normalDecrease:
  1500                           	opt callstack 0
  1501                           
  1502 ;; *************** function _initTmr *****************
  1503 ;; Defined at:
  1504 ;;		line 3 in file "initialization.c"
  1505 ;; Parameters:    Size  Location     Type
  1506 ;;		None
  1507 ;; Auto vars:     Size  Location     Type
  1508 ;;		None
  1509 ;; Return value:  Size  Location     Type
  1510 ;;                  1    wreg      void 
  1511 ;; Registers used:
  1512 ;;		wreg, status,2, status,0, tblptrl, tblptrh, tblptru, prodl, prodh, cstack
  1513 ;; Tracked objects:
  1514 ;;		On entry : 0/0
  1515 ;;		On exit  : 0/0
  1516 ;;		Unchanged: 0/0
  1517 ;; Data sizes:     COMRAM   BANK0   BANK1   BANK2   BANK3   BANK4   BANK5   BANK6   BANK7   BANK8   BANK9  BANK10  BANK1
      +1  BANK12  BANK13  BANK14  BANK15
  1518 ;;      Params:         0       0       0       0       0       0       0       0       0       0       0       0       
      +0       0       0       0       0
  1519 ;;      Locals:         0       0       0       0       0       0       0       0       0       0       0       0       
      +0       0       0       0       0
  1520 ;;      Temps:          0       0       0       0       0       0       0       0       0       0       0       0       
      +0       0       0       0       0
  1521 ;;      Totals:         0       0       0       0       0       0       0       0       0       0       0       0       
      +0       0       0       0       0
  1522 ;;Total ram usage:        0 bytes
  1523 ;; Hardware stack levels used:    1
  1524 ;; Hardware stack levels required when called:    7
  1525 ;; This function calls:
  1526 ;;		_calculateTmr
  1527 ;; This function is called by:
  1528 ;;		_main
  1529 ;; This function uses a non-reentrant model
  1530 ;;
  1531                           
  1532                           	psect	text5
  1533  005962                     __ptext5:
  1534                           	opt callstack 0
  1535  005962                     _initTmr:
  1536                           	opt callstack 23
  1537  005962                     
  1538                           ;initialization.c: 4:     calculateTmr();
  1539  005962  ECEF  F027         	call	_calculateTmr	;wreg free
  1540  005966                     
  1541                           ;initialization.c: 5:     INTCONbits.TMR0IE = 1;
  1542  005966  8AF2               	bsf	242,5,c	;volatile
  1543  005968                     
  1544                           ;initialization.c: 6:     INTCONbits.GIE = 1;
  1545  005968  8EF2               	bsf	242,7,c	;volatile
  1546  00596A                     
  1547                           ;initialization.c: 7:     T0CON = 0b10001000;
  1548  00596A  0E88               	movlw	136
  1549  00596C  6ED5               	movwf	213,c	;volatile
  1550  00596E                     
  1551                           ;initialization.c: 8:     TMR0 = timerCounter;
  1552  00596E  C0C6  FFD6         	movff	_timerCounter,4054	;volatile
  1553  005972  C0C7  FFD7         	movff	_timerCounter+1,4055	;volatile
  1554  005976  0012               	return		;funcret
  1555  005978                     __end_of_initTmr:
  1556                           	opt callstack 0
  1557                           
  1558 ;; *************** function _calculateTmr *****************
  1559 ;; Defined at:
  1560 ;;		line 3 in file "calculateTmr.c"
  1561 ;; Parameters:    Size  Location     Type
  1562 ;;		None
  1563 ;; Auto vars:     Size  Location     Type
  1564 ;;		None
  1565 ;; Return value:  Size  Location     Type
  1566 ;;                  1    wreg      void 
  1567 ;; Registers used:
  1568 ;;		wreg, status,2, status,0, tblptrl, tblptrh, tblptru, prodl, prodh, cstack
  1569 ;; Tracked objects:
  1570 ;;		On entry : 0/0
  1571 ;;		On exit  : 0/0
  1572 ;;		Unchanged: 0/0
  1573 ;; Data sizes:     COMRAM   BANK0   BANK1   BANK2   BANK3   BANK4   BANK5   BANK6   BANK7   BANK8   BANK9  BANK10  BANK1
      +1  BANK12  BANK13  BANK14  BANK15
  1574 ;;      Params:         0       0       0       0       0       0       0       0       0       0       0       0       
      +0       0       0       0       0
  1575 ;;      Locals:         0      16       0       0       0       0       0       0       0       0       0       0       
      +0       0       0       0       0
  1576 ;;      Temps:          0       0       0       0       0       0       0       0       0       0       0       0       
      +0       0       0       0       0
  1577 ;;      Totals:         0      16       0       0       0       0       0       0       0       0       0       0       
      +0       0       0       0       0
  1578 ;;Total ram usage:       16 bytes
  1579 ;; Hardware stack levels used:    1
  1580 ;; Hardware stack levels required when called:    6
  1581 ;; This function calls:
  1582 ;;		___flmul
  1583 ;;		___flsub
  1584 ;;		___fltol
  1585 ;;		___xxtofl
  1586 ;;		_powf
  1587 ;; This function is called by:
  1588 ;;		_main
  1589 ;;		_initTmr
  1590 ;; This function uses a non-reentrant model
  1591 ;;
  1592                           
  1593                           	psect	text6
  1594  004FDE                     __ptext6:
  1595                           	opt callstack 0
  1596  004FDE                     _calculateTmr:
  1597                           	opt callstack 23
  1598  004FDE                     
  1599                           ;calculateTmr.c: 4:     timerCounter = powf(2,16) - (int)((20 ) * (2 * powf(10,3)));
  1600  004FDE  0E00               	movlw	0
  1601  004FE0  0100               	movlb	0	; () banked
  1602  004FE2  6F8C               	movwf	powf@y& (0+255),b
  1603  004FE4  0E00               	movlw	0
  1604  004FE6  6F8D               	movwf	(powf@y+1)& (0+255),b
  1605  004FE8  0E40               	movlw	64
  1606  004FEA  6F8E               	movwf	(powf@y+2)& (0+255),b
  1607  004FEC  0E40               	movlw	64
  1608  004FEE  6F8F               	movwf	(powf@y+3)& (0+255),b
  1609  004FF0  0E00               	movlw	0
  1610  004FF2  6F88               	movwf	powf@x& (0+255),b
  1611  004FF4  0E00               	movlw	0
  1612  004FF6  6F89               	movwf	(powf@x+1)& (0+255),b
  1613  004FF8  0E20               	movlw	32
  1614  004FFA  6F8A               	movwf	(powf@x+2)& (0+255),b
  1615  004FFC  0E41               	movlw	65
  1616  004FFE  6F8B               	movwf	(powf@x+3)& (0+255),b
  1617  005000  EC40  F008         	call	_powf	;wreg free
  1618  005004  C088  F0A3         	movff	?_powf,_calculateTmr$1340
  1619  005008  C089  F0A4         	movff	?_powf+1,_calculateTmr$1340+1
  1620  00500C  C08A  F0A5         	movff	?_powf+2,_calculateTmr$1340+2
  1621  005010  C08B  F0A6         	movff	?_powf+3,_calculateTmr$1340+3
  1622  005014                     
  1623                           ;calculateTmr.c: 4:     timerCounter = powf(2,16) - (int)((20 ) * (2 * powf(10,3)));
  1624  005014  0E00               	movlw	0
  1625  005016  6E17               	movwf	___flmul@a^0,c
  1626  005018  0E00               	movlw	0
  1627  00501A  6E18               	movwf	(___flmul@a+1)^0,c
  1628  00501C  0E00               	movlw	0
  1629  00501E  6E19               	movwf	(___flmul@a+2)^0,c
  1630  005020  0E40               	movlw	64
  1631  005022  6E1A               	movwf	(___flmul@a+3)^0,c
  1632  005024  C0A3  F013         	movff	_calculateTmr$1340,___flmul@b
  1633  005028  C0A4  F014         	movff	_calculateTmr$1340+1,___flmul@b+1
  1634  00502C  C0A5  F015         	movff	_calculateTmr$1340+2,___flmul@b+2
  1635  005030  C0A6  F016         	movff	_calculateTmr$1340+3,___flmul@b+3
  1636  005034  EC19  F022         	call	___flmul	;wreg free
  1637  005038  C013  F0A7         	movff	?___flmul,_calculateTmr$1341
  1638  00503C  C014  F0A8         	movff	?___flmul+1,_calculateTmr$1341+1
  1639  005040  C015  F0A9         	movff	?___flmul+2,_calculateTmr$1341+2
  1640  005044  C016  F0AA         	movff	?___flmul+3,_calculateTmr$1341+3
  1641  005048                     
  1642                           ;calculateTmr.c: 4:     timerCounter = powf(2,16) - (int)((20 ) * (2 * powf(10,3)));
  1643  005048  0E00               	movlw	0
  1644  00504A  0100               	movlb	0	; () banked
  1645  00504C  6F8C               	movwf	powf@y& (0+255),b
  1646  00504E  0E00               	movlw	0
  1647  005050  6F8D               	movwf	(powf@y+1)& (0+255),b
  1648  005052  0E80               	movlw	128
  1649  005054  6F8E               	movwf	(powf@y+2)& (0+255),b
  1650  005056  0E41               	movlw	65
  1651  005058  6F8F               	movwf	(powf@y+3)& (0+255),b
  1652  00505A  0E00               	movlw	0
  1653  00505C  6F88               	movwf	powf@x& (0+255),b
  1654  00505E  0E00               	movlw	0
  1655  005060  6F89               	movwf	(powf@x+1)& (0+255),b
  1656  005062  0E00               	movlw	0
  1657  005064  6F8A               	movwf	(powf@x+2)& (0+255),b
  1658  005066  0E40               	movlw	64
  1659  005068  6F8B               	movwf	(powf@x+3)& (0+255),b
  1660  00506A  EC40  F008         	call	_powf	;wreg free
  1661  00506E  C088  F0AB         	movff	?_powf,_calculateTmr$1342
  1662  005072  C089  F0AC         	movff	?_powf+1,_calculateTmr$1342+1
  1663  005076  C08A  F0AD         	movff	?_powf+2,_calculateTmr$1342+2
  1664  00507A  C08B  F0AE         	movff	?_powf+3,_calculateTmr$1342+3
  1665                           
  1666                           ;calculateTmr.c: 4:     timerCounter = powf(2,16) - (int)((20 ) * (2 * powf(10,3)));
  1667  00507E  0E00               	movlw	0
  1668  005080  6E17               	movwf	___flmul@a^0,c
  1669  005082  0E00               	movlw	0
  1670  005084  6E18               	movwf	(___flmul@a+1)^0,c
  1671  005086  0EA0               	movlw	160
  1672  005088  6E19               	movwf	(___flmul@a+2)^0,c
  1673  00508A  0E41               	movlw	65
  1674  00508C  6E1A               	movwf	(___flmul@a+3)^0,c
  1675  00508E  C0A7  F013         	movff	_calculateTmr$1341,___flmul@b
  1676  005092  C0A8  F014         	movff	_calculateTmr$1341+1,___flmul@b+1
  1677  005096  C0A9  F015         	movff	_calculateTmr$1341+2,___flmul@b+2
  1678  00509A  C0AA  F016         	movff	_calculateTmr$1341+3,___flmul@b+3
  1679  00509E  EC19  F022         	call	___flmul	;wreg free
  1680  0050A2  C013  F099         	movff	?___flmul,___fltol@f1
  1681  0050A6  C014  F09A         	movff	?___flmul+1,___fltol@f1+1
  1682  0050AA  C015  F09B         	movff	?___flmul+2,___fltol@f1+2
  1683  0050AE  C016  F09C         	movff	?___flmul+3,___fltol@f1+3
  1684  0050B2  EC1B  F029         	call	___fltol	;wreg free
  1685  0050B6  0100               	movlb	0	; () banked
  1686  0050B8  C099  F02C         	movff	?___fltol,___xxtofl@val
  1687  0050BC  C09A  F02D         	movff	?___fltol+1,___xxtofl@val+1
  1688  0050C0  0E00               	movlw	0
  1689  0050C2  BE2D               	btfsc	(___xxtofl@val+1)^0,7,c
  1690  0050C4  0EFF               	movlw	-1
  1691  0050C6  6E2E               	movwf	(___xxtofl@val+2)^0,c
  1692  0050C8  6E2F               	movwf	(___xxtofl@val+3)^0,c
  1693  0050CA  0E01               	movlw	1
  1694  0050CC  EC15  F027         	call	___xxtofl
  1695  0050D0  C02C  F03E         	movff	?___xxtofl,___flsub@a
  1696  0050D4  C02D  F03F         	movff	?___xxtofl+1,___flsub@a+1
  1697  0050D8  C02E  F040         	movff	?___xxtofl+2,___flsub@a+2
  1698  0050DC  C02F  F041         	movff	?___xxtofl+3,___flsub@a+3
  1699  0050E0  C0AB  F03A         	movff	_calculateTmr$1342,___flsub@b
  1700  0050E4  C0AC  F03B         	movff	_calculateTmr$1342+1,___flsub@b+1
  1701  0050E8  C0AD  F03C         	movff	_calculateTmr$1342+2,___flsub@b+2
  1702  0050EC  C0AE  F03D         	movff	_calculateTmr$1342+3,___flsub@b+3
  1703  0050F0  EC9A  F02B         	call	___flsub	;wreg free
  1704  0050F4  C03A  F0AF         	movff	?___flsub,_calculateTmr$1343
  1705  0050F8  C03B  F0B0         	movff	?___flsub+1,_calculateTmr$1343+1
  1706  0050FC  C03C  F0B1         	movff	?___flsub+2,_calculateTmr$1343+2
  1707  005100  C03D  F0B2         	movff	?___flsub+3,_calculateTmr$1343+3
  1708  005104                     
  1709                           ;calculateTmr.c: 4:     timerCounter = powf(2,16) - (int)((20 ) * (2 * powf(10,3)));
  1710  005104  C0AF  F099         	movff	_calculateTmr$1343,___fltol@f1
  1711  005108  C0B0  F09A         	movff	_calculateTmr$1343+1,___fltol@f1+1
  1712  00510C  C0B1  F09B         	movff	_calculateTmr$1343+2,___fltol@f1+2
  1713  005110  C0B2  F09C         	movff	_calculateTmr$1343+3,___fltol@f1+3
  1714  005114  EC1B  F029         	call	___fltol	;wreg free
  1715  005118  C099  F0C6         	movff	?___fltol,_timerCounter
  1716  00511C  C09A  F0C7         	movff	?___fltol+1,_timerCounter+1
  1717  005120  0012               	return		;funcret
  1718  005122                     __end_of_calculateTmr:
  1719                           	opt callstack 0
  1720                           
  1721 ;; *************** function _powf *****************
  1722 ;; Defined at:
  1723 ;;		line 52 in file "/opt/microchip/xc8/v2.10/pic/sources/c99/common/powf.c"
  1724 ;; Parameters:    Size  Location     Type
  1725 ;;  x               4   40[BANK0 ] float 
  1726 ;;  y               4   44[BANK0 ] float 
  1727 ;; Auto vars:     Size  Location     Type
  1728 ;;  s2              4  140[BANK1 ] float 
  1729 ;;  s_h             4  108[BANK1 ] float 
  1730 ;;  t_h             4  104[BANK1 ] float 
  1731 ;;  t_l             4   52[BANK1 ] float 
  1732 ;;  s_l             4   48[BANK1 ] float 
  1733 ;;  __xc8_float_    4  184[BANK1 ] struct .
  1734 ;;  z               4  180[BANK1 ] float 
  1735 ;;  t               4  176[BANK1 ] float 
  1736 ;;  j               4  172[BANK1 ] long 
  1737 ;;  ix              4  168[BANK1 ] long 
  1738 ;;  k               4  160[BANK1 ] long 
  1739 ;;  p_h             4  156[BANK1 ] float 
  1740 ;;  is              4  148[BANK1 ] long 
  1741 ;;  iy              4  144[BANK1 ] long 
  1742 ;;  n               4  136[BANK1 ] long 
  1743 ;;  sn              4  132[BANK1 ] float 
  1744 ;;  t1              4  128[BANK1 ] float 
  1745 ;;  hy              4  124[BANK1 ] long 
  1746 ;;  v               4  120[BANK1 ] float 
  1747 ;;  u               4  116[BANK1 ] float 
  1748 ;;  ax              4  112[BANK1 ] float 
  1749 ;;  p_l             4  100[BANK1 ] float 
  1750 ;;  hx              4   96[BANK1 ] long 
  1751 ;;  s               4   84[BANK1 ] float 
  1752 ;;  yisint          4   80[BANK1 ] long 
  1753 ;;  r               4   76[BANK1 ] float 
  1754 ;;  w               4   68[BANK1 ] float 
  1755 ;;  i               4   44[BANK1 ] long 
  1756 ;;  y1              4   40[BANK1 ] float 
  1757 ;;  z_l             4   36[BANK1 ] float 
  1758 ;;  z_h             4   32[BANK1 ] float 
  1759 ;;  t2              4   28[BANK1 ] float 
  1760 ;; Return value:  Size  Location     Type
  1761 ;;                  4   40[BANK0 ] float 
  1762 ;; Registers used:
  1763 ;;		wreg, status,2, status,0, tblptrl, tblptrh, tblptru, prodl, prodh, cstack
  1764 ;; Tracked objects:
  1765 ;;		On entry : 0/0
  1766 ;;		On exit  : 0/0
  1767 ;;		Unchanged: 0/0
  1768 ;; Data sizes:     COMRAM   BANK0   BANK1   BANK2   BANK3   BANK4   BANK5   BANK6   BANK7   BANK8   BANK9  BANK10  BANK1
      +1  BANK12  BANK13  BANK14  BANK15
  1769 ;;      Params:         0       8       0       0       0       0       0       0       0       0       0       0       
      +0       0       0       0       0
  1770 ;;      Locals:         0       0     188       0       0       0       0       0       0       0       0       0       
      +0       0       0       0       0
  1771 ;;      Temps:          0       9       0       0       0       0       0       0       0       0       0       0       
      +0       0       0       0       0
  1772 ;;      Totals:         0      17     188       0       0       0       0       0       0       0       0       0       
      +0       0       0       0       0
  1773 ;;Total ram usage:      205 bytes
  1774 ;; Hardware stack levels used:    1
  1775 ;; Hardware stack levels required when called:    5
  1776 ;; This function calls:
  1777 ;;		___fladd
  1778 ;;		___fldiv
  1779 ;;		___flge
  1780 ;;		___flmul
  1781 ;;		___flneg
  1782 ;;		___flsub
  1783 ;;		___xxtofl
  1784 ;;		_fabsf
  1785 ;;		_scalbnf
  1786 ;;		_sqrtf
  1787 ;; This function is called by:
  1788 ;;		_calculateTmr
  1789 ;; This function uses a non-reentrant model
  1790 ;;
  1791                           
  1792                           	psect	text7
  1793  001080                     __ptext7:
  1794                           	opt callstack 0
  1795  001080                     _powf:
  1796                           	opt callstack 23
  1797  001080  C088  F1B8         	movff	powf@x,powf@__xc8_float_word
  1798  001084  C089  F1B9         	movff	powf@x+1,powf@__xc8_float_word+1
  1799  001088  C08A  F1BA         	movff	powf@x+2,powf@__xc8_float_word+2
  1800  00108C  C08B  F1BB         	movff	powf@x+3,powf@__xc8_float_word+3
  1801  001090  C1B8  F160         	movff	powf@__xc8_float_word,powf@hx
  1802  001094  C1B9  F161         	movff	powf@__xc8_float_word+1,powf@hx+1
  1803  001098  C1BA  F162         	movff	powf@__xc8_float_word+2,powf@hx+2
  1804  00109C  C1BB  F163         	movff	powf@__xc8_float_word+3,powf@hx+3
  1805  0010A0  C08C  F1B8         	movff	powf@y,powf@__xc8_float_word
  1806  0010A4  C08D  F1B9         	movff	powf@y+1,powf@__xc8_float_word+1
  1807  0010A8  C08E  F1BA         	movff	powf@y+2,powf@__xc8_float_word+2
  1808  0010AC  C08F  F1BB         	movff	powf@y+3,powf@__xc8_float_word+3
  1809  0010B0  C1B8  F17C         	movff	powf@__xc8_float_word,powf@hy
  1810  0010B4  C1B9  F17D         	movff	powf@__xc8_float_word+1,powf@hy+1
  1811  0010B8  C1BA  F17E         	movff	powf@__xc8_float_word+2,powf@hy+2
  1812  0010BC  C1BB  F17F         	movff	powf@__xc8_float_word+3,powf@hy+3
  1813  0010C0  0EFF               	movlw	255
  1814  0010C2  0101               	movlb	1	; () banked
  1815  0010C4  1560               	andwf	powf@hx& (0+255),w,b
  1816  0010C6  6FA8               	movwf	powf@ix& (0+255),b
  1817  0010C8  0EFF               	movlw	255
  1818  0010CA  1561               	andwf	(powf@hx+1)& (0+255),w,b
  1819  0010CC  6FA9               	movwf	(powf@ix+1)& (0+255),b
  1820  0010CE  0EFF               	movlw	255
  1821  0010D0  1562               	andwf	(powf@hx+2)& (0+255),w,b
  1822  0010D2  6FAA               	movwf	(powf@ix+2)& (0+255),b
  1823  0010D4  0E7F               	movlw	127
  1824  0010D6  1563               	andwf	(powf@hx+3)& (0+255),w,b
  1825  0010D8  6FAB               	movwf	(powf@ix+3)& (0+255),b
  1826  0010DA  0EFF               	movlw	255
  1827  0010DC  157C               	andwf	powf@hy& (0+255),w,b
  1828  0010DE  6F90               	movwf	powf@iy& (0+255),b
  1829  0010E0  0EFF               	movlw	255
  1830  0010E2  157D               	andwf	(powf@hy+1)& (0+255),w,b
  1831  0010E4  6F91               	movwf	(powf@iy+1)& (0+255),b
  1832  0010E6  0EFF               	movlw	255
  1833  0010E8  157E               	andwf	(powf@hy+2)& (0+255),w,b
  1834  0010EA  6F92               	movwf	(powf@iy+2)& (0+255),b
  1835  0010EC  0E7F               	movlw	127
  1836  0010EE  157F               	andwf	(powf@hy+3)& (0+255),w,b
  1837  0010F0  6F93               	movwf	(powf@iy+3)& (0+255),b
  1838  0010F2  5190               	movf	powf@iy& (0+255),w,b
  1839  0010F4  1191               	iorwf	(powf@iy+1)& (0+255),w,b
  1840  0010F6  1192               	iorwf	(powf@iy+2)& (0+255),w,b
  1841  0010F8  1193               	iorwf	(powf@iy+3)& (0+255),w,b
  1842  0010FA  A4D8               	btfss	status,2,c
  1843  0010FC  EF82  F008         	goto	u5101
  1844  001100  EF84  F008         	goto	u5100
  1845  001104                     u5101:
  1846  001104  EF8F  F008         	goto	l4767
  1847  001108                     u5100:
  1848  001108                     
  1849                           ; BSR set to: 1
  1850  001108  0E00               	movlw	0
  1851  00110A  0100               	movlb	0	; () banked
  1852  00110C  6F88               	movwf	?_powf& (0+255),b
  1853  00110E  0E00               	movlw	0
  1854  001110  6F89               	movwf	(?_powf+1)& (0+255),b
  1855  001112  0E80               	movlw	128
  1856  001114  6F8A               	movwf	(?_powf+2)& (0+255),b
  1857  001116  0E3F               	movlw	63
  1858  001118  6F8B               	movwf	(?_powf+3)& (0+255),b
  1859  00111A  EF58  F01D         	goto	l1052
  1860  00111E                     l4767:
  1861                           
  1862                           ; BSR set to: 1
  1863  00111E  0E80               	movlw	128
  1864  001120  1962               	xorwf	(powf@hx+2)& (0+255),w,b
  1865  001122  E109               	bnz	u5111
  1866  001124  0E3F               	movlw	63
  1867  001126  1963               	xorwf	(powf@hx+3)& (0+255),w,b
  1868  001128  1160               	iorwf	powf@hx& (0+255),w,b
  1869  00112A  1161               	iorwf	(powf@hx+1)& (0+255),w,b
  1870  00112C  A4D8               	btfss	status,2,c
  1871  00112E  EF9B  F008         	goto	u5111
  1872  001132  EF9D  F008         	goto	u5110
  1873  001136                     u5111:
  1874  001136  EFA8  F008         	goto	l4773
  1875  00113A                     u5110:
  1876  00113A                     
  1877                           ; BSR set to: 1
  1878  00113A  0E00               	movlw	0
  1879  00113C  0100               	movlb	0	; () banked
  1880  00113E  6F88               	movwf	?_powf& (0+255),b
  1881  001140  0E00               	movlw	0
  1882  001142  6F89               	movwf	(?_powf+1)& (0+255),b
  1883  001144  0E80               	movlw	128
  1884  001146  6F8A               	movwf	(?_powf+2)& (0+255),b
  1885  001148  0E3F               	movlw	63
  1886  00114A  6F8B               	movwf	(?_powf+3)& (0+255),b
  1887  00114C  EF58  F01D         	goto	l1052
  1888  001150                     l4773:
  1889                           
  1890                           ; BSR set to: 1
  1891  001150  BFAB               	btfsc	(powf@ix+3)& (0+255),7,b
  1892  001152  EFB9  F008         	goto	u5120
  1893  001156  05A8               	decf	powf@ix& (0+255),w,b
  1894  001158  0E00               	movlw	0
  1895  00115A  59A9               	subwfb	(powf@ix+1)& (0+255),w,b
  1896  00115C  0E80               	movlw	128
  1897  00115E  59AA               	subwfb	(powf@ix+2)& (0+255),w,b
  1898  001160  0E7F               	movlw	127
  1899  001162  59AB               	subwfb	(powf@ix+3)& (0+255),w,b
  1900  001164  B0D8               	btfsc	status,0,c
  1901  001166  EFB7  F008         	goto	u5121
  1902  00116A  EFB9  F008         	goto	u5120
  1903  00116E                     u5121:
  1904  00116E  EFCA  F008         	goto	l4777
  1905  001172                     u5120:
  1906  001172                     
  1907                           ; BSR set to: 1
  1908  001172  BF93               	btfsc	(powf@iy+3)& (0+255),7,b
  1909  001174  EFC8  F008         	goto	u5131
  1910  001178  0590               	decf	powf@iy& (0+255),w,b
  1911  00117A  0E00               	movlw	0
  1912  00117C  5991               	subwfb	(powf@iy+1)& (0+255),w,b
  1913  00117E  0E80               	movlw	128
  1914  001180  5992               	subwfb	(powf@iy+2)& (0+255),w,b
  1915  001182  0E7F               	movlw	127
  1916  001184  5993               	subwfb	(powf@iy+3)& (0+255),w,b
  1917  001186  A0D8               	btfss	status,0,c
  1918  001188  EFC8  F008         	goto	u5131
  1919  00118C  EFCA  F008         	goto	u5130
  1920  001190                     u5131:
  1921  001190  EFE6  F008         	goto	l4781
  1922  001194                     u5130:
  1923  001194                     l4777:
  1924                           
  1925                           ; BSR set to: 1
  1926  001194  C088  F003         	movff	powf@x,___fladd@b
  1927  001198  C089  F004         	movff	powf@x+1,___fladd@b+1
  1928  00119C  C08A  F005         	movff	powf@x+2,___fladd@b+2
  1929  0011A0  C08B  F006         	movff	powf@x+3,___fladd@b+3
  1930  0011A4  C08C  F007         	movff	powf@y,___fladd@a
  1931  0011A8  C08D  F008         	movff	powf@y+1,___fladd@a+1
  1932  0011AC  C08E  F009         	movff	powf@y+2,___fladd@a+2
  1933  0011B0  C08F  F00A         	movff	powf@y+3,___fladd@a+3
  1934  0011B4  ECB9  F01F         	call	___fladd	;wreg free
  1935  0011B8  C003  F088         	movff	?___fladd,?_powf
  1936  0011BC  C004  F089         	movff	?___fladd+1,?_powf+1
  1937  0011C0  C005  F08A         	movff	?___fladd+2,?_powf+2
  1938  0011C4  C006  F08B         	movff	?___fladd+3,?_powf+3
  1939  0011C8  EF58  F01D         	goto	l1052
  1940  0011CC                     l4781:
  1941                           
  1942                           ; BSR set to: 1
  1943  0011CC  0E00               	movlw	0
  1944  0011CE  6F50               	movwf	powf@yisint& (0+255),b
  1945  0011D0  0E00               	movlw	0
  1946  0011D2  6F51               	movwf	(powf@yisint+1)& (0+255),b
  1947  0011D4  0E00               	movlw	0
  1948  0011D6  6F52               	movwf	(powf@yisint+2)& (0+255),b
  1949  0011D8  0E00               	movlw	0
  1950  0011DA  6F53               	movwf	(powf@yisint+3)& (0+255),b
  1951  0011DC                     
  1952                           ; BSR set to: 1
  1953  0011DC  BF63               	btfsc	(powf@hx+3)& (0+255),7,b
  1954  0011DE  EFF5  F008         	goto	u5140
  1955  0011E2  EFF3  F008         	goto	u5141
  1956  0011E6                     u5141:
  1957  0011E6  EFC1  F009         	goto	l1057
  1958  0011EA                     u5140:
  1959  0011EA                     
  1960                           ; BSR set to: 1
  1961  0011EA  BF93               	btfsc	(powf@iy+3)& (0+255),7,b
  1962  0011EC  EF01  F009         	goto	u5151
  1963  0011F0  0E80               	movlw	128
  1964  0011F2  5D92               	subwf	(powf@iy+2)& (0+255),w,b
  1965  0011F4  0E4B               	movlw	75
  1966  0011F6  5993               	subwfb	(powf@iy+3)& (0+255),w,b
  1967  0011F8  A0D8               	btfss	status,0,c
  1968  0011FA  EF01  F009         	goto	u5151
  1969  0011FE  EF03  F009         	goto	u5150
  1970  001202                     u5151:
  1971  001202  EF0D  F009         	goto	l4789
  1972  001206                     u5150:
  1973  001206                     
  1974                           ; BSR set to: 1
  1975  001206  0E02               	movlw	2
  1976  001208  6F50               	movwf	powf@yisint& (0+255),b
  1977  00120A  0E00               	movlw	0
  1978  00120C  6F51               	movwf	(powf@yisint+1)& (0+255),b
  1979  00120E  0E00               	movlw	0
  1980  001210  6F52               	movwf	(powf@yisint+2)& (0+255),b
  1981  001212  0E00               	movlw	0
  1982  001214  6F53               	movwf	(powf@yisint+3)& (0+255),b
  1983  001216  EFC1  F009         	goto	l1057
  1984  00121A                     l4789:
  1985                           
  1986                           ; BSR set to: 1
  1987  00121A  BF93               	btfsc	(powf@iy+3)& (0+255),7,b
  1988  00121C  EF19  F009         	goto	u5161
  1989  001220  0E80               	movlw	128
  1990  001222  5D92               	subwf	(powf@iy+2)& (0+255),w,b
  1991  001224  0E3F               	movlw	63
  1992  001226  5993               	subwfb	(powf@iy+3)& (0+255),w,b
  1993  001228  A0D8               	btfss	status,0,c
  1994  00122A  EF19  F009         	goto	u5161
  1995  00122E  EF1B  F009         	goto	u5160
  1996  001232                     u5161:
  1997  001232  EFC1  F009         	goto	l1057
  1998  001236                     u5160:
  1999  001236                     
  2000                           ; BSR set to: 1
  2001  001236  0E17               	movlw	23
  2002  001238  0100               	movlb	0	; () banked
  2003  00123A  6F90               	movwf	??_powf& (0+255),b
  2004  00123C  C190  F091         	movff	powf@iy,??_powf+1
  2005  001240  C191  F092         	movff	powf@iy+1,??_powf+2
  2006  001244  C192  F093         	movff	powf@iy+2,??_powf+3
  2007  001248  C193  F094         	movff	powf@iy+3,??_powf+4
  2008  00124C                     u5175:
  2009  00124C  6790               	tstfsz	??_powf& (0+255),b
  2010  00124E  EF2B  F009         	goto	u5176
  2011  001252  EF33  F009         	goto	u5177
  2012  001256                     u5176:
  2013  001256  3594               	rlcf	(??_powf+4)& (0+255),w,b
  2014  001258  3394               	rrcf	(??_powf+4)& (0+255),f,b
  2015  00125A  3393               	rrcf	(??_powf+3)& (0+255),f,b
  2016  00125C  3392               	rrcf	(??_powf+2)& (0+255),f,b
  2017  00125E  3391               	rrcf	(??_powf+1)& (0+255),f,b
  2018  001260  2F90               	decfsz	??_powf& (0+255),f,b
  2019  001262  EF26  F009         	goto	u5175
  2020  001266                     u5177:
  2021  001266  0E81               	movlw	129
  2022  001268  0100               	movlb	0	; () banked
  2023  00126A  2591               	addwf	(??_powf+1)& (0+255),w,b
  2024  00126C  0101               	movlb	1	; () banked
  2025  00126E  6FA0               	movwf	powf@k& (0+255),b
  2026  001270  0EFF               	movlw	255
  2027  001272  0100               	movlb	0	; () banked
  2028  001274  2192               	addwfc	(??_powf+2)& (0+255),w,b
  2029  001276  0101               	movlb	1	; () banked
  2030  001278  6FA1               	movwf	(powf@k+1)& (0+255),b
  2031  00127A  0EFF               	movlw	255
  2032  00127C  0100               	movlb	0	; () banked
  2033  00127E  2193               	addwfc	(??_powf+3)& (0+255),w,b
  2034  001280  0101               	movlb	1	; () banked
  2035  001282  6FA2               	movwf	(powf@k+2)& (0+255),b
  2036  001284  0EFF               	movlw	255
  2037  001286  0100               	movlb	0	; () banked
  2038  001288  2194               	addwfc	(??_powf+4)& (0+255),w,b
  2039  00128A  0101               	movlb	1	; () banked
  2040  00128C  6FA3               	movwf	(powf@k+3)& (0+255),b
  2041  00128E  51A0               	movf	powf@k& (0+255),w,b
  2042  001290  0817               	sublw	23
  2043  001292  0100               	movlb	0	; () banked
  2044  001294  6F90               	movwf	??_powf& (0+255),b
  2045  001296  C190  F091         	movff	powf@iy,??_powf+1
  2046  00129A  C191  F092         	movff	powf@iy+1,??_powf+2
  2047  00129E  C192  F093         	movff	powf@iy+2,??_powf+3
  2048  0012A2  C193  F094         	movff	powf@iy+3,??_powf+4
  2049  0012A6                     u5185:
  2050  0012A6  6790               	tstfsz	??_powf& (0+255),b
  2051  0012A8  EF58  F009         	goto	u5186
  2052  0012AC  EF60  F009         	goto	u5187
  2053  0012B0                     u5186:
  2054  0012B0  3594               	rlcf	(??_powf+4)& (0+255),w,b
  2055  0012B2  3394               	rrcf	(??_powf+4)& (0+255),f,b
  2056  0012B4  3393               	rrcf	(??_powf+3)& (0+255),f,b
  2057  0012B6  3392               	rrcf	(??_powf+2)& (0+255),f,b
  2058  0012B8  3391               	rrcf	(??_powf+1)& (0+255),f,b
  2059  0012BA  2F90               	decfsz	??_powf& (0+255),f,b
  2060  0012BC  EF53  F009         	goto	u5185
  2061  0012C0                     u5187:
  2062  0012C0  C091  F1AC         	movff	??_powf+1,powf@j
  2063  0012C4  C092  F1AD         	movff	??_powf+2,powf@j+1
  2064  0012C8  C093  F1AE         	movff	??_powf+3,powf@j+2
  2065  0012CC  C094  F1AF         	movff	??_powf+4,powf@j+3
  2066  0012D0  0101               	movlb	1	; () banked
  2067  0012D2  51A0               	movf	powf@k& (0+255),w,b
  2068  0012D4  0817               	sublw	23
  2069  0012D6  0100               	movlb	0	; () banked
  2070  0012D8  6F90               	movwf	??_powf& (0+255),b
  2071  0012DA  C1AC  F091         	movff	powf@j,??_powf+1
  2072  0012DE  C1AD  F092         	movff	powf@j+1,??_powf+2
  2073  0012E2  C1AE  F093         	movff	powf@j+2,??_powf+3
  2074  0012E6  C1AF  F094         	movff	powf@j+3,??_powf+4
  2075  0012EA  2B90               	incf	??_powf& (0+255),f,b
  2076  0012EC  EF7D  F009         	goto	u5190
  2077  0012F0                     u5195:
  2078  0012F0  90D8               	bcf	status,0,c
  2079  0012F2  3791               	rlcf	(??_powf+1)& (0+255),f,b
  2080  0012F4  3792               	rlcf	(??_powf+2)& (0+255),f,b
  2081  0012F6  3793               	rlcf	(??_powf+3)& (0+255),f,b
  2082  0012F8  3794               	rlcf	(??_powf+4)& (0+255),f,b
  2083  0012FA                     u5190:
  2084  0012FA  2F90               	decfsz	??_powf& (0+255),f,b
  2085  0012FC  EF78  F009         	goto	u5195
  2086  001300  0101               	movlb	1	; () banked
  2087  001302  5190               	movf	powf@iy& (0+255),w,b
  2088  001304  0100               	movlb	0	; () banked
  2089  001306  1991               	xorwf	(??_powf+1)& (0+255),w,b
  2090  001308  E113               	bnz	u5201
  2091  00130A  0101               	movlb	1	; () banked
  2092  00130C  5191               	movf	(powf@iy+1)& (0+255),w,b
  2093  00130E  0100               	movlb	0	; () banked
  2094  001310  1992               	xorwf	(??_powf+2)& (0+255),w,b
  2095  001312  E10E               	bnz	u5201
  2096  001314  0101               	movlb	1	; () banked
  2097  001316  5192               	movf	(powf@iy+2)& (0+255),w,b
  2098  001318  0100               	movlb	0	; () banked
  2099  00131A  1993               	xorwf	(??_powf+3)& (0+255),w,b
  2100  00131C  E109               	bnz	u5201
  2101  00131E  0101               	movlb	1	; () banked
  2102  001320  5193               	movf	(powf@iy+3)& (0+255),w,b
  2103  001322  0100               	movlb	0	; () banked
  2104  001324  1994               	xorwf	(??_powf+4)& (0+255),w,b
  2105  001326  A4D8               	btfss	status,2,c
  2106  001328  EF98  F009         	goto	u5201
  2107  00132C  EF9A  F009         	goto	u5200
  2108  001330                     u5201:
  2109  001330  EFC1  F009         	goto	l1057
  2110  001334                     u5200:
  2111  001334                     
  2112                           ; BSR set to: 0
  2113  001334  0E01               	movlw	1
  2114  001336  0101               	movlb	1	; () banked
  2115  001338  15AC               	andwf	powf@j& (0+255),w,b
  2116  00133A  0100               	movlb	0	; () banked
  2117  00133C  6F90               	movwf	??_powf& (0+255),b
  2118  00133E  0E00               	movlw	0
  2119  001340  0101               	movlb	1	; () banked
  2120  001342  15AD               	andwf	(powf@j+1)& (0+255),w,b
  2121  001344  0100               	movlb	0	; () banked
  2122  001346  6F91               	movwf	(??_powf+1)& (0+255),b
  2123  001348  0E00               	movlw	0
  2124  00134A  0101               	movlb	1	; () banked
  2125  00134C  15AE               	andwf	(powf@j+2)& (0+255),w,b
  2126  00134E  0100               	movlb	0	; () banked
  2127  001350  6F92               	movwf	(??_powf+2)& (0+255),b
  2128  001352  0E00               	movlw	0
  2129  001354  0101               	movlb	1	; () banked
  2130  001356  15AF               	andwf	(powf@j+3)& (0+255),w,b
  2131  001358  0100               	movlb	0	; () banked
  2132  00135A  6F93               	movwf	(??_powf+3)& (0+255),b
  2133  00135C  5190               	movf	??_powf& (0+255),w,b
  2134  00135E  0802               	sublw	2
  2135  001360  0101               	movlb	1	; () banked
  2136  001362  6F50               	movwf	powf@yisint& (0+255),b
  2137  001364  0E00               	movlw	0
  2138  001366  0100               	movlb	0	; () banked
  2139  001368  5591               	subfwb	(??_powf+1)& (0+255),w,b
  2140  00136A  0101               	movlb	1	; () banked
  2141  00136C  6F51               	movwf	(powf@yisint+1)& (0+255),b
  2142  00136E  0E00               	movlw	0
  2143  001370  0100               	movlb	0	; () banked
  2144  001372  5592               	subfwb	(??_powf+2)& (0+255),w,b
  2145  001374  0101               	movlb	1	; () banked
  2146  001376  6F52               	movwf	(powf@yisint+2)& (0+255),b
  2147  001378  0E00               	movlw	0
  2148  00137A  0100               	movlb	0	; () banked
  2149  00137C  5593               	subfwb	(??_powf+3)& (0+255),w,b
  2150  00137E  0101               	movlb	1	; () banked
  2151  001380  6F53               	movwf	(powf@yisint+3)& (0+255),b
  2152  001382                     l1057:
  2153  001382  0E80               	movlw	128
  2154  001384  0101               	movlb	1	; () banked
  2155  001386  1992               	xorwf	(powf@iy+2)& (0+255),w,b
  2156  001388  E109               	bnz	u5211
  2157  00138A  0E7F               	movlw	127
  2158  00138C  1993               	xorwf	(powf@iy+3)& (0+255),w,b
  2159  00138E  1190               	iorwf	powf@iy& (0+255),w,b
  2160  001390  1191               	iorwf	(powf@iy+1)& (0+255),w,b
  2161  001392  A4D8               	btfss	status,2,c
  2162  001394  EFCE  F009         	goto	u5211
  2163  001398  EFD0  F009         	goto	u5210
  2164  00139C                     u5211:
  2165  00139C  EF3C  F00A         	goto	l4819
  2166  0013A0                     u5210:
  2167  0013A0                     
  2168                           ; BSR set to: 1
  2169  0013A0  0E80               	movlw	128
  2170  0013A2  19AA               	xorwf	(powf@ix+2)& (0+255),w,b
  2171  0013A4  E109               	bnz	u5221
  2172  0013A6  0E3F               	movlw	63
  2173  0013A8  19AB               	xorwf	(powf@ix+3)& (0+255),w,b
  2174  0013AA  11A8               	iorwf	powf@ix& (0+255),w,b
  2175  0013AC  11A9               	iorwf	(powf@ix+1)& (0+255),w,b
  2176  0013AE  A4D8               	btfss	status,2,c
  2177  0013B0  EFDC  F009         	goto	u5221
  2178  0013B4  EFDE  F009         	goto	u5220
  2179  0013B8                     u5221:
  2180  0013B8  EFE9  F009         	goto	l4803
  2181  0013BC                     u5220:
  2182  0013BC                     
  2183                           ; BSR set to: 1
  2184  0013BC  0E00               	movlw	0
  2185  0013BE  0100               	movlb	0	; () banked
  2186  0013C0  6F88               	movwf	?_powf& (0+255),b
  2187  0013C2  0E00               	movlw	0
  2188  0013C4  6F89               	movwf	(?_powf+1)& (0+255),b
  2189  0013C6  0E80               	movlw	128
  2190  0013C8  6F8A               	movwf	(?_powf+2)& (0+255),b
  2191  0013CA  0E3F               	movlw	63
  2192  0013CC  6F8B               	movwf	(?_powf+3)& (0+255),b
  2193  0013CE  EF58  F01D         	goto	l1052
  2194  0013D2                     l4803:
  2195                           
  2196                           ; BSR set to: 1
  2197  0013D2  BFAB               	btfsc	(powf@ix+3)& (0+255),7,b
  2198  0013D4  EFF8  F009         	goto	u5231
  2199  0013D8  05A8               	decf	powf@ix& (0+255),w,b
  2200  0013DA  0E00               	movlw	0
  2201  0013DC  59A9               	subwfb	(powf@ix+1)& (0+255),w,b
  2202  0013DE  0E80               	movlw	128
  2203  0013E0  59AA               	subwfb	(powf@ix+2)& (0+255),w,b
  2204  0013E2  0E3F               	movlw	63
  2205  0013E4  59AB               	subwfb	(powf@ix+3)& (0+255),w,b
  2206  0013E6  A0D8               	btfss	status,0,c
  2207  0013E8  EFF8  F009         	goto	u5231
  2208  0013EC  EFFA  F009         	goto	u5230
  2209  0013F0                     u5231:
  2210  0013F0  EF16  F00A         	goto	l4811
  2211  0013F4                     u5230:
  2212  0013F4                     
  2213                           ; BSR set to: 1
  2214  0013F4  BF7F               	btfsc	(powf@hy+3)& (0+255),7,b
  2215  0013F6  EF01  F00A         	goto	u5240
  2216  0013FA  EFFF  F009         	goto	u5241
  2217  0013FE                     u5241:
  2218  0013FE  EF0C  F00A         	goto	l1067
  2219  001402                     u5240:
  2220  001402                     
  2221                           ; BSR set to: 1
  2222  001402  0E00               	movlw	0
  2223  001404  0100               	movlb	0	; () banked
  2224  001406  6F88               	movwf	?_powf& (0+255),b
  2225  001408  0E00               	movlw	0
  2226  00140A  6F89               	movwf	(?_powf+1)& (0+255),b
  2227  00140C  0E00               	movlw	0
  2228  00140E  6F8A               	movwf	(?_powf+2)& (0+255),b
  2229  001410  0E00               	movlw	0
  2230  001412  6F8B               	movwf	(?_powf+3)& (0+255),b
  2231  001414  EF58  F01D         	goto	l1052
  2232  001418                     l1067:
  2233                           
  2234                           ; BSR set to: 1
  2235  001418  C08C  F088         	movff	powf@y,?_powf
  2236  00141C  C08D  F089         	movff	powf@y+1,?_powf+1
  2237  001420  C08E  F08A         	movff	powf@y+2,?_powf+2
  2238  001424  C08F  F08B         	movff	powf@y+3,?_powf+3
  2239  001428  EF58  F01D         	goto	l1052
  2240  00142C                     l4811:
  2241                           
  2242                           ; BSR set to: 1
  2243  00142C  BF7F               	btfsc	(powf@hy+3)& (0+255),7,b
  2244  00142E  EF1D  F00A         	goto	u5250
  2245  001432  EF1B  F00A         	goto	u5251
  2246  001436                     u5251:
  2247  001436  EF31  F00A         	goto	l4815
  2248  00143A                     u5250:
  2249  00143A                     
  2250                           ; BSR set to: 1
  2251  00143A  C08C  F003         	movff	powf@y,___flneg@f1
  2252  00143E  C08D  F004         	movff	powf@y+1,___flneg@f1+1
  2253  001442  C08E  F005         	movff	powf@y+2,___flneg@f1+2
  2254  001446  C08F  F006         	movff	powf@y+3,___flneg@f1+3
  2255  00144A  EC59  F02C         	call	___flneg	;wreg free
  2256  00144E  C003  F088         	movff	?___flneg,?_powf
  2257  001452  C004  F089         	movff	?___flneg+1,?_powf+1
  2258  001456  C005  F08A         	movff	?___flneg+2,?_powf+2
  2259  00145A  C006  F08B         	movff	?___flneg+3,?_powf+3
  2260  00145E  EF58  F01D         	goto	l1052
  2261  001462                     l4815:
  2262                           
  2263                           ; BSR set to: 1
  2264  001462  0E00               	movlw	0
  2265  001464  0100               	movlb	0	; () banked
  2266  001466  6F88               	movwf	?_powf& (0+255),b
  2267  001468  0E00               	movlw	0
  2268  00146A  6F89               	movwf	(?_powf+1)& (0+255),b
  2269  00146C  0E00               	movlw	0
  2270  00146E  6F8A               	movwf	(?_powf+2)& (0+255),b
  2271  001470  0E00               	movlw	0
  2272  001472  6F8B               	movwf	(?_powf+3)& (0+255),b
  2273  001474  EF58  F01D         	goto	l1052
  2274  001478                     l4819:
  2275                           
  2276                           ; BSR set to: 1
  2277  001478  0E80               	movlw	128
  2278  00147A  1992               	xorwf	(powf@iy+2)& (0+255),w,b
  2279  00147C  E109               	bnz	u5261
  2280  00147E  0E3F               	movlw	63
  2281  001480  1993               	xorwf	(powf@iy+3)& (0+255),w,b
  2282  001482  1190               	iorwf	powf@iy& (0+255),w,b
  2283  001484  1191               	iorwf	(powf@iy+1)& (0+255),w,b
  2284  001486  A4D8               	btfss	status,2,c
  2285  001488  EF48  F00A         	goto	u5261
  2286  00148C  EF4A  F00A         	goto	u5260
  2287  001490                     u5261:
  2288  001490  EF77  F00A         	goto	l4825
  2289  001494                     u5260:
  2290  001494                     
  2291                           ; BSR set to: 1
  2292  001494  BF7F               	btfsc	(powf@hy+3)& (0+255),7,b
  2293  001496  EF51  F00A         	goto	u5270
  2294  00149A  EF4F  F00A         	goto	u5271
  2295  00149E                     u5271:
  2296  00149E  EF6D  F00A         	goto	l1077
  2297  0014A2                     u5270:
  2298  0014A2                     
  2299                           ; BSR set to: 1
  2300  0014A2  0E00               	movlw	0
  2301  0014A4  6E42               	movwf	___fldiv@b^0,c
  2302  0014A6  0E00               	movlw	0
  2303  0014A8  6E43               	movwf	(___fldiv@b+1)^0,c
  2304  0014AA  0E80               	movlw	128
  2305  0014AC  6E44               	movwf	(___fldiv@b+2)^0,c
  2306  0014AE  0E3F               	movlw	63
  2307  0014B0  6E45               	movwf	(___fldiv@b+3)^0,c
  2308  0014B2  C088  F046         	movff	powf@x,___fldiv@a
  2309  0014B6  C089  F047         	movff	powf@x+1,___fldiv@a+1
  2310  0014BA  C08A  F048         	movff	powf@x+2,___fldiv@a+2
  2311  0014BE  C08B  F049         	movff	powf@x+3,___fldiv@a+3
  2312  0014C2  EC2E  F024         	call	___fldiv	;wreg free
  2313  0014C6  C042  F088         	movff	?___fldiv,?_powf
  2314  0014CA  C043  F089         	movff	?___fldiv+1,?_powf+1
  2315  0014CE  C044  F08A         	movff	?___fldiv+2,?_powf+2
  2316  0014D2  C045  F08B         	movff	?___fldiv+3,?_powf+3
  2317  0014D6  EF58  F01D         	goto	l1052
  2318  0014DA                     l1077:
  2319                           
  2320                           ; BSR set to: 1
  2321  0014DA  C088  F088         	movff	powf@x,?_powf
  2322  0014DE  C089  F089         	movff	powf@x+1,?_powf+1
  2323  0014E2  C08A  F08A         	movff	powf@x+2,?_powf+2
  2324  0014E6  C08B  F08B         	movff	powf@x+3,?_powf+3
  2325  0014EA  EF58  F01D         	goto	l1052
  2326  0014EE                     l4825:
  2327                           
  2328                           ; BSR set to: 1
  2329  0014EE  0E40               	movlw	64
  2330  0014F0  197F               	xorwf	(powf@hy+3)& (0+255),w,b
  2331  0014F2  117C               	iorwf	powf@hy& (0+255),w,b
  2332  0014F4  117D               	iorwf	(powf@hy+1)& (0+255),w,b
  2333  0014F6  117E               	iorwf	(powf@hy+2)& (0+255),w,b
  2334  0014F8  A4D8               	btfss	status,2,c
  2335  0014FA  EF81  F00A         	goto	u5281
  2336  0014FE  EF83  F00A         	goto	u5280
  2337  001502                     u5281:
  2338  001502  EF9F  F00A         	goto	l4831
  2339  001506                     u5280:
  2340  001506                     
  2341                           ; BSR set to: 1
  2342  001506  C088  F013         	movff	powf@x,___flmul@b
  2343  00150A  C089  F014         	movff	powf@x+1,___flmul@b+1
  2344  00150E  C08A  F015         	movff	powf@x+2,___flmul@b+2
  2345  001512  C08B  F016         	movff	powf@x+3,___flmul@b+3
  2346  001516  C088  F017         	movff	powf@x,___flmul@a
  2347  00151A  C089  F018         	movff	powf@x+1,___flmul@a+1
  2348  00151E  C08A  F019         	movff	powf@x+2,___flmul@a+2
  2349  001522  C08B  F01A         	movff	powf@x+3,___flmul@a+3
  2350  001526  EC19  F022         	call	___flmul	;wreg free
  2351  00152A  C013  F088         	movff	?___flmul,?_powf
  2352  00152E  C014  F089         	movff	?___flmul+1,?_powf+1
  2353  001532  C015  F08A         	movff	?___flmul+2,?_powf+2
  2354  001536  C016  F08B         	movff	?___flmul+3,?_powf+3
  2355  00153A  EF58  F01D         	goto	l1052
  2356  00153E                     l4831:
  2357                           
  2358                           ; BSR set to: 1
  2359  00153E  0E3F               	movlw	63
  2360  001540  197F               	xorwf	(powf@hy+3)& (0+255),w,b
  2361  001542  117C               	iorwf	powf@hy& (0+255),w,b
  2362  001544  117D               	iorwf	(powf@hy+1)& (0+255),w,b
  2363  001546  117E               	iorwf	(powf@hy+2)& (0+255),w,b
  2364  001548  A4D8               	btfss	status,2,c
  2365  00154A  EFA9  F00A         	goto	u5291
  2366  00154E  EFAB  F00A         	goto	u5290
  2367  001552                     u5291:
  2368  001552  EFC6  F00A         	goto	l4839
  2369  001556                     u5290:
  2370  001556                     
  2371                           ; BSR set to: 1
  2372  001556  BF63               	btfsc	(powf@hx+3)& (0+255),7,b
  2373  001558  EFB0  F00A         	goto	u5301
  2374  00155C  EFB2  F00A         	goto	u5300
  2375  001560                     u5301:
  2376  001560  EFC6  F00A         	goto	l4839
  2377  001564                     u5300:
  2378  001564                     
  2379                           ; BSR set to: 1
  2380  001564  C088  F04E         	movff	powf@x,sqrtf@x
  2381  001568  C089  F04F         	movff	powf@x+1,sqrtf@x+1
  2382  00156C  C08A  F050         	movff	powf@x+2,sqrtf@x+2
  2383  001570  C08B  F051         	movff	powf@x+3,sqrtf@x+3
  2384  001574  EC59  F01D         	call	_sqrtf	;wreg free
  2385  001578  C04E  F088         	movff	?_sqrtf,?_powf
  2386  00157C  C04F  F089         	movff	?_sqrtf+1,?_powf+1
  2387  001580  C050  F08A         	movff	?_sqrtf+2,?_powf+2
  2388  001584  C051  F08B         	movff	?_sqrtf+3,?_powf+3
  2389  001588  EF58  F01D         	goto	l1052
  2390  00158C                     l4839:
  2391                           
  2392                           ; BSR set to: 1
  2393  00158C  C088  F003         	movff	powf@x,fabsf@x
  2394  001590  C089  F004         	movff	powf@x+1,fabsf@x+1
  2395  001594  C08A  F005         	movff	powf@x+2,fabsf@x+2
  2396  001598  C08B  F006         	movff	powf@x+3,fabsf@x+3
  2397  00159C  EC75  F02C         	call	_fabsf	;wreg free
  2398  0015A0  C003  F170         	movff	?_fabsf,powf@ax
  2399  0015A4  C004  F171         	movff	?_fabsf+1,powf@ax+1
  2400  0015A8  C005  F172         	movff	?_fabsf+2,powf@ax+2
  2401  0015AC  C006  F173         	movff	?_fabsf+3,powf@ax+3
  2402  0015B0  0E80               	movlw	128
  2403  0015B2  0101               	movlb	1	; () banked
  2404  0015B4  19AA               	xorwf	(powf@ix+2)& (0+255),w,b
  2405  0015B6  E10B               	bnz	u5310
  2406  0015B8  0E7F               	movlw	127
  2407  0015BA  19AB               	xorwf	(powf@ix+3)& (0+255),w,b
  2408  0015BC  11A8               	iorwf	powf@ix& (0+255),w,b
  2409  0015BE  11A9               	iorwf	(powf@ix+1)& (0+255),w,b
  2410  0015C0  B4D8               	btfsc	status,2,c
  2411  0015C2  EFE5  F00A         	goto	u5311
  2412  0015C6  EFE7  F00A         	goto	u5310
  2413  0015CA                     u5311:
  2414  0015CA  EF00  F00B         	goto	l1085
  2415  0015CE                     u5310:
  2416  0015CE                     
  2417                           ; BSR set to: 1
  2418  0015CE  51A8               	movf	powf@ix& (0+255),w,b
  2419  0015D0  11A9               	iorwf	(powf@ix+1)& (0+255),w,b
  2420  0015D2  11AA               	iorwf	(powf@ix+2)& (0+255),w,b
  2421  0015D4  11AB               	iorwf	(powf@ix+3)& (0+255),w,b
  2422  0015D6  B4D8               	btfsc	status,2,c
  2423  0015D8  EFF0  F00A         	goto	u5321
  2424  0015DC  EFF2  F00A         	goto	u5320
  2425  0015E0                     u5321:
  2426  0015E0  EF00  F00B         	goto	l1085
  2427  0015E4                     u5320:
  2428  0015E4                     
  2429                           ; BSR set to: 1
  2430  0015E4  0E80               	movlw	128
  2431  0015E6  19AA               	xorwf	(powf@ix+2)& (0+255),w,b
  2432  0015E8  E109               	bnz	u5331
  2433  0015EA  0E3F               	movlw	63
  2434  0015EC  19AB               	xorwf	(powf@ix+3)& (0+255),w,b
  2435  0015EE  11A8               	iorwf	powf@ix& (0+255),w,b
  2436  0015F0  11A9               	iorwf	(powf@ix+1)& (0+255),w,b
  2437  0015F2  A4D8               	btfss	status,2,c
  2438  0015F4  EFFE  F00A         	goto	u5331
  2439  0015F8  EF00  F00B         	goto	u5330
  2440  0015FC                     u5331:
  2441  0015FC  EFCB  F00B         	goto	l4865
  2442  001600                     u5330:
  2443  001600                     l1085:
  2444                           
  2445                           ; BSR set to: 1
  2446  001600  C170  F1B4         	movff	powf@ax,powf@z
  2447  001604  C171  F1B5         	movff	powf@ax+1,powf@z+1
  2448  001608  C172  F1B6         	movff	powf@ax+2,powf@z+2
  2449  00160C  C173  F1B7         	movff	powf@ax+3,powf@z+3
  2450  001610                     
  2451                           ; BSR set to: 1
  2452  001610  BF7F               	btfsc	(powf@hy+3)& (0+255),7,b
  2453  001612  EF0F  F00B         	goto	u5340
  2454  001616  EF0D  F00B         	goto	u5341
  2455  00161A                     u5341:
  2456  00161A  EF29  F00B         	goto	l4851
  2457  00161E                     u5340:
  2458  00161E                     
  2459                           ; BSR set to: 1
  2460  00161E  0E00               	movlw	0
  2461  001620  6E42               	movwf	___fldiv@b^0,c
  2462  001622  0E00               	movlw	0
  2463  001624  6E43               	movwf	(___fldiv@b+1)^0,c
  2464  001626  0E80               	movlw	128
  2465  001628  6E44               	movwf	(___fldiv@b+2)^0,c
  2466  00162A  0E3F               	movlw	63
  2467  00162C  6E45               	movwf	(___fldiv@b+3)^0,c
  2468  00162E  C1B4  F046         	movff	powf@z,___fldiv@a
  2469  001632  C1B5  F047         	movff	powf@z+1,___fldiv@a+1
  2470  001636  C1B6  F048         	movff	powf@z+2,___fldiv@a+2
  2471  00163A  C1B7  F049         	movff	powf@z+3,___fldiv@a+3
  2472  00163E  EC2E  F024         	call	___fldiv	;wreg free
  2473  001642  C042  F1B4         	movff	?___fldiv,powf@z
  2474  001646  C043  F1B5         	movff	?___fldiv+1,powf@z+1
  2475  00164A  C044  F1B6         	movff	?___fldiv+2,powf@z+2
  2476  00164E  C045  F1B7         	movff	?___fldiv+3,powf@z+3
  2477  001652                     l4851:
  2478  001652  0101               	movlb	1	; () banked
  2479  001654  BF63               	btfsc	(powf@hx+3)& (0+255),7,b
  2480  001656  EF31  F00B         	goto	u5350
  2481  00165A  EF2F  F00B         	goto	u5351
  2482  00165E                     u5351:
  2483  00165E  EFC1  F00B         	goto	l4861
  2484  001662                     u5350:
  2485  001662                     
  2486                           ; BSR set to: 1
  2487  001662  0E00               	movlw	0
  2488  001664  25A8               	addwf	powf@ix& (0+255),w,b
  2489  001666  0100               	movlb	0	; () banked
  2490  001668  6F90               	movwf	??_powf& (0+255),b
  2491  00166A  0E00               	movlw	0
  2492  00166C  0101               	movlb	1	; () banked
  2493  00166E  21A9               	addwfc	(powf@ix+1)& (0+255),w,b
  2494  001670  0100               	movlb	0	; () banked
  2495  001672  6F91               	movwf	(??_powf+1)& (0+255),b
  2496  001674  0E80               	movlw	128
  2497  001676  0101               	movlb	1	; () banked
  2498  001678  21AA               	addwfc	(powf@ix+2)& (0+255),w,b
  2499  00167A  0100               	movlb	0	; () banked
  2500  00167C  6F92               	movwf	(??_powf+2)& (0+255),b
  2501  00167E  0EC0               	movlw	192
  2502  001680  0101               	movlb	1	; () banked
  2503  001682  21AB               	addwfc	(powf@ix+3)& (0+255),w,b
  2504  001684  0100               	movlb	0	; () banked
  2505  001686  6F93               	movwf	(??_powf+3)& (0+255),b
  2506  001688  0101               	movlb	1	; () banked
  2507  00168A  5150               	movf	powf@yisint& (0+255),w,b
  2508  00168C  0100               	movlb	0	; () banked
  2509  00168E  1190               	iorwf	??_powf& (0+255),w,b
  2510  001690  6F94               	movwf	(??_powf+4)& (0+255),b
  2511  001692  0101               	movlb	1	; () banked
  2512  001694  5151               	movf	(powf@yisint+1)& (0+255),w,b
  2513  001696  0100               	movlb	0	; () banked
  2514  001698  1191               	iorwf	(??_powf+1)& (0+255),w,b
  2515  00169A  6F95               	movwf	(??_powf+5)& (0+255),b
  2516  00169C  0101               	movlb	1	; () banked
  2517  00169E  5152               	movf	(powf@yisint+2)& (0+255),w,b
  2518  0016A0  0100               	movlb	0	; () banked
  2519  0016A2  1192               	iorwf	(??_powf+2)& (0+255),w,b
  2520  0016A4  6F96               	movwf	(??_powf+6)& (0+255),b
  2521  0016A6  0101               	movlb	1	; () banked
  2522  0016A8  5153               	movf	(powf@yisint+3)& (0+255),w,b
  2523  0016AA  0100               	movlb	0	; () banked
  2524  0016AC  1193               	iorwf	(??_powf+3)& (0+255),w,b
  2525  0016AE  6F97               	movwf	(??_powf+7)& (0+255),b
  2526  0016B0  5194               	movf	(??_powf+4)& (0+255),w,b
  2527  0016B2  1195               	iorwf	(??_powf+5)& (0+255),w,b
  2528  0016B4  1196               	iorwf	(??_powf+6)& (0+255),w,b
  2529  0016B6  1197               	iorwf	(??_powf+7)& (0+255),w,b
  2530  0016B8  A4D8               	btfss	status,2,c
  2531  0016BA  EF61  F00B         	goto	u5361
  2532  0016BE  EF63  F00B         	goto	u5360
  2533  0016C2                     u5361:
  2534  0016C2  EFA3  F00B         	goto	l4857
  2535  0016C6                     u5360:
  2536  0016C6                     
  2537                           ; BSR set to: 0
  2538  0016C6  C1B4  F03E         	movff	powf@z,___flsub@a
  2539  0016CA  C1B5  F03F         	movff	powf@z+1,___flsub@a+1
  2540  0016CE  C1B6  F040         	movff	powf@z+2,___flsub@a+2
  2541  0016D2  C1B7  F041         	movff	powf@z+3,___flsub@a+3
  2542  0016D6  C1B4  F03A         	movff	powf@z,___flsub@b
  2543  0016DA  C1B5  F03B         	movff	powf@z+1,___flsub@b+1
  2544  0016DE  C1B6  F03C         	movff	powf@z+2,___flsub@b+2
  2545  0016E2  C1B7  F03D         	movff	powf@z+3,___flsub@b+3
  2546  0016E6  EC9A  F02B         	call	___flsub	;wreg free
  2547  0016EA  C03A  F042         	movff	?___flsub,___fldiv@b
  2548  0016EE  C03B  F043         	movff	?___flsub+1,___fldiv@b+1
  2549  0016F2  C03C  F044         	movff	?___flsub+2,___fldiv@b+2
  2550  0016F6  C03D  F045         	movff	?___flsub+3,___fldiv@b+3
  2551  0016FA  C1B4  F03E         	movff	powf@z,___flsub@a
  2552  0016FE  C1B5  F03F         	movff	powf@z+1,___flsub@a+1
  2553  001702  C1B6  F040         	movff	powf@z+2,___flsub@a+2
  2554  001706  C1B7  F041         	movff	powf@z+3,___flsub@a+3
  2555  00170A  C1B4  F03A         	movff	powf@z,___flsub@b
  2556  00170E  C1B5  F03B         	movff	powf@z+1,___flsub@b+1
  2557  001712  C1B6  F03C         	movff	powf@z+2,___flsub@b+2
  2558  001716  C1B7  F03D         	movff	powf@z+3,___flsub@b+3
  2559  00171A  EC9A  F02B         	call	___flsub	;wreg free
  2560  00171E  C03A  F046         	movff	?___flsub,___fldiv@a
  2561  001722  C03B  F047         	movff	?___flsub+1,___fldiv@a+1
  2562  001726  C03C  F048         	movff	?___flsub+2,___fldiv@a+2
  2563  00172A  C03D  F049         	movff	?___flsub+3,___fldiv@a+3
  2564  00172E  EC2E  F024         	call	___fldiv	;wreg free
  2565  001732  C042  F1B4         	movff	?___fldiv,powf@z
  2566  001736  C043  F1B5         	movff	?___fldiv+1,powf@z+1
  2567  00173A  C044  F1B6         	movff	?___fldiv+2,powf@z+2
  2568  00173E  C045  F1B7         	movff	?___fldiv+3,powf@z+3
  2569  001742  EFC1  F00B         	goto	l4861
  2570  001746                     l4857:
  2571                           
  2572                           ; BSR set to: 0
  2573  001746  0101               	movlb	1	; () banked
  2574  001748  0550               	decf	powf@yisint& (0+255),w,b
  2575  00174A  1151               	iorwf	(powf@yisint+1)& (0+255),w,b
  2576  00174C  1152               	iorwf	(powf@yisint+2)& (0+255),w,b
  2577  00174E  1153               	iorwf	(powf@yisint+3)& (0+255),w,b
  2578  001750  A4D8               	btfss	status,2,c
  2579  001752  EFAD  F00B         	goto	u5371
  2580  001756  EFAF  F00B         	goto	u5370
  2581  00175A                     u5371:
  2582  00175A  EFC1  F00B         	goto	l4861
  2583  00175E                     u5370:
  2584  00175E                     
  2585                           ; BSR set to: 1
  2586  00175E  C1B4  F003         	movff	powf@z,___flneg@f1
  2587  001762  C1B5  F004         	movff	powf@z+1,___flneg@f1+1
  2588  001766  C1B6  F005         	movff	powf@z+2,___flneg@f1+2
  2589  00176A  C1B7  F006         	movff	powf@z+3,___flneg@f1+3
  2590  00176E  EC59  F02C         	call	___flneg	;wreg free
  2591  001772  C003  F1B4         	movff	?___flneg,powf@z
  2592  001776  C004  F1B5         	movff	?___flneg+1,powf@z+1
  2593  00177A  C005  F1B6         	movff	?___flneg+2,powf@z+2
  2594  00177E  C006  F1B7         	movff	?___flneg+3,powf@z+3
  2595  001782                     l4861:
  2596  001782  C1B4  F088         	movff	powf@z,?_powf
  2597  001786  C1B5  F089         	movff	powf@z+1,?_powf+1
  2598  00178A  C1B6  F08A         	movff	powf@z+2,?_powf+2
  2599  00178E  C1B7  F08B         	movff	powf@z+3,?_powf+3
  2600  001792  EF58  F01D         	goto	l1052
  2601  001796                     l4865:
  2602                           
  2603                           ; BSR set to: 1
  2604  001796  0E00               	movlw	0
  2605  001798  6F84               	movwf	powf@sn& (0+255),b
  2606  00179A  0E00               	movlw	0
  2607  00179C  6F85               	movwf	(powf@sn+1)& (0+255),b
  2608  00179E  0E80               	movlw	128
  2609  0017A0  6F86               	movwf	(powf@sn+2)& (0+255),b
  2610  0017A2  0E3F               	movlw	63
  2611  0017A4  6F87               	movwf	(powf@sn+3)& (0+255),b
  2612  0017A6                     
  2613                           ; BSR set to: 1
  2614  0017A6  BF63               	btfsc	(powf@hx+3)& (0+255),7,b
  2615  0017A8  EFDA  F00B         	goto	u5380
  2616  0017AC  EFD8  F00B         	goto	u5381
  2617  0017B0                     u5381:
  2618  0017B0  EF38  F00C         	goto	l4879
  2619  0017B4                     u5380:
  2620  0017B4                     
  2621                           ; BSR set to: 1
  2622  0017B4  5150               	movf	powf@yisint& (0+255),w,b
  2623  0017B6  1151               	iorwf	(powf@yisint+1)& (0+255),w,b
  2624  0017B8  1152               	iorwf	(powf@yisint+2)& (0+255),w,b
  2625  0017BA  1153               	iorwf	(powf@yisint+3)& (0+255),w,b
  2626  0017BC  A4D8               	btfss	status,2,c
  2627  0017BE  EFE3  F00B         	goto	u5391
  2628  0017C2  EFE5  F00B         	goto	u5390
  2629  0017C6                     u5391:
  2630  0017C6  EF25  F00C         	goto	l4875
  2631  0017CA                     u5390:
  2632  0017CA                     
  2633                           ; BSR set to: 1
  2634  0017CA  C088  F03E         	movff	powf@x,___flsub@a
  2635  0017CE  C089  F03F         	movff	powf@x+1,___flsub@a+1
  2636  0017D2  C08A  F040         	movff	powf@x+2,___flsub@a+2
  2637  0017D6  C08B  F041         	movff	powf@x+3,___flsub@a+3
  2638  0017DA  C088  F03A         	movff	powf@x,___flsub@b
  2639  0017DE  C089  F03B         	movff	powf@x+1,___flsub@b+1
  2640  0017E2  C08A  F03C         	movff	powf@x+2,___flsub@b+2
  2641  0017E6  C08B  F03D         	movff	powf@x+3,___flsub@b+3
  2642  0017EA  EC9A  F02B         	call	___flsub	;wreg free
  2643  0017EE  C03A  F042         	movff	?___flsub,___fldiv@b
  2644  0017F2  C03B  F043         	movff	?___flsub+1,___fldiv@b+1
  2645  0017F6  C03C  F044         	movff	?___flsub+2,___fldiv@b+2
  2646  0017FA  C03D  F045         	movff	?___flsub+3,___fldiv@b+3
  2647  0017FE  C088  F03E         	movff	powf@x,___flsub@a
  2648  001802  C089  F03F         	movff	powf@x+1,___flsub@a+1
  2649  001806  C08A  F040         	movff	powf@x+2,___flsub@a+2
  2650  00180A  C08B  F041         	movff	powf@x+3,___flsub@a+3
  2651  00180E  C088  F03A         	movff	powf@x,___flsub@b
  2652  001812  C089  F03B         	movff	powf@x+1,___flsub@b+1
  2653  001816  C08A  F03C         	movff	powf@x+2,___flsub@b+2
  2654  00181A  C08B  F03D         	movff	powf@x+3,___flsub@b+3
  2655  00181E  EC9A  F02B         	call	___flsub	;wreg free
  2656  001822  C03A  F046         	movff	?___flsub,___fldiv@a
  2657  001826  C03B  F047         	movff	?___flsub+1,___fldiv@a+1
  2658  00182A  C03C  F048         	movff	?___flsub+2,___fldiv@a+2
  2659  00182E  C03D  F049         	movff	?___flsub+3,___fldiv@a+3
  2660  001832  EC2E  F024         	call	___fldiv	;wreg free
  2661  001836  C042  F088         	movff	?___fldiv,?_powf
  2662  00183A  C043  F089         	movff	?___fldiv+1,?_powf+1
  2663  00183E  C044  F08A         	movff	?___fldiv+2,?_powf+2
  2664  001842  C045  F08B         	movff	?___fldiv+3,?_powf+3
  2665  001846  EF58  F01D         	goto	l1052
  2666  00184A                     l4875:
  2667                           
  2668                           ; BSR set to: 1
  2669  00184A  0550               	decf	powf@yisint& (0+255),w,b
  2670  00184C  1151               	iorwf	(powf@yisint+1)& (0+255),w,b
  2671  00184E  1152               	iorwf	(powf@yisint+2)& (0+255),w,b
  2672  001850  1153               	iorwf	(powf@yisint+3)& (0+255),w,b
  2673  001852  A4D8               	btfss	status,2,c
  2674  001854  EF2E  F00C         	goto	u5401
  2675  001858  EF30  F00C         	goto	u5400
  2676  00185C                     u5401:
  2677  00185C  EF38  F00C         	goto	l4879
  2678  001860                     u5400:
  2679  001860                     
  2680                           ; BSR set to: 1
  2681  001860  0E00               	movlw	0
  2682  001862  6F84               	movwf	powf@sn& (0+255),b
  2683  001864  0E00               	movlw	0
  2684  001866  6F85               	movwf	(powf@sn+1)& (0+255),b
  2685  001868  0E80               	movlw	128
  2686  00186A  6F86               	movwf	(powf@sn+2)& (0+255),b
  2687  00186C  0EBF               	movlw	191
  2688  00186E  6F87               	movwf	(powf@sn+3)& (0+255),b
  2689  001870                     l4879:
  2690                           
  2691                           ; BSR set to: 1
  2692  001870  BF93               	btfsc	(powf@iy+3)& (0+255),7,b
  2693  001872  EF47  F00C         	goto	u5411
  2694  001876  0590               	decf	powf@iy& (0+255),w,b
  2695  001878  0E00               	movlw	0
  2696  00187A  5991               	subwfb	(powf@iy+1)& (0+255),w,b
  2697  00187C  0E00               	movlw	0
  2698  00187E  5992               	subwfb	(powf@iy+2)& (0+255),w,b
  2699  001880  0E4D               	movlw	77
  2700  001882  5993               	subwfb	(powf@iy+3)& (0+255),w,b
  2701  001884  A0D8               	btfss	status,0,c
  2702  001886  EF47  F00C         	goto	u5411
  2703  00188A  EF49  F00C         	goto	u5410
  2704  00188E                     u5411:
  2705  00188E  EFCE  F00E         	goto	l4927
  2706  001892                     u5410:
  2707  001892                     
  2708                           ; BSR set to: 1
  2709  001892  BFAB               	btfsc	(powf@ix+3)& (0+255),7,b
  2710  001894  EF5B  F00C         	goto	u5420
  2711  001898  0EF8               	movlw	248
  2712  00189A  5DA8               	subwf	powf@ix& (0+255),w,b
  2713  00189C  0EFF               	movlw	255
  2714  00189E  59A9               	subwfb	(powf@ix+1)& (0+255),w,b
  2715  0018A0  0E7F               	movlw	127
  2716  0018A2  59AA               	subwfb	(powf@ix+2)& (0+255),w,b
  2717  0018A4  0E3F               	movlw	63
  2718  0018A6  59AB               	subwfb	(powf@ix+3)& (0+255),w,b
  2719  0018A8  B0D8               	btfsc	status,0,c
  2720  0018AA  EF59  F00C         	goto	u5421
  2721  0018AE  EF5B  F00C         	goto	u5420
  2722  0018B2                     u5421:
  2723  0018B2  EFCE  F00C         	goto	l4891
  2724  0018B6                     u5420:
  2725  0018B6                     
  2726                           ; BSR set to: 1
  2727  0018B6  BF7F               	btfsc	(powf@hy+3)& (0+255),7,b
  2728  0018B8  EF60  F00C         	goto	u5431
  2729  0018BC  EF62  F00C         	goto	u5430
  2730  0018C0                     u5431:
  2731  0018C0  EF98  F00C         	goto	l4887
  2732  0018C4                     u5430:
  2733  0018C4                     
  2734                           ; BSR set to: 1
  2735  0018C4  0E60               	movlw	96
  2736  0018C6  6E17               	movwf	___flmul@a^0,c
  2737  0018C8  0E42               	movlw	66
  2738  0018CA  6E18               	movwf	(___flmul@a+1)^0,c
  2739  0018CC  0EA2               	movlw	162
  2740  0018CE  6E19               	movwf	(___flmul@a+2)^0,c
  2741  0018D0  0E0D               	movlw	13
  2742  0018D2  6E1A               	movwf	(___flmul@a+3)^0,c
  2743  0018D4  C184  F013         	movff	powf@sn,___flmul@b
  2744  0018D8  C185  F014         	movff	powf@sn+1,___flmul@b+1
  2745  0018DC  C186  F015         	movff	powf@sn+2,___flmul@b+2
  2746  0018E0  C187  F016         	movff	powf@sn+3,___flmul@b+3
  2747  0018E4  EC19  F022         	call	___flmul	;wreg free
  2748  0018E8  C013  F1A4         	movff	?___flmul,_powf$1344
  2749  0018EC  C014  F1A5         	movff	?___flmul+1,_powf$1344+1
  2750  0018F0  C015  F1A6         	movff	?___flmul+2,_powf$1344+2
  2751  0018F4  C016  F1A7         	movff	?___flmul+3,_powf$1344+3
  2752  0018F8  C1A4  F013         	movff	_powf$1344,___flmul@b
  2753  0018FC  C1A5  F014         	movff	_powf$1344+1,___flmul@b+1
  2754  001900  C1A6  F015         	movff	_powf$1344+2,___flmul@b+2
  2755  001904  C1A7  F016         	movff	_powf$1344+3,___flmul@b+3
  2756  001908  0E60               	movlw	96
  2757  00190A  6E17               	movwf	___flmul@a^0,c
  2758  00190C  0E42               	movlw	66
  2759  00190E  6E18               	movwf	(___flmul@a+1)^0,c
  2760  001910  0EA2               	movlw	162
  2761  001912  6E19               	movwf	(___flmul@a+2)^0,c
  2762  001914  0E0D               	movlw	13
  2763  001916  6E1A               	movwf	(___flmul@a+3)^0,c
  2764  001918  EC19  F022         	call	___flmul	;wreg free
  2765  00191C  C013  F088         	movff	?___flmul,?_powf
  2766  001920  C014  F089         	movff	?___flmul+1,?_powf+1
  2767  001924  C015  F08A         	movff	?___flmul+2,?_powf+2
  2768  001928  C016  F08B         	movff	?___flmul+3,?_powf+3
  2769  00192C  EF58  F01D         	goto	l1052
  2770  001930                     l4887:
  2771                           
  2772                           ; BSR set to: 1
  2773  001930  0ECA               	movlw	202
  2774  001932  6E17               	movwf	___flmul@a^0,c
  2775  001934  0EF2               	movlw	242
  2776  001936  6E18               	movwf	(___flmul@a+1)^0,c
  2777  001938  0E49               	movlw	73
  2778  00193A  6E19               	movwf	(___flmul@a+2)^0,c
  2779  00193C  0E71               	movlw	113
  2780  00193E  6E1A               	movwf	(___flmul@a+3)^0,c
  2781  001940  C184  F013         	movff	powf@sn,___flmul@b
  2782  001944  C185  F014         	movff	powf@sn+1,___flmul@b+1
  2783  001948  C186  F015         	movff	powf@sn+2,___flmul@b+2
  2784  00194C  C187  F016         	movff	powf@sn+3,___flmul@b+3
  2785  001950  EC19  F022         	call	___flmul	;wreg free
  2786  001954  C013  F1A4         	movff	?___flmul,_powf$1344
  2787  001958  C014  F1A5         	movff	?___flmul+1,_powf$1344+1
  2788  00195C  C015  F1A6         	movff	?___flmul+2,_powf$1344+2
  2789  001960  C016  F1A7         	movff	?___flmul+3,_powf$1344+3
  2790  001964  C1A4  F013         	movff	_powf$1344,___flmul@b
  2791  001968  C1A5  F014         	movff	_powf$1344+1,___flmul@b+1
  2792  00196C  C1A6  F015         	movff	_powf$1344+2,___flmul@b+2
  2793  001970  C1A7  F016         	movff	_powf$1344+3,___flmul@b+3
  2794  001974  0ECA               	movlw	202
  2795  001976  6E17               	movwf	___flmul@a^0,c
  2796  001978  0EF2               	movlw	242
  2797  00197A  6E18               	movwf	(___flmul@a+1)^0,c
  2798  00197C  0E49               	movlw	73
  2799  00197E  6E19               	movwf	(___flmul@a+2)^0,c
  2800  001980  0E71               	movlw	113
  2801  001982  6E1A               	movwf	(___flmul@a+3)^0,c
  2802  001984  EC19  F022         	call	___flmul	;wreg free
  2803  001988  C013  F088         	movff	?___flmul,?_powf
  2804  00198C  C014  F089         	movff	?___flmul+1,?_powf+1
  2805  001990  C015  F08A         	movff	?___flmul+2,?_powf+2
  2806  001994  C016  F08B         	movff	?___flmul+3,?_powf+3
  2807  001998  EF58  F01D         	goto	l1052
  2808  00199C                     l4891:
  2809                           
  2810                           ; BSR set to: 1
  2811  00199C  BFAB               	btfsc	(powf@ix+3)& (0+255),7,b
  2812  00199E  EFDE  F00C         	goto	u5441
  2813  0019A2  0E08               	movlw	8
  2814  0019A4  5DA8               	subwf	powf@ix& (0+255),w,b
  2815  0019A6  0E00               	movlw	0
  2816  0019A8  59A9               	subwfb	(powf@ix+1)& (0+255),w,b
  2817  0019AA  0E80               	movlw	128
  2818  0019AC  59AA               	subwfb	(powf@ix+2)& (0+255),w,b
  2819  0019AE  0E3F               	movlw	63
  2820  0019B0  59AB               	subwfb	(powf@ix+3)& (0+255),w,b
  2821  0019B2  A0D8               	btfss	status,0,c
  2822  0019B4  EFDE  F00C         	goto	u5441
  2823  0019B8  EFE0  F00C         	goto	u5440
  2824  0019BC                     u5441:
  2825  0019BC  EF5B  F00D         	goto	l4901
  2826  0019C0                     u5440:
  2827  0019C0                     
  2828                           ; BSR set to: 1
  2829  0019C0  BF7F               	btfsc	(powf@hy+3)& (0+255),7,b
  2830  0019C2  EFEF  F00C         	goto	u5450
  2831  0019C6  517F               	movf	(powf@hy+3)& (0+255),w,b
  2832  0019C8  117E               	iorwf	(powf@hy+2)& (0+255),w,b
  2833  0019CA  117D               	iorwf	(powf@hy+1)& (0+255),w,b
  2834  0019CC  E106               	bnz	u5451
  2835  0019CE  057C               	decf	powf@hy& (0+255),w,b
  2836  0019D0  B0D8               	btfsc	status,0,c
  2837  0019D2  EFED  F00C         	goto	u5451
  2838  0019D6  EFEF  F00C         	goto	u5450
  2839  0019DA                     u5451:
  2840  0019DA  EF25  F00D         	goto	l4897
  2841  0019DE                     u5450:
  2842  0019DE                     
  2843                           ; BSR set to: 1
  2844  0019DE  0E60               	movlw	96
  2845  0019E0  6E17               	movwf	___flmul@a^0,c
  2846  0019E2  0E42               	movlw	66
  2847  0019E4  6E18               	movwf	(___flmul@a+1)^0,c
  2848  0019E6  0EA2               	movlw	162
  2849  0019E8  6E19               	movwf	(___flmul@a+2)^0,c
  2850  0019EA  0E0D               	movlw	13
  2851  0019EC  6E1A               	movwf	(___flmul@a+3)^0,c
  2852  0019EE  C184  F013         	movff	powf@sn,___flmul@b
  2853  0019F2  C185  F014         	movff	powf@sn+1,___flmul@b+1
  2854  0019F6  C186  F015         	movff	powf@sn+2,___flmul@b+2
  2855  0019FA  C187  F016         	movff	powf@sn+3,___flmul@b+3
  2856  0019FE  EC19  F022         	call	___flmul	;wreg free
  2857  001A02  C013  F1A4         	movff	?___flmul,_powf$1344
  2858  001A06  C014  F1A5         	movff	?___flmul+1,_powf$1344+1
  2859  001A0A  C015  F1A6         	movff	?___flmul+2,_powf$1344+2
  2860  001A0E  C016  F1A7         	movff	?___flmul+3,_powf$1344+3
  2861  001A12  C1A4  F013         	movff	_powf$1344,___flmul@b
  2862  001A16  C1A5  F014         	movff	_powf$1344+1,___flmul@b+1
  2863  001A1A  C1A6  F015         	movff	_powf$1344+2,___flmul@b+2
  2864  001A1E  C1A7  F016         	movff	_powf$1344+3,___flmul@b+3
  2865  001A22  0E60               	movlw	96
  2866  001A24  6E17               	movwf	___flmul@a^0,c
  2867  001A26  0E42               	movlw	66
  2868  001A28  6E18               	movwf	(___flmul@a+1)^0,c
  2869  001A2A  0EA2               	movlw	162
  2870  001A2C  6E19               	movwf	(___flmul@a+2)^0,c
  2871  001A2E  0E0D               	movlw	13
  2872  001A30  6E1A               	movwf	(___flmul@a+3)^0,c
  2873  001A32  EC19  F022         	call	___flmul	;wreg free
  2874  001A36  C013  F088         	movff	?___flmul,?_powf
  2875  001A3A  C014  F089         	movff	?___flmul+1,?_powf+1
  2876  001A3E  C015  F08A         	movff	?___flmul+2,?_powf+2
  2877  001A42  C016  F08B         	movff	?___flmul+3,?_powf+3
  2878  001A46  EF58  F01D         	goto	l1052
  2879  001A4A                     l4897:
  2880                           
  2881                           ; BSR set to: 1
  2882  001A4A  0ECA               	movlw	202
  2883  001A4C  6E17               	movwf	___flmul@a^0,c
  2884  001A4E  0EF2               	movlw	242
  2885  001A50  6E18               	movwf	(___flmul@a+1)^0,c
  2886  001A52  0E49               	movlw	73
  2887  001A54  6E19               	movwf	(___flmul@a+2)^0,c
  2888  001A56  0E71               	movlw	113
  2889  001A58  6E1A               	movwf	(___flmul@a+3)^0,c
  2890  001A5A  C184  F013         	movff	powf@sn,___flmul@b
  2891  001A5E  C185  F014         	movff	powf@sn+1,___flmul@b+1
  2892  001A62  C186  F015         	movff	powf@sn+2,___flmul@b+2
  2893  001A66  C187  F016         	movff	powf@sn+3,___flmul@b+3
  2894  001A6A  EC19  F022         	call	___flmul	;wreg free
  2895  001A6E  C013  F1A4         	movff	?___flmul,_powf$1344
  2896  001A72  C014  F1A5         	movff	?___flmul+1,_powf$1344+1
  2897  001A76  C015  F1A6         	movff	?___flmul+2,_powf$1344+2
  2898  001A7A  C016  F1A7         	movff	?___flmul+3,_powf$1344+3
  2899  001A7E  C1A4  F013         	movff	_powf$1344,___flmul@b
  2900  001A82  C1A5  F014         	movff	_powf$1344+1,___flmul@b+1
  2901  001A86  C1A6  F015         	movff	_powf$1344+2,___flmul@b+2
  2902  001A8A  C1A7  F016         	movff	_powf$1344+3,___flmul@b+3
  2903  001A8E  0ECA               	movlw	202
  2904  001A90  6E17               	movwf	___flmul@a^0,c
  2905  001A92  0EF2               	movlw	242
  2906  001A94  6E18               	movwf	(___flmul@a+1)^0,c
  2907  001A96  0E49               	movlw	73
  2908  001A98  6E19               	movwf	(___flmul@a+2)^0,c
  2909  001A9A  0E71               	movlw	113
  2910  001A9C  6E1A               	movwf	(___flmul@a+3)^0,c
  2911  001A9E  EC19  F022         	call	___flmul	;wreg free
  2912  001AA2  C013  F088         	movff	?___flmul,?_powf
  2913  001AA6  C014  F089         	movff	?___flmul+1,?_powf+1
  2914  001AAA  C015  F08A         	movff	?___flmul+2,?_powf+2
  2915  001AAE  C016  F08B         	movff	?___flmul+3,?_powf+3
  2916  001AB2  EF58  F01D         	goto	l1052
  2917  001AB6                     l4901:
  2918                           
  2919                           ; BSR set to: 1
  2920  001AB6  C170  F003         	movff	powf@ax,___fladd@b
  2921  001ABA  C171  F004         	movff	powf@ax+1,___fladd@b+1
  2922  001ABE  C172  F005         	movff	powf@ax+2,___fladd@b+2
  2923  001AC2  C173  F006         	movff	powf@ax+3,___fladd@b+3
  2924  001AC6  0E00               	movlw	0
  2925  001AC8  6E07               	movwf	___fladd@a^0,c
  2926  001ACA  0E00               	movlw	0
  2927  001ACC  6E08               	movwf	(___fladd@a+1)^0,c
  2928  001ACE  0E80               	movlw	128
  2929  001AD0  6E09               	movwf	(___fladd@a+2)^0,c
  2930  001AD2  0EBF               	movlw	191
  2931  001AD4  6E0A               	movwf	(___fladd@a+3)^0,c
  2932  001AD6  ECB9  F01F         	call	___fladd	;wreg free
  2933  001ADA  C003  F1B0         	movff	?___fladd,powf@t
  2934  001ADE  C004  F1B1         	movff	?___fladd+1,powf@t+1
  2935  001AE2  C005  F1B2         	movff	?___fladd+2,powf@t+2
  2936  001AE6  C006  F1B3         	movff	?___fladd+3,powf@t+3
  2937  001AEA  0E00               	movlw	0
  2938  001AEC  6E17               	movwf	___flmul@a^0,c
  2939  001AEE  0E00               	movlw	0
  2940  001AF0  6E18               	movwf	(___flmul@a+1)^0,c
  2941  001AF2  0E80               	movlw	128
  2942  001AF4  6E19               	movwf	(___flmul@a+2)^0,c
  2943  001AF6  0E3E               	movlw	62
  2944  001AF8  6E1A               	movwf	(___flmul@a+3)^0,c
  2945  001AFA  C1B0  F013         	movff	powf@t,___flmul@b
  2946  001AFE  C1B1  F014         	movff	powf@t+1,___flmul@b+1
  2947  001B02  C1B2  F015         	movff	powf@t+2,___flmul@b+2
  2948  001B06  C1B3  F016         	movff	powf@t+3,___flmul@b+3
  2949  001B0A  EC19  F022         	call	___flmul	;wreg free
  2950  001B0E  C013  F03E         	movff	?___flmul,___flsub@a
  2951  001B12  C014  F03F         	movff	?___flmul+1,___flsub@a+1
  2952  001B16  C015  F040         	movff	?___flmul+2,___flsub@a+2
  2953  001B1A  C016  F041         	movff	?___flmul+3,___flsub@a+3
  2954  001B1E  0EAB               	movlw	171
  2955  001B20  6E3A               	movwf	___flsub@b^0,c
  2956  001B22  0EAA               	movlw	170
  2957  001B24  6E3B               	movwf	(___flsub@b+1)^0,c
  2958  001B26  0EAA               	movlw	170
  2959  001B28  6E3C               	movwf	(___flsub@b+2)^0,c
  2960  001B2A  0E3E               	movlw	62
  2961  001B2C  6E3D               	movwf	(___flsub@b+3)^0,c
  2962  001B2E  EC9A  F02B         	call	___flsub	;wreg free
  2963  001B32  C03A  F1A4         	movff	?___flsub,_powf$1344
  2964  001B36  C03B  F1A5         	movff	?___flsub+1,_powf$1344+1
  2965  001B3A  C03C  F1A6         	movff	?___flsub+2,_powf$1344+2
  2966  001B3E  C03D  F1A7         	movff	?___flsub+3,_powf$1344+3
  2967  001B42  C1B0  F017         	movff	powf@t,___flmul@a
  2968  001B46  C1B1  F018         	movff	powf@t+1,___flmul@a+1
  2969  001B4A  C1B2  F019         	movff	powf@t+2,___flmul@a+2
  2970  001B4E  C1B3  F01A         	movff	powf@t+3,___flmul@a+3
  2971  001B52  C1B0  F013         	movff	powf@t,___flmul@b
  2972  001B56  C1B1  F014         	movff	powf@t+1,___flmul@b+1
  2973  001B5A  C1B2  F015         	movff	powf@t+2,___flmul@b+2
  2974  001B5E  C1B3  F016         	movff	powf@t+3,___flmul@b+3
  2975  001B62  EC19  F022         	call	___flmul	;wreg free
  2976  001B66  C013  F158         	movff	?___flmul,_powf$1345
  2977  001B6A  C014  F159         	movff	?___flmul+1,_powf$1345+1
  2978  001B6E  C015  F15A         	movff	?___flmul+2,_powf$1345+2
  2979  001B72  C016  F15B         	movff	?___flmul+3,_powf$1345+3
  2980  001B76  C1B0  F017         	movff	powf@t,___flmul@a
  2981  001B7A  C1B1  F018         	movff	powf@t+1,___flmul@a+1
  2982  001B7E  C1B2  F019         	movff	powf@t+2,___flmul@a+2
  2983  001B82  C1B3  F01A         	movff	powf@t+3,___flmul@a+3
  2984  001B86  C1A4  F013         	movff	_powf$1344,___flmul@b
  2985  001B8A  C1A5  F014         	movff	_powf$1344+1,___flmul@b+1
  2986  001B8E  C1A6  F015         	movff	_powf$1344+2,___flmul@b+2
  2987  001B92  C1A7  F016         	movff	_powf$1344+3,___flmul@b+3
  2988  001B96  EC19  F022         	call	___flmul	;wreg free
  2989  001B9A  C013  F03E         	movff	?___flmul,___flsub@a
  2990  001B9E  C014  F03F         	movff	?___flmul+1,___flsub@a+1
  2991  001BA2  C015  F040         	movff	?___flmul+2,___flsub@a+2
  2992  001BA6  C016  F041         	movff	?___flmul+3,___flsub@a+3
  2993  001BAA  0E00               	movlw	0
  2994  001BAC  6E3A               	movwf	___flsub@b^0,c
  2995  001BAE  0E00               	movlw	0
  2996  001BB0  6E3B               	movwf	(___flsub@b+1)^0,c
  2997  001BB2  0E00               	movlw	0
  2998  001BB4  6E3C               	movwf	(___flsub@b+2)^0,c
  2999  001BB6  0E3F               	movlw	63
  3000  001BB8  6E3D               	movwf	(___flsub@b+3)^0,c
  3001  001BBA  EC9A  F02B         	call	___flsub	;wreg free
  3002  001BBE  C03A  F148         	movff	?___flsub,_powf$1346
  3003  001BC2  C03B  F149         	movff	?___flsub+1,_powf$1346+1
  3004  001BC6  C03C  F14A         	movff	?___flsub+2,_powf$1346+2
  3005  001BCA  C03D  F14B         	movff	?___flsub+3,_powf$1346+3
  3006  001BCE  C158  F013         	movff	_powf$1345,___flmul@b
  3007  001BD2  C159  F014         	movff	_powf$1345+1,___flmul@b+1
  3008  001BD6  C15A  F015         	movff	_powf$1345+2,___flmul@b+2
  3009  001BDA  C15B  F016         	movff	_powf$1345+3,___flmul@b+3
  3010  001BDE  C148  F017         	movff	_powf$1346,___flmul@a
  3011  001BE2  C149  F018         	movff	_powf$1346+1,___flmul@a+1
  3012  001BE6  C14A  F019         	movff	_powf$1346+2,___flmul@a+2
  3013  001BEA  C14B  F01A         	movff	_powf$1346+3,___flmul@a+3
  3014  001BEE  EC19  F022         	call	___flmul	;wreg free
  3015  001BF2  C013  F144         	movff	?___flmul,powf@w
  3016  001BF6  C014  F145         	movff	?___flmul+1,powf@w+1
  3017  001BFA  C015  F146         	movff	?___flmul+2,powf@w+2
  3018  001BFE  C016  F147         	movff	?___flmul+3,powf@w+3
  3019  001C02  C1B0  F013         	movff	powf@t,___flmul@b
  3020  001C06  C1B1  F014         	movff	powf@t+1,___flmul@b+1
  3021  001C0A  C1B2  F015         	movff	powf@t+2,___flmul@b+2
  3022  001C0E  C1B3  F016         	movff	powf@t+3,___flmul@b+3
  3023  001C12  0E00               	movlw	0
  3024  001C14  6E17               	movwf	___flmul@a^0,c
  3025  001C16  0EAA               	movlw	170
  3026  001C18  6E18               	movwf	(___flmul@a+1)^0,c
  3027  001C1A  0EB8               	movlw	184
  3028  001C1C  6E19               	movwf	(___flmul@a+2)^0,c
  3029  001C1E  0E3F               	movlw	63
  3030  001C20  6E1A               	movwf	(___flmul@a+3)^0,c
  3031  001C22  EC19  F022         	call	___flmul	;wreg free
  3032  001C26  C013  F174         	movff	?___flmul,powf@u
  3033  001C2A  C014  F175         	movff	?___flmul+1,powf@u+1
  3034  001C2E  C015  F176         	movff	?___flmul+2,powf@u+2
  3035  001C32  C016  F177         	movff	?___flmul+3,powf@u+3
  3036  001C36  0E70               	movlw	112
  3037  001C38  6E17               	movwf	___flmul@a^0,c
  3038  001C3A  0EA5               	movlw	165
  3039  001C3C  6E18               	movwf	(___flmul@a+1)^0,c
  3040  001C3E  0EEC               	movlw	236
  3041  001C40  6E19               	movwf	(___flmul@a+2)^0,c
  3042  001C42  0E36               	movlw	54
  3043  001C44  6E1A               	movwf	(___flmul@a+3)^0,c
  3044  001C46  C1B0  F013         	movff	powf@t,___flmul@b
  3045  001C4A  C1B1  F014         	movff	powf@t+1,___flmul@b+1
  3046  001C4E  C1B2  F015         	movff	powf@t+2,___flmul@b+2
  3047  001C52  C1B3  F016         	movff	powf@t+3,___flmul@b+3
  3048  001C56  EC19  F022         	call	___flmul	;wreg free
  3049  001C5A  C013  F03A         	movff	?___flmul,___flsub@b
  3050  001C5E  C014  F03B         	movff	?___flmul+1,___flsub@b+1
  3051  001C62  C015  F03C         	movff	?___flmul+2,___flsub@b+2
  3052  001C66  C016  F03D         	movff	?___flmul+3,___flsub@b+3
  3053  001C6A  0E3B               	movlw	59
  3054  001C6C  6E17               	movwf	___flmul@a^0,c
  3055  001C6E  0EAA               	movlw	170
  3056  001C70  6E18               	movwf	(___flmul@a+1)^0,c
  3057  001C72  0EB8               	movlw	184
  3058  001C74  6E19               	movwf	(___flmul@a+2)^0,c
  3059  001C76  0E3F               	movlw	63
  3060  001C78  6E1A               	movwf	(___flmul@a+3)^0,c
  3061  001C7A  C144  F013         	movff	powf@w,___flmul@b
  3062  001C7E  C145  F014         	movff	powf@w+1,___flmul@b+1
  3063  001C82  C146  F015         	movff	powf@w+2,___flmul@b+2
  3064  001C86  C147  F016         	movff	powf@w+3,___flmul@b+3
  3065  001C8A  EC19  F022         	call	___flmul	;wreg free
  3066  001C8E  C013  F03E         	movff	?___flmul,___flsub@a
  3067  001C92  C014  F03F         	movff	?___flmul+1,___flsub@a+1
  3068  001C96  C015  F040         	movff	?___flmul+2,___flsub@a+2
  3069  001C9A  C016  F041         	movff	?___flmul+3,___flsub@a+3
  3070  001C9E  EC9A  F02B         	call	___flsub	;wreg free
  3071  001CA2  C03A  F178         	movff	?___flsub,powf@v
  3072  001CA6  C03B  F179         	movff	?___flsub+1,powf@v+1
  3073  001CAA  C03C  F17A         	movff	?___flsub+2,powf@v+2
  3074  001CAE  C03D  F17B         	movff	?___flsub+3,powf@v+3
  3075  001CB2  C174  F003         	movff	powf@u,___fladd@b
  3076  001CB6  C175  F004         	movff	powf@u+1,___fladd@b+1
  3077  001CBA  C176  F005         	movff	powf@u+2,___fladd@b+2
  3078  001CBE  C177  F006         	movff	powf@u+3,___fladd@b+3
  3079  001CC2  C178  F007         	movff	powf@v,___fladd@a
  3080  001CC6  C179  F008         	movff	powf@v+1,___fladd@a+1
  3081  001CCA  C17A  F009         	movff	powf@v+2,___fladd@a+2
  3082  001CCE  C17B  F00A         	movff	powf@v+3,___fladd@a+3
  3083  001CD2  ECB9  F01F         	call	___fladd	;wreg free
  3084  001CD6  C003  F180         	movff	?___fladd,powf@t1
  3085  001CDA  C004  F181         	movff	?___fladd+1,powf@t1+1
  3086  001CDE  C005  F182         	movff	?___fladd+2,powf@t1+2
  3087  001CE2  C006  F183         	movff	?___fladd+3,powf@t1+3
  3088  001CE6  C180  F1B8         	movff	powf@t1,powf@__xc8_float_word
  3089  001CEA  C181  F1B9         	movff	powf@t1+1,powf@__xc8_float_word+1
  3090  001CEE  C182  F1BA         	movff	powf@t1+2,powf@__xc8_float_word+2
  3091  001CF2  C183  F1BB         	movff	powf@t1+3,powf@__xc8_float_word+3
  3092  001CF6  C1B8  F194         	movff	powf@__xc8_float_word,powf@is
  3093  001CFA  C1B9  F195         	movff	powf@__xc8_float_word+1,powf@is+1
  3094  001CFE  C1BA  F196         	movff	powf@__xc8_float_word+2,powf@is+2
  3095  001D02  C1BB  F197         	movff	powf@__xc8_float_word+3,powf@is+3
  3096  001D06  0E00               	movlw	0
  3097  001D08  0101               	movlb	1	; () banked
  3098  001D0A  1594               	andwf	powf@is& (0+255),w,b
  3099  001D0C  6FB8               	movwf	powf@__xc8_float_word& (0+255),b
  3100  001D0E  0EF0               	movlw	240
  3101  001D10  1595               	andwf	(powf@is+1)& (0+255),w,b
  3102  001D12  6FB9               	movwf	(powf@__xc8_float_word+1)& (0+255),b
  3103  001D14  0EFF               	movlw	255
  3104  001D16  1596               	andwf	(powf@is+2)& (0+255),w,b
  3105  001D18  6FBA               	movwf	(powf@__xc8_float_word+2)& (0+255),b
  3106  001D1A  0EFF               	movlw	255
  3107  001D1C  1597               	andwf	(powf@is+3)& (0+255),w,b
  3108  001D1E  6FBB               	movwf	(powf@__xc8_float_word+3)& (0+255),b
  3109  001D20                     
  3110                           ; BSR set to: 1
  3111  001D20  C1B8  F180         	movff	powf@__xc8_float_word,powf@t1
  3112  001D24  C1B9  F181         	movff	powf@__xc8_float_word+1,powf@t1+1
  3113  001D28  C1BA  F182         	movff	powf@__xc8_float_word+2,powf@t1+2
  3114  001D2C  C1BB  F183         	movff	powf@__xc8_float_word+3,powf@t1+3
  3115  001D30                     
  3116                           ; BSR set to: 1
  3117  001D30  C174  F03E         	movff	powf@u,___flsub@a
  3118  001D34  C175  F03F         	movff	powf@u+1,___flsub@a+1
  3119  001D38  C176  F040         	movff	powf@u+2,___flsub@a+2
  3120  001D3C  C177  F041         	movff	powf@u+3,___flsub@a+3
  3121  001D40  C180  F03A         	movff	powf@t1,___flsub@b
  3122  001D44  C181  F03B         	movff	powf@t1+1,___flsub@b+1
  3123  001D48  C182  F03C         	movff	powf@t1+2,___flsub@b+2
  3124  001D4C  C183  F03D         	movff	powf@t1+3,___flsub@b+3
  3125  001D50  EC9A  F02B         	call	___flsub	;wreg free
  3126  001D54  C03A  F198         	movff	?___flsub,_powf$1347
  3127  001D58  C03B  F199         	movff	?___flsub+1,_powf$1347+1
  3128  001D5C  C03C  F19A         	movff	?___flsub+2,_powf$1347+2
  3129  001D60  C03D  F19B         	movff	?___flsub+3,_powf$1347+3
  3130  001D64  C178  F03A         	movff	powf@v,___flsub@b
  3131  001D68  C179  F03B         	movff	powf@v+1,___flsub@b+1
  3132  001D6C  C17A  F03C         	movff	powf@v+2,___flsub@b+2
  3133  001D70  C17B  F03D         	movff	powf@v+3,___flsub@b+3
  3134  001D74  C198  F03E         	movff	_powf$1347,___flsub@a
  3135  001D78  C199  F03F         	movff	_powf$1347+1,___flsub@a+1
  3136  001D7C  C19A  F040         	movff	_powf$1347+2,___flsub@a+2
  3137  001D80  C19B  F041         	movff	_powf$1347+3,___flsub@a+3
  3138  001D84  EC9A  F02B         	call	___flsub	;wreg free
  3139  001D88  C03A  F11C         	movff	?___flsub,powf@t2
  3140  001D8C  C03B  F11D         	movff	?___flsub+1,powf@t2+1
  3141  001D90  C03C  F11E         	movff	?___flsub+2,powf@t2+2
  3142  001D94  C03D  F11F         	movff	?___flsub+3,powf@t2+3
  3143  001D98  EF4E  F016         	goto	l5083
  3144  001D9C                     l4927:
  3145                           
  3146                           ; BSR set to: 1
  3147  001D9C  0E00               	movlw	0
  3148  001D9E  6F88               	movwf	powf@n& (0+255),b
  3149  001DA0  0E00               	movlw	0
  3150  001DA2  6F89               	movwf	(powf@n+1)& (0+255),b
  3151  001DA4  0E00               	movlw	0
  3152  001DA6  6F8A               	movwf	(powf@n+2)& (0+255),b
  3153  001DA8  0E00               	movlw	0
  3154  001DAA  6F8B               	movwf	(powf@n+3)& (0+255),b
  3155  001DAC                     
  3156                           ; BSR set to: 1
  3157  001DAC  BFAB               	btfsc	(powf@ix+3)& (0+255),7,b
  3158  001DAE  EFE4  F00E         	goto	u5460
  3159  001DB2  51AB               	movf	(powf@ix+3)& (0+255),w,b
  3160  001DB4  E107               	bnz	u5461
  3161  001DB6  0E80               	movlw	128
  3162  001DB8  5DAA               	subwf	(powf@ix+2)& (0+255),w,b
  3163  001DBA  B0D8               	btfsc	status,0,c
  3164  001DBC  EFE2  F00E         	goto	u5461
  3165  001DC0  EFE4  F00E         	goto	u5460
  3166  001DC4                     u5461:
  3167  001DC4  EF17  F00F         	goto	l4939
  3168  001DC8                     u5460:
  3169  001DC8                     
  3170                           ; BSR set to: 1
  3171  001DC8  C170  F013         	movff	powf@ax,___flmul@b
  3172  001DCC  C171  F014         	movff	powf@ax+1,___flmul@b+1
  3173  001DD0  C172  F015         	movff	powf@ax+2,___flmul@b+2
  3174  001DD4  C173  F016         	movff	powf@ax+3,___flmul@b+3
  3175  001DD8  0E00               	movlw	0
  3176  001DDA  6E17               	movwf	___flmul@a^0,c
  3177  001DDC  0E00               	movlw	0
  3178  001DDE  6E18               	movwf	(___flmul@a+1)^0,c
  3179  001DE0  0E80               	movlw	128
  3180  001DE2  6E19               	movwf	(___flmul@a+2)^0,c
  3181  001DE4  0E4B               	movlw	75
  3182  001DE6  6E1A               	movwf	(___flmul@a+3)^0,c
  3183  001DE8  EC19  F022         	call	___flmul	;wreg free
  3184  001DEC  C013  F170         	movff	?___flmul,powf@ax
  3185  001DF0  C014  F171         	movff	?___flmul+1,powf@ax+1
  3186  001DF4  C015  F172         	movff	?___flmul+2,powf@ax+2
  3187  001DF8  C016  F173         	movff	?___flmul+3,powf@ax+3
  3188  001DFC  0EE8               	movlw	232
  3189  001DFE  0101               	movlb	1	; () banked
  3190  001E00  2788               	addwf	powf@n& (0+255),f,b
  3191  001E02  0EFF               	movlw	255
  3192  001E04  2389               	addwfc	(powf@n+1)& (0+255),f,b
  3193  001E06  0EFF               	movlw	255
  3194  001E08  238A               	addwfc	(powf@n+2)& (0+255),f,b
  3195  001E0A  0EFF               	movlw	255
  3196  001E0C  238B               	addwfc	(powf@n+3)& (0+255),f,b
  3197  001E0E                     
  3198                           ; BSR set to: 1
  3199  001E0E  C170  F1B8         	movff	powf@ax,powf@__xc8_float_word
  3200  001E12  C171  F1B9         	movff	powf@ax+1,powf@__xc8_float_word+1
  3201  001E16  C172  F1BA         	movff	powf@ax+2,powf@__xc8_float_word+2
  3202  001E1A  C173  F1BB         	movff	powf@ax+3,powf@__xc8_float_word+3
  3203  001E1E                     
  3204                           ; BSR set to: 1
  3205  001E1E  C1B8  F1A8         	movff	powf@__xc8_float_word,powf@ix
  3206  001E22  C1B9  F1A9         	movff	powf@__xc8_float_word+1,powf@ix+1
  3207  001E26  C1BA  F1AA         	movff	powf@__xc8_float_word+2,powf@ix+2
  3208  001E2A  C1BB  F1AB         	movff	powf@__xc8_float_word+3,powf@ix+3
  3209  001E2E                     l4939:
  3210                           
  3211                           ; BSR set to: 1
  3212  001E2E  0E17               	movlw	23
  3213  001E30  0100               	movlb	0	; () banked
  3214  001E32  6F90               	movwf	??_powf& (0+255),b
  3215  001E34  C1A8  F091         	movff	powf@ix,??_powf+1
  3216  001E38  C1A9  F092         	movff	powf@ix+1,??_powf+2
  3217  001E3C  C1AA  F093         	movff	powf@ix+2,??_powf+3
  3218  001E40  C1AB  F094         	movff	powf@ix+3,??_powf+4
  3219  001E44                     u5475:
  3220  001E44  6790               	tstfsz	??_powf& (0+255),b
  3221  001E46  EF27  F00F         	goto	u5476
  3222  001E4A  EF2F  F00F         	goto	u5477
  3223  001E4E                     u5476:
  3224  001E4E  3594               	rlcf	(??_powf+4)& (0+255),w,b
  3225  001E50  3394               	rrcf	(??_powf+4)& (0+255),f,b
  3226  001E52  3393               	rrcf	(??_powf+3)& (0+255),f,b
  3227  001E54  3392               	rrcf	(??_powf+2)& (0+255),f,b
  3228  001E56  3391               	rrcf	(??_powf+1)& (0+255),f,b
  3229  001E58  2F90               	decfsz	??_powf& (0+255),f,b
  3230  001E5A  EF22  F00F         	goto	u5475
  3231  001E5E                     u5477:
  3232  001E5E  0E81               	movlw	129
  3233  001E60  0100               	movlb	0	; () banked
  3234  001E62  2591               	addwf	(??_powf+1)& (0+255),w,b
  3235  001E64  6F95               	movwf	(??_powf+5)& (0+255),b
  3236  001E66  0EFF               	movlw	255
  3237  001E68  2192               	addwfc	(??_powf+2)& (0+255),w,b
  3238  001E6A  6F96               	movwf	(??_powf+6)& (0+255),b
  3239  001E6C  0EFF               	movlw	255
  3240  001E6E  2193               	addwfc	(??_powf+3)& (0+255),w,b
  3241  001E70  6F97               	movwf	(??_powf+7)& (0+255),b
  3242  001E72  0EFF               	movlw	255
  3243  001E74  2194               	addwfc	(??_powf+4)& (0+255),w,b
  3244  001E76  6F98               	movwf	(??_powf+8)& (0+255),b
  3245  001E78  5195               	movf	(??_powf+5)& (0+255),w,b
  3246  001E7A  0101               	movlb	1	; () banked
  3247  001E7C  2788               	addwf	powf@n& (0+255),f,b
  3248  001E7E  0100               	movlb	0	; () banked
  3249  001E80  5196               	movf	(??_powf+6)& (0+255),w,b
  3250  001E82  0101               	movlb	1	; () banked
  3251  001E84  2389               	addwfc	(powf@n+1)& (0+255),f,b
  3252  001E86  0100               	movlb	0	; () banked
  3253  001E88  5197               	movf	(??_powf+7)& (0+255),w,b
  3254  001E8A  0101               	movlb	1	; () banked
  3255  001E8C  238A               	addwfc	(powf@n+2)& (0+255),f,b
  3256  001E8E  0100               	movlb	0	; () banked
  3257  001E90  5198               	movf	(??_powf+8)& (0+255),w,b
  3258  001E92  0101               	movlb	1	; () banked
  3259  001E94  238B               	addwfc	(powf@n+3)& (0+255),f,b
  3260  001E96                     
  3261                           ; BSR set to: 1
  3262  001E96  0EFF               	movlw	255
  3263  001E98  15A8               	andwf	powf@ix& (0+255),w,b
  3264  001E9A  6FAC               	movwf	powf@j& (0+255),b
  3265  001E9C  0EFF               	movlw	255
  3266  001E9E  15A9               	andwf	(powf@ix+1)& (0+255),w,b
  3267  001EA0  6FAD               	movwf	(powf@j+1)& (0+255),b
  3268  001EA2  0E7F               	movlw	127
  3269  001EA4  15AA               	andwf	(powf@ix+2)& (0+255),w,b
  3270  001EA6  6FAE               	movwf	(powf@j+2)& (0+255),b
  3271  001EA8  0E00               	movlw	0
  3272  001EAA  15AB               	andwf	(powf@ix+3)& (0+255),w,b
  3273  001EAC  6FAF               	movwf	(powf@j+3)& (0+255),b
  3274  001EAE                     
  3275                           ; BSR set to: 1
  3276  001EAE  0E00               	movlw	0
  3277  001EB0  11AC               	iorwf	powf@j& (0+255),w,b
  3278  001EB2  6FA8               	movwf	powf@ix& (0+255),b
  3279  001EB4  0E00               	movlw	0
  3280  001EB6  11AD               	iorwf	(powf@j+1)& (0+255),w,b
  3281  001EB8  6FA9               	movwf	(powf@ix+1)& (0+255),b
  3282  001EBA  0E80               	movlw	128
  3283  001EBC  11AE               	iorwf	(powf@j+2)& (0+255),w,b
  3284  001EBE  6FAA               	movwf	(powf@ix+2)& (0+255),b
  3285  001EC0  0E3F               	movlw	63
  3286  001EC2  11AF               	iorwf	(powf@j+3)& (0+255),w,b
  3287  001EC4  6FAB               	movwf	(powf@ix+3)& (0+255),b
  3288  001EC6                     
  3289                           ; BSR set to: 1
  3290  001EC6  BFAF               	btfsc	(powf@j+3)& (0+255),7,b
  3291  001EC8  EF75  F00F         	goto	u5480
  3292  001ECC  51AF               	movf	(powf@j+3)& (0+255),w,b
  3293  001ECE  E10B               	bnz	u5481
  3294  001ED0  0E72               	movlw	114
  3295  001ED2  5DAC               	subwf	powf@j& (0+255),w,b
  3296  001ED4  0EC4               	movlw	196
  3297  001ED6  59AD               	subwfb	(powf@j+1)& (0+255),w,b
  3298  001ED8  0E1C               	movlw	28
  3299  001EDA  59AE               	subwfb	(powf@j+2)& (0+255),w,b
  3300  001EDC  B0D8               	btfsc	status,0,c
  3301  001EDE  EF73  F00F         	goto	u5481
  3302  001EE2  EF75  F00F         	goto	u5480
  3303  001EE6                     u5481:
  3304  001EE6  EF7F  F00F         	goto	l4949
  3305  001EEA                     u5480:
  3306  001EEA                     
  3307                           ; BSR set to: 1
  3308  001EEA  0E00               	movlw	0
  3309  001EEC  6FA0               	movwf	powf@k& (0+255),b
  3310  001EEE  0E00               	movlw	0
  3311  001EF0  6FA1               	movwf	(powf@k+1)& (0+255),b
  3312  001EF2  0E00               	movlw	0
  3313  001EF4  6FA2               	movwf	(powf@k+2)& (0+255),b
  3314  001EF6  0E00               	movlw	0
  3315  001EF8  6FA3               	movwf	(powf@k+3)& (0+255),b
  3316  001EFA  EFB1  F00F         	goto	l4959
  3317  001EFE                     l4949:
  3318                           
  3319                           ; BSR set to: 1
  3320  001EFE  BFAF               	btfsc	(powf@j+3)& (0+255),7,b
  3321  001F00  EF91  F00F         	goto	u5490
  3322  001F04  51AF               	movf	(powf@j+3)& (0+255),w,b
  3323  001F06  E10B               	bnz	u5491
  3324  001F08  0ED7               	movlw	215
  3325  001F0A  5DAC               	subwf	powf@j& (0+255),w,b
  3326  001F0C  0EB3               	movlw	179
  3327  001F0E  59AD               	subwfb	(powf@j+1)& (0+255),w,b
  3328  001F10  0E5D               	movlw	93
  3329  001F12  59AE               	subwfb	(powf@j+2)& (0+255),w,b
  3330  001F14  B0D8               	btfsc	status,0,c
  3331  001F16  EF8F  F00F         	goto	u5491
  3332  001F1A  EF91  F00F         	goto	u5490
  3333  001F1E                     u5491:
  3334  001F1E  EF9B  F00F         	goto	l4953
  3335  001F22                     u5490:
  3336  001F22                     
  3337                           ; BSR set to: 1
  3338  001F22  0E01               	movlw	1
  3339  001F24  6FA0               	movwf	powf@k& (0+255),b
  3340  001F26  0E00               	movlw	0
  3341  001F28  6FA1               	movwf	(powf@k+1)& (0+255),b
  3342  001F2A  0E00               	movlw	0
  3343  001F2C  6FA2               	movwf	(powf@k+2)& (0+255),b
  3344  001F2E  0E00               	movlw	0
  3345  001F30  6FA3               	movwf	(powf@k+3)& (0+255),b
  3346  001F32  EFB1  F00F         	goto	l4959
  3347  001F36                     l4953:
  3348                           
  3349                           ; BSR set to: 1
  3350  001F36  0E00               	movlw	0
  3351  001F38  6FA0               	movwf	powf@k& (0+255),b
  3352  001F3A  0E00               	movlw	0
  3353  001F3C  6FA1               	movwf	(powf@k+1)& (0+255),b
  3354  001F3E  0E00               	movlw	0
  3355  001F40  6FA2               	movwf	(powf@k+2)& (0+255),b
  3356  001F42  0E00               	movlw	0
  3357  001F44  6FA3               	movwf	(powf@k+3)& (0+255),b
  3358  001F46                     
  3359                           ; BSR set to: 1
  3360  001F46  0E01               	movlw	1
  3361  001F48  2788               	addwf	powf@n& (0+255),f,b
  3362  001F4A  0E00               	movlw	0
  3363  001F4C  2389               	addwfc	(powf@n+1)& (0+255),f,b
  3364  001F4E  238A               	addwfc	(powf@n+2)& (0+255),f,b
  3365  001F50  238B               	addwfc	(powf@n+3)& (0+255),f,b
  3366  001F52                     
  3367                           ; BSR set to: 1
  3368  001F52  0E00               	movlw	0
  3369  001F54  27A8               	addwf	powf@ix& (0+255),f,b
  3370  001F56  0E00               	movlw	0
  3371  001F58  23A9               	addwfc	(powf@ix+1)& (0+255),f,b
  3372  001F5A  0E80               	movlw	128
  3373  001F5C  23AA               	addwfc	(powf@ix+2)& (0+255),f,b
  3374  001F5E  0EFF               	movlw	255
  3375  001F60  23AB               	addwfc	(powf@ix+3)& (0+255),f,b
  3376  001F62                     l4959:
  3377                           
  3378                           ; BSR set to: 1
  3379  001F62  C1A8  F1B8         	movff	powf@ix,powf@__xc8_float_word
  3380  001F66  C1A9  F1B9         	movff	powf@ix+1,powf@__xc8_float_word+1
  3381  001F6A  C1AA  F1BA         	movff	powf@ix+2,powf@__xc8_float_word+2
  3382  001F6E  C1AB  F1BB         	movff	powf@ix+3,powf@__xc8_float_word+3
  3383  001F72                     
  3384                           ; BSR set to: 1
  3385  001F72  C1B8  F170         	movff	powf@__xc8_float_word,powf@ax
  3386  001F76  C1B9  F171         	movff	powf@__xc8_float_word+1,powf@ax+1
  3387  001F7A  C1BA  F172         	movff	powf@__xc8_float_word+2,powf@ax+2
  3388  001F7E  C1BB  F173         	movff	powf@__xc8_float_word+3,powf@ax+3
  3389  001F82                     
  3390                           ; BSR set to: 1
  3391  001F82  C170  F03A         	movff	powf@ax,___flsub@b
  3392  001F86  C171  F03B         	movff	powf@ax+1,___flsub@b+1
  3393  001F8A  C172  F03C         	movff	powf@ax+2,___flsub@b+2
  3394  001F8E  C173  F03D         	movff	powf@ax+3,___flsub@b+3
  3395  001F92  C1A0  F090         	movff	powf@k,??_powf
  3396  001F96  C1A1  F091         	movff	powf@k+1,??_powf+1
  3397  001F9A  0100               	movlb	0	; () banked
  3398  001F9C  90D8               	bcf	status,0,c
  3399  001F9E  3790               	rlcf	??_powf& (0+255),f,b
  3400  001FA0  3791               	rlcf	(??_powf+1)& (0+255),f,b
  3401  001FA2  90D8               	bcf	status,0,c
  3402  001FA4  3790               	rlcf	??_powf& (0+255),f,b
  3403  001FA6  3791               	rlcf	(??_powf+1)& (0+255),f,b
  3404  001FA8  0E69               	movlw	low _bp
  3405  001FAA  2590               	addwf	??_powf& (0+255),w,b
  3406  001FAC  6EF6               	movwf	tblptrl,c
  3407  001FAE  0E10               	movlw	high _bp
  3408  001FB0  2191               	addwfc	(??_powf+1)& (0+255),w,b
  3409  001FB2  6EF7               	movwf	tblptrh,c
  3410  001FB4                     	if	1	;There are 3 active tblptr bytes
  3411  001FB4  6AF8               	clrf	tblptru,c
  3412  001FB6  0E00               	movlw	low (__mediumconst shr (0+16))
  3413  001FB8  22F8               	addwfc	tblptru,f,c
  3414  001FBA                     	endif
  3415  001FBA  0009               	tblrd		*+
  3416  001FBC  CFF5 F03E          	movff	tablat,___flsub@a
  3417  001FC0  0009               	tblrd		*+
  3418  001FC2  CFF5 F03F          	movff	tablat,___flsub@a+1
  3419  001FC6  0009               	tblrd		*+
  3420  001FC8  CFF5 F040          	movff	tablat,___flsub@a+2
  3421  001FCC  000A               	tblrd		*-
  3422  001FCE  CFF5 F041          	movff	tablat,___flsub@a+3
  3423  001FD2  EC9A  F02B         	call	___flsub	;wreg free
  3424  001FD6  C03A  F174         	movff	?___flsub,powf@u
  3425  001FDA  C03B  F175         	movff	?___flsub+1,powf@u+1
  3426  001FDE  C03C  F176         	movff	?___flsub+2,powf@u+2
  3427  001FE2  C03D  F177         	movff	?___flsub+3,powf@u+3
  3428  001FE6  0E00               	movlw	0
  3429  001FE8  6E42               	movwf	___fldiv@b^0,c
  3430  001FEA  0E00               	movlw	0
  3431  001FEC  6E43               	movwf	(___fldiv@b+1)^0,c
  3432  001FEE  0E80               	movlw	128
  3433  001FF0  6E44               	movwf	(___fldiv@b+2)^0,c
  3434  001FF2  0E3F               	movlw	63
  3435  001FF4  6E45               	movwf	(___fldiv@b+3)^0,c
  3436  001FF6  C170  F007         	movff	powf@ax,___fladd@a
  3437  001FFA  C171  F008         	movff	powf@ax+1,___fladd@a+1
  3438  001FFE  C172  F009         	movff	powf@ax+2,___fladd@a+2
  3439  002002  C173  F00A         	movff	powf@ax+3,___fladd@a+3
  3440  002006  C1A0  F090         	movff	powf@k,??_powf
  3441  00200A  C1A1  F091         	movff	powf@k+1,??_powf+1
  3442  00200E  0100               	movlb	0	; () banked
  3443  002010  90D8               	bcf	status,0,c
  3444  002012  3790               	rlcf	??_powf& (0+255),f,b
  3445  002014  3791               	rlcf	(??_powf+1)& (0+255),f,b
  3446  002016  90D8               	bcf	status,0,c
  3447  002018  3790               	rlcf	??_powf& (0+255),f,b
  3448  00201A  3791               	rlcf	(??_powf+1)& (0+255),f,b
  3449  00201C  0E69               	movlw	low _bp
  3450  00201E  2590               	addwf	??_powf& (0+255),w,b
  3451  002020  6EF6               	movwf	tblptrl,c
  3452  002022  0E10               	movlw	high _bp
  3453  002024  2191               	addwfc	(??_powf+1)& (0+255),w,b
  3454  002026  6EF7               	movwf	tblptrh,c
  3455  002028                     	if	1	;There are 3 active tblptr bytes
  3456  002028  6AF8               	clrf	tblptru,c
  3457  00202A  0E00               	movlw	low (__mediumconst shr (0+16))
  3458  00202C  22F8               	addwfc	tblptru,f,c
  3459  00202E                     	endif
  3460  00202E  0009               	tblrd		*+
  3461  002030  CFF5 F003          	movff	tablat,___fladd@b
  3462  002034  0009               	tblrd		*+
  3463  002036  CFF5 F004          	movff	tablat,___fladd@b+1
  3464  00203A  0009               	tblrd		*+
  3465  00203C  CFF5 F005          	movff	tablat,___fladd@b+2
  3466  002040  000A               	tblrd		*-
  3467  002042  CFF5 F006          	movff	tablat,___fladd@b+3
  3468  002046  ECB9  F01F         	call	___fladd	;wreg free
  3469  00204A  C003  F046         	movff	?___fladd,___fldiv@a
  3470  00204E  C004  F047         	movff	?___fladd+1,___fldiv@a+1
  3471  002052  C005  F048         	movff	?___fladd+2,___fldiv@a+2
  3472  002056  C006  F049         	movff	?___fladd+3,___fldiv@a+3
  3473  00205A  EC2E  F024         	call	___fldiv	;wreg free
  3474  00205E  C042  F178         	movff	?___fldiv,powf@v
  3475  002062  C043  F179         	movff	?___fldiv+1,powf@v+1
  3476  002066  C044  F17A         	movff	?___fldiv+2,powf@v+2
  3477  00206A  C045  F17B         	movff	?___fldiv+3,powf@v+3
  3478  00206E  C174  F013         	movff	powf@u,___flmul@b
  3479  002072  C175  F014         	movff	powf@u+1,___flmul@b+1
  3480  002076  C176  F015         	movff	powf@u+2,___flmul@b+2
  3481  00207A  C177  F016         	movff	powf@u+3,___flmul@b+3
  3482  00207E  C178  F017         	movff	powf@v,___flmul@a
  3483  002082  C179  F018         	movff	powf@v+1,___flmul@a+1
  3484  002086  C17A  F019         	movff	powf@v+2,___flmul@a+2
  3485  00208A  C17B  F01A         	movff	powf@v+3,___flmul@a+3
  3486  00208E  EC19  F022         	call	___flmul	;wreg free
  3487  002092  C013  F154         	movff	?___flmul,powf@s
  3488  002096  C014  F155         	movff	?___flmul+1,powf@s+1
  3489  00209A  C015  F156         	movff	?___flmul+2,powf@s+2
  3490  00209E  C016  F157         	movff	?___flmul+3,powf@s+3
  3491  0020A2  C154  F16C         	movff	powf@s,powf@s_h
  3492  0020A6  C155  F16D         	movff	powf@s+1,powf@s_h+1
  3493  0020AA  C156  F16E         	movff	powf@s+2,powf@s_h+2
  3494  0020AE  C157  F16F         	movff	powf@s+3,powf@s_h+3
  3495  0020B2  C16C  F1B8         	movff	powf@s_h,powf@__xc8_float_word
  3496  0020B6  C16D  F1B9         	movff	powf@s_h+1,powf@__xc8_float_word+1
  3497  0020BA  C16E  F1BA         	movff	powf@s_h+2,powf@__xc8_float_word+2
  3498  0020BE  C16F  F1BB         	movff	powf@s_h+3,powf@__xc8_float_word+3
  3499  0020C2  C1B8  F194         	movff	powf@__xc8_float_word,powf@is
  3500  0020C6  C1B9  F195         	movff	powf@__xc8_float_word+1,powf@is+1
  3501  0020CA  C1BA  F196         	movff	powf@__xc8_float_word+2,powf@is+2
  3502  0020CE  C1BB  F197         	movff	powf@__xc8_float_word+3,powf@is+3
  3503  0020D2  0E00               	movlw	0
  3504  0020D4  0101               	movlb	1	; () banked
  3505  0020D6  1594               	andwf	powf@is& (0+255),w,b
  3506  0020D8  6FB8               	movwf	powf@__xc8_float_word& (0+255),b
  3507  0020DA  0EF0               	movlw	240
  3508  0020DC  1595               	andwf	(powf@is+1)& (0+255),w,b
  3509  0020DE  6FB9               	movwf	(powf@__xc8_float_word+1)& (0+255),b
  3510  0020E0  0EFF               	movlw	255
  3511  0020E2  1596               	andwf	(powf@is+2)& (0+255),w,b
  3512  0020E4  6FBA               	movwf	(powf@__xc8_float_word+2)& (0+255),b
  3513  0020E6  0EFF               	movlw	255
  3514  0020E8  1597               	andwf	(powf@is+3)& (0+255),w,b
  3515  0020EA  6FBB               	movwf	(powf@__xc8_float_word+3)& (0+255),b
  3516  0020EC                     
  3517                           ; BSR set to: 1
  3518  0020EC  C1B8  F16C         	movff	powf@__xc8_float_word,powf@s_h
  3519  0020F0  C1B9  F16D         	movff	powf@__xc8_float_word+1,powf@s_h+1
  3520  0020F4  C1BA  F16E         	movff	powf@__xc8_float_word+2,powf@s_h+2
  3521  0020F8  C1BB  F16F         	movff	powf@__xc8_float_word+3,powf@s_h+3
  3522  0020FC                     
  3523                           ; BSR set to: 1
  3524  0020FC  C1A8  F090         	movff	powf@ix,??_powf
  3525  002100  C1A9  F091         	movff	powf@ix+1,??_powf+1
  3526  002104  C1AA  F092         	movff	powf@ix+2,??_powf+2
  3527  002108  C1AB  F093         	movff	powf@ix+3,??_powf+3
  3528  00210C  0100               	movlb	0	; () banked
  3529  00210E  3593               	rlcf	(??_powf+3)& (0+255),w,b
  3530  002110  3393               	rrcf	(??_powf+3)& (0+255),f,b
  3531  002112  3392               	rrcf	(??_powf+2)& (0+255),f,b
  3532  002114  3391               	rrcf	(??_powf+1)& (0+255),f,b
  3533  002116  3390               	rrcf	??_powf& (0+255),f,b
  3534  002118  0E00               	movlw	0
  3535  00211A  1590               	andwf	??_powf& (0+255),w,b
  3536  00211C  6F94               	movwf	(??_powf+4)& (0+255),b
  3537  00211E  0EF0               	movlw	240
  3538  002120  1591               	andwf	(??_powf+1)& (0+255),w,b
  3539  002122  6F95               	movwf	(??_powf+5)& (0+255),b
  3540  002124  0EFF               	movlw	255
  3541  002126  1592               	andwf	(??_powf+2)& (0+255),w,b
  3542  002128  6F96               	movwf	(??_powf+6)& (0+255),b
  3543  00212A  0EFF               	movlw	255
  3544  00212C  1593               	andwf	(??_powf+3)& (0+255),w,b
  3545  00212E  6F97               	movwf	(??_powf+7)& (0+255),b
  3546  002130  0E00               	movlw	0
  3547  002132  1194               	iorwf	(??_powf+4)& (0+255),w,b
  3548  002134  0101               	movlb	1	; () banked
  3549  002136  6F94               	movwf	powf@is& (0+255),b
  3550  002138  0E00               	movlw	0
  3551  00213A  0100               	movlb	0	; () banked
  3552  00213C  1195               	iorwf	(??_powf+5)& (0+255),w,b
  3553  00213E  0101               	movlb	1	; () banked
  3554  002140  6F95               	movwf	(powf@is+1)& (0+255),b
  3555  002142  0E00               	movlw	0
  3556  002144  0100               	movlb	0	; () banked
  3557  002146  1196               	iorwf	(??_powf+6)& (0+255),w,b
  3558  002148  0101               	movlb	1	; () banked
  3559  00214A  6F96               	movwf	(powf@is+2)& (0+255),b
  3560  00214C  0E20               	movlw	32
  3561  00214E  0100               	movlb	0	; () banked
  3562  002150  1197               	iorwf	(??_powf+7)& (0+255),w,b
  3563  002152  0101               	movlb	1	; () banked
  3564  002154  6F97               	movwf	(powf@is+3)& (0+255),b
  3565  002156                     
  3566                           ; BSR set to: 1
  3567  002156  C1A0  F090         	movff	powf@k,??_powf
  3568  00215A  C1A1  F091         	movff	powf@k+1,??_powf+1
  3569  00215E  C1A2  F092         	movff	powf@k+2,??_powf+2
  3570  002162  C1A3  F093         	movff	powf@k+3,??_powf+3
  3571  002166  0E15               	movlw	21
  3572  002168                     u5505:
  3573  002168  90D8               	bcf	status,0,c
  3574  00216A  0100               	movlb	0	; () banked
  3575  00216C  3790               	rlcf	??_powf& (0+255),f,b
  3576  00216E  3791               	rlcf	(??_powf+1)& (0+255),f,b
  3577  002170  3792               	rlcf	(??_powf+2)& (0+255),f,b
  3578  002172  3793               	rlcf	(??_powf+3)& (0+255),f,b
  3579  002174  2EE8               	decfsz	wreg,f,c
  3580  002176  EFB4  F010         	goto	u5505
  3581  00217A  0101               	movlb	1	; () banked
  3582  00217C  5194               	movf	powf@is& (0+255),w,b
  3583  00217E  0100               	movlb	0	; () banked
  3584  002180  2590               	addwf	??_powf& (0+255),w,b
  3585  002182  6F94               	movwf	(??_powf+4)& (0+255),b
  3586  002184  0101               	movlb	1	; () banked
  3587  002186  5195               	movf	(powf@is+1)& (0+255),w,b
  3588  002188  0100               	movlb	0	; () banked
  3589  00218A  2191               	addwfc	(??_powf+1)& (0+255),w,b
  3590  00218C  6F95               	movwf	(??_powf+5)& (0+255),b
  3591  00218E  0101               	movlb	1	; () banked
  3592  002190  5196               	movf	(powf@is+2)& (0+255),w,b
  3593  002192  0100               	movlb	0	; () banked
  3594  002194  2192               	addwfc	(??_powf+2)& (0+255),w,b
  3595  002196  6F96               	movwf	(??_powf+6)& (0+255),b
  3596  002198  0101               	movlb	1	; () banked
  3597  00219A  5197               	movf	(powf@is+3)& (0+255),w,b
  3598  00219C  0100               	movlb	0	; () banked
  3599  00219E  2193               	addwfc	(??_powf+3)& (0+255),w,b
  3600  0021A0  6F97               	movwf	(??_powf+7)& (0+255),b
  3601  0021A2  0E00               	movlw	0
  3602  0021A4  2594               	addwf	(??_powf+4)& (0+255),w,b
  3603  0021A6  0101               	movlb	1	; () banked
  3604  0021A8  6FB8               	movwf	powf@__xc8_float_word& (0+255),b
  3605  0021AA  0E00               	movlw	0
  3606  0021AC  0100               	movlb	0	; () banked
  3607  0021AE  2195               	addwfc	(??_powf+5)& (0+255),w,b
  3608  0021B0  0101               	movlb	1	; () banked
  3609  0021B2  6FB9               	movwf	(powf@__xc8_float_word+1)& (0+255),b
  3610  0021B4  0E40               	movlw	64
  3611  0021B6  0100               	movlb	0	; () banked
  3612  0021B8  2196               	addwfc	(??_powf+6)& (0+255),w,b
  3613  0021BA  0101               	movlb	1	; () banked
  3614  0021BC  6FBA               	movwf	(powf@__xc8_float_word+2)& (0+255),b
  3615  0021BE  0E00               	movlw	0
  3616  0021C0  0100               	movlb	0	; () banked
  3617  0021C2  2197               	addwfc	(??_powf+7)& (0+255),w,b
  3618  0021C4  0101               	movlb	1	; () banked
  3619  0021C6  6FBB               	movwf	(powf@__xc8_float_word+3)& (0+255),b
  3620  0021C8                     
  3621                           ; BSR set to: 1
  3622  0021C8  C1B8  F168         	movff	powf@__xc8_float_word,powf@t_h
  3623  0021CC  C1B9  F169         	movff	powf@__xc8_float_word+1,powf@t_h+1
  3624  0021D0  C1BA  F16A         	movff	powf@__xc8_float_word+2,powf@t_h+2
  3625  0021D4  C1BB  F16B         	movff	powf@__xc8_float_word+3,powf@t_h+3
  3626  0021D8                     
  3627                           ; BSR set to: 1
  3628  0021D8  C1A0  F090         	movff	powf@k,??_powf
  3629  0021DC  C1A1  F091         	movff	powf@k+1,??_powf+1
  3630  0021E0  0100               	movlb	0	; () banked
  3631  0021E2  90D8               	bcf	status,0,c
  3632  0021E4  3790               	rlcf	??_powf& (0+255),f,b
  3633  0021E6  3791               	rlcf	(??_powf+1)& (0+255),f,b
  3634  0021E8  90D8               	bcf	status,0,c
  3635  0021EA  3790               	rlcf	??_powf& (0+255),f,b
  3636  0021EC  3791               	rlcf	(??_powf+1)& (0+255),f,b
  3637  0021EE  0E69               	movlw	low _bp
  3638  0021F0  2590               	addwf	??_powf& (0+255),w,b
  3639  0021F2  6EF6               	movwf	tblptrl,c
  3640  0021F4  0E10               	movlw	high _bp
  3641  0021F6  2191               	addwfc	(??_powf+1)& (0+255),w,b
  3642  0021F8  6EF7               	movwf	tblptrh,c
  3643  0021FA                     	if	1	;There are 3 active tblptr bytes
  3644  0021FA  6AF8               	clrf	tblptru,c
  3645  0021FC  0E00               	movlw	low (__mediumconst shr (0+16))
  3646  0021FE  22F8               	addwfc	tblptru,f,c
  3647  002200                     	endif
  3648  002200  0009               	tblrd		*+
  3649  002202  CFF5 F03E          	movff	tablat,___flsub@a
  3650  002206  0009               	tblrd		*+
  3651  002208  CFF5 F03F          	movff	tablat,___flsub@a+1
  3652  00220C  0009               	tblrd		*+
  3653  00220E  CFF5 F040          	movff	tablat,___flsub@a+2
  3654  002212  000A               	tblrd		*-
  3655  002214  CFF5 F041          	movff	tablat,___flsub@a+3
  3656  002218  C168  F03A         	movff	powf@t_h,___flsub@b
  3657  00221C  C169  F03B         	movff	powf@t_h+1,___flsub@b+1
  3658  002220  C16A  F03C         	movff	powf@t_h+2,___flsub@b+2
  3659  002224  C16B  F03D         	movff	powf@t_h+3,___flsub@b+3
  3660  002228  EC9A  F02B         	call	___flsub	;wreg free
  3661  00222C  C03A  F198         	movff	?___flsub,_powf$1347
  3662  002230  C03B  F199         	movff	?___flsub+1,_powf$1347+1
  3663  002234  C03C  F19A         	movff	?___flsub+2,_powf$1347+2
  3664  002238  C03D  F19B         	movff	?___flsub+3,_powf$1347+3
  3665  00223C  C170  F03A         	movff	powf@ax,___flsub@b
  3666  002240  C171  F03B         	movff	powf@ax+1,___flsub@b+1
  3667  002244  C172  F03C         	movff	powf@ax+2,___flsub@b+2
  3668  002248  C173  F03D         	movff	powf@ax+3,___flsub@b+3
  3669  00224C  C198  F03E         	movff	_powf$1347,___flsub@a
  3670  002250  C199  F03F         	movff	_powf$1347+1,___flsub@a+1
  3671  002254  C19A  F040         	movff	_powf$1347+2,___flsub@a+2
  3672  002258  C19B  F041         	movff	_powf$1347+3,___flsub@a+3
  3673  00225C  EC9A  F02B         	call	___flsub	;wreg free
  3674  002260  C03A  F134         	movff	?___flsub,powf@t_l
  3675  002264  C03B  F135         	movff	?___flsub+1,powf@t_l+1
  3676  002268  C03C  F136         	movff	?___flsub+2,powf@t_l+2
  3677  00226C  C03D  F137         	movff	?___flsub+3,powf@t_l+3
  3678  002270  C168  F017         	movff	powf@t_h,___flmul@a
  3679  002274  C169  F018         	movff	powf@t_h+1,___flmul@a+1
  3680  002278  C16A  F019         	movff	powf@t_h+2,___flmul@a+2
  3681  00227C  C16B  F01A         	movff	powf@t_h+3,___flmul@a+3
  3682  002280  C16C  F013         	movff	powf@s_h,___flmul@b
  3683  002284  C16D  F014         	movff	powf@s_h+1,___flmul@b+1
  3684  002288  C16E  F015         	movff	powf@s_h+2,___flmul@b+2
  3685  00228C  C16F  F016         	movff	powf@s_h+3,___flmul@b+3
  3686  002290  EC19  F022         	call	___flmul	;wreg free
  3687  002294  C013  F03E         	movff	?___flmul,___flsub@a
  3688  002298  C014  F03F         	movff	?___flmul+1,___flsub@a+1
  3689  00229C  C015  F040         	movff	?___flmul+2,___flsub@a+2
  3690  0022A0  C016  F041         	movff	?___flmul+3,___flsub@a+3
  3691  0022A4  C174  F03A         	movff	powf@u,___flsub@b
  3692  0022A8  C175  F03B         	movff	powf@u+1,___flsub@b+1
  3693  0022AC  C176  F03C         	movff	powf@u+2,___flsub@b+2
  3694  0022B0  C177  F03D         	movff	powf@u+3,___flsub@b+3
  3695  0022B4  EC9A  F02B         	call	___flsub	;wreg free
  3696  0022B8  C03A  F198         	movff	?___flsub,_powf$1347
  3697  0022BC  C03B  F199         	movff	?___flsub+1,_powf$1347+1
  3698  0022C0  C03C  F19A         	movff	?___flsub+2,_powf$1347+2
  3699  0022C4  C03D  F19B         	movff	?___flsub+3,_powf$1347+3
  3700  0022C8  C134  F017         	movff	powf@t_l,___flmul@a
  3701  0022CC  C135  F018         	movff	powf@t_l+1,___flmul@a+1
  3702  0022D0  C136  F019         	movff	powf@t_l+2,___flmul@a+2
  3703  0022D4  C137  F01A         	movff	powf@t_l+3,___flmul@a+3
  3704  0022D8  C16C  F013         	movff	powf@s_h,___flmul@b
  3705  0022DC  C16D  F014         	movff	powf@s_h+1,___flmul@b+1
  3706  0022E0  C16E  F015         	movff	powf@s_h+2,___flmul@b+2
  3707  0022E4  C16F  F016         	movff	powf@s_h+3,___flmul@b+3
  3708  0022E8  EC19  F022         	call	___flmul	;wreg free
  3709  0022EC  C013  F03E         	movff	?___flmul,___flsub@a
  3710  0022F0  C014  F03F         	movff	?___flmul+1,___flsub@a+1
  3711  0022F4  C015  F040         	movff	?___flmul+2,___flsub@a+2
  3712  0022F8  C016  F041         	movff	?___flmul+3,___flsub@a+3
  3713  0022FC  C198  F03A         	movff	_powf$1347,___flsub@b
  3714  002300  C199  F03B         	movff	_powf$1347+1,___flsub@b+1
  3715  002304  C19A  F03C         	movff	_powf$1347+2,___flsub@b+2
  3716  002308  C19B  F03D         	movff	_powf$1347+3,___flsub@b+3
  3717  00230C  EC9A  F02B         	call	___flsub	;wreg free
  3718  002310  C03A  F158         	movff	?___flsub,_powf$1345
  3719  002314  C03B  F159         	movff	?___flsub+1,_powf$1345+1
  3720  002318  C03C  F15A         	movff	?___flsub+2,_powf$1345+2
  3721  00231C  C03D  F15B         	movff	?___flsub+3,_powf$1345+3
  3722  002320  C158  F013         	movff	_powf$1345,___flmul@b
  3723  002324  C159  F014         	movff	_powf$1345+1,___flmul@b+1
  3724  002328  C15A  F015         	movff	_powf$1345+2,___flmul@b+2
  3725  00232C  C15B  F016         	movff	_powf$1345+3,___flmul@b+3
  3726  002330  C178  F017         	movff	powf@v,___flmul@a
  3727  002334  C179  F018         	movff	powf@v+1,___flmul@a+1
  3728  002338  C17A  F019         	movff	powf@v+2,___flmul@a+2
  3729  00233C  C17B  F01A         	movff	powf@v+3,___flmul@a+3
  3730  002340  EC19  F022         	call	___flmul	;wreg free
  3731  002344  C013  F130         	movff	?___flmul,powf@s_l
  3732  002348  C014  F131         	movff	?___flmul+1,powf@s_l+1
  3733  00234C  C015  F132         	movff	?___flmul+2,powf@s_l+2
  3734  002350  C016  F133         	movff	?___flmul+3,powf@s_l+3
  3735  002354  C154  F013         	movff	powf@s,___flmul@b
  3736  002358  C155  F014         	movff	powf@s+1,___flmul@b+1
  3737  00235C  C156  F015         	movff	powf@s+2,___flmul@b+2
  3738  002360  C157  F016         	movff	powf@s+3,___flmul@b+3
  3739  002364  C154  F017         	movff	powf@s,___flmul@a
  3740  002368  C155  F018         	movff	powf@s+1,___flmul@a+1
  3741  00236C  C156  F019         	movff	powf@s+2,___flmul@a+2
  3742  002370  C157  F01A         	movff	powf@s+3,___flmul@a+3
  3743  002374  EC19  F022         	call	___flmul	;wreg free
  3744  002378  C013  F18C         	movff	?___flmul,powf@s2
  3745  00237C  C014  F18D         	movff	?___flmul+1,powf@s2+1
  3746  002380  C015  F18E         	movff	?___flmul+2,powf@s2+2
  3747  002384  C016  F18F         	movff	?___flmul+3,powf@s2+3
  3748  002388  0E55               	movlw	85
  3749  00238A  6E07               	movwf	___fladd@a^0,c
  3750  00238C  0E32               	movlw	50
  3751  00238E  6E08               	movwf	(___fladd@a+1)^0,c
  3752  002390  0E6C               	movlw	108
  3753  002392  6E09               	movwf	(___fladd@a+2)^0,c
  3754  002394  0E3E               	movlw	62
  3755  002396  6E0A               	movwf	(___fladd@a+3)^0,c
  3756  002398  0E42               	movlw	66
  3757  00239A  6E17               	movwf	___flmul@a^0,c
  3758  00239C  0EF1               	movlw	241
  3759  00239E  6E18               	movwf	(___flmul@a+1)^0,c
  3760  0023A0  0E53               	movlw	83
  3761  0023A2  6E19               	movwf	(___flmul@a+2)^0,c
  3762  0023A4  0E3E               	movlw	62
  3763  0023A6  6E1A               	movwf	(___flmul@a+3)^0,c
  3764  0023A8  C18C  F013         	movff	powf@s2,___flmul@b
  3765  0023AC  C18D  F014         	movff	powf@s2+1,___flmul@b+1
  3766  0023B0  C18E  F015         	movff	powf@s2+2,___flmul@b+2
  3767  0023B4  C18F  F016         	movff	powf@s2+3,___flmul@b+3
  3768  0023B8  EC19  F022         	call	___flmul	;wreg free
  3769  0023BC  C013  F003         	movff	?___flmul,___fladd@b
  3770  0023C0  C014  F004         	movff	?___flmul+1,___fladd@b+1
  3771  0023C4  C015  F005         	movff	?___flmul+2,___fladd@b+2
  3772  0023C8  C016  F006         	movff	?___flmul+3,___fladd@b+3
  3773  0023CC  ECB9  F01F         	call	___fladd	;wreg free
  3774  0023D0  C003  F1A4         	movff	?___fladd,_powf$1344
  3775  0023D4  C004  F1A5         	movff	?___fladd+1,_powf$1344+1
  3776  0023D8  C005  F1A6         	movff	?___fladd+2,_powf$1344+2
  3777  0023DC  C006  F1A7         	movff	?___fladd+3,_powf$1344+3
  3778  0023E0  0E05               	movlw	5
  3779  0023E2  6E07               	movwf	___fladd@a^0,c
  3780  0023E4  0EA3               	movlw	163
  3781  0023E6  6E08               	movwf	(___fladd@a+1)^0,c
  3782  0023E8  0E8B               	movlw	139
  3783  0023EA  6E09               	movwf	(___fladd@a+2)^0,c
  3784  0023EC  0E3E               	movlw	62
  3785  0023EE  6E0A               	movwf	(___fladd@a+3)^0,c
  3786  0023F0  C18C  F017         	movff	powf@s2,___flmul@a
  3787  0023F4  C18D  F018         	movff	powf@s2+1,___flmul@a+1
  3788  0023F8  C18E  F019         	movff	powf@s2+2,___flmul@a+2
  3789  0023FC  C18F  F01A         	movff	powf@s2+3,___flmul@a+3
  3790  002400  C1A4  F013         	movff	_powf$1344,___flmul@b
  3791  002404  C1A5  F014         	movff	_powf$1344+1,___flmul@b+1
  3792  002408  C1A6  F015         	movff	_powf$1344+2,___flmul@b+2
  3793  00240C  C1A7  F016         	movff	_powf$1344+3,___flmul@b+3
  3794  002410  EC19  F022         	call	___flmul	;wreg free
  3795  002414  C013  F003         	movff	?___flmul,___fladd@b
  3796  002418  C014  F004         	movff	?___flmul+1,___fladd@b+1
  3797  00241C  C015  F005         	movff	?___flmul+2,___fladd@b+2
  3798  002420  C016  F006         	movff	?___flmul+3,___fladd@b+3
  3799  002424  ECB9  F01F         	call	___fladd	;wreg free
  3800  002428  C003  F158         	movff	?___fladd,_powf$1345
  3801  00242C  C004  F159         	movff	?___fladd+1,_powf$1345+1
  3802  002430  C005  F15A         	movff	?___fladd+2,_powf$1345+2
  3803  002434  C006  F15B         	movff	?___fladd+3,_powf$1345+3
  3804  002438  0EAB               	movlw	171
  3805  00243A  6E07               	movwf	___fladd@a^0,c
  3806  00243C  0EAA               	movlw	170
  3807  00243E  6E08               	movwf	(___fladd@a+1)^0,c
  3808  002440  0EAA               	movlw	170
  3809  002442  6E09               	movwf	(___fladd@a+2)^0,c
  3810  002444  0E3E               	movlw	62
  3811  002446  6E0A               	movwf	(___fladd@a+3)^0,c
  3812  002448  C18C  F017         	movff	powf@s2,___flmul@a
  3813  00244C  C18D  F018         	movff	powf@s2+1,___flmul@a+1
  3814  002450  C18E  F019         	movff	powf@s2+2,___flmul@a+2
  3815  002454  C18F  F01A         	movff	powf@s2+3,___flmul@a+3
  3816  002458  C158  F013         	movff	_powf$1345,___flmul@b
  3817  00245C  C159  F014         	movff	_powf$1345+1,___flmul@b+1
  3818  002460  C15A  F015         	movff	_powf$1345+2,___flmul@b+2
  3819  002464  C15B  F016         	movff	_powf$1345+3,___flmul@b+3
  3820  002468  EC19  F022         	call	___flmul	;wreg free
  3821  00246C  C013  F003         	movff	?___flmul,___fladd@b
  3822  002470  C014  F004         	movff	?___flmul+1,___fladd@b+1
  3823  002474  C015  F005         	movff	?___flmul+2,___fladd@b+2
  3824  002478  C016  F006         	movff	?___flmul+3,___fladd@b+3
  3825  00247C  ECB9  F01F         	call	___fladd	;wreg free
  3826  002480  C003  F148         	movff	?___fladd,_powf$1346
  3827  002484  C004  F149         	movff	?___fladd+1,_powf$1346+1
  3828  002488  C005  F14A         	movff	?___fladd+2,_powf$1346+2
  3829  00248C  C006  F14B         	movff	?___fladd+3,_powf$1346+3
  3830  002490  0EB7               	movlw	183
  3831  002492  6E07               	movwf	___fladd@a^0,c
  3832  002494  0E6D               	movlw	109
  3833  002496  6E08               	movwf	(___fladd@a+1)^0,c
  3834  002498  0EDB               	movlw	219
  3835  00249A  6E09               	movwf	(___fladd@a+2)^0,c
  3836  00249C  0E3E               	movlw	62
  3837  00249E  6E0A               	movwf	(___fladd@a+3)^0,c
  3838  0024A0  C18C  F017         	movff	powf@s2,___flmul@a
  3839  0024A4  C18D  F018         	movff	powf@s2+1,___flmul@a+1
  3840  0024A8  C18E  F019         	movff	powf@s2+2,___flmul@a+2
  3841  0024AC  C18F  F01A         	movff	powf@s2+3,___flmul@a+3
  3842  0024B0  C148  F013         	movff	_powf$1346,___flmul@b
  3843  0024B4  C149  F014         	movff	_powf$1346+1,___flmul@b+1
  3844  0024B8  C14A  F015         	movff	_powf$1346+2,___flmul@b+2
  3845  0024BC  C14B  F016         	movff	_powf$1346+3,___flmul@b+3
  3846  0024C0  EC19  F022         	call	___flmul	;wreg free
  3847  0024C4  C013  F003         	movff	?___flmul,___fladd@b
  3848  0024C8  C014  F004         	movff	?___flmul+1,___fladd@b+1
  3849  0024CC  C015  F005         	movff	?___flmul+2,___fladd@b+2
  3850  0024D0  C016  F006         	movff	?___flmul+3,___fladd@b+3
  3851  0024D4  ECB9  F01F         	call	___fladd	;wreg free
  3852  0024D8  C003  F138         	movff	?___fladd,_powf$1348
  3853  0024DC  C004  F139         	movff	?___fladd+1,_powf$1348+1
  3854  0024E0  C005  F13A         	movff	?___fladd+2,_powf$1348+2
  3855  0024E4  C006  F13B         	movff	?___fladd+3,_powf$1348+3
  3856  0024E8  0E9A               	movlw	154
  3857  0024EA  6E07               	movwf	___fladd@a^0,c
  3858  0024EC  0E99               	movlw	153
  3859  0024EE  6E08               	movwf	(___fladd@a+1)^0,c
  3860  0024F0  0E19               	movlw	25
  3861  0024F2  6E09               	movwf	(___fladd@a+2)^0,c
  3862  0024F4  0E3F               	movlw	63
  3863  0024F6  6E0A               	movwf	(___fladd@a+3)^0,c
  3864  0024F8  C18C  F017         	movff	powf@s2,___flmul@a
  3865  0024FC  C18D  F018         	movff	powf@s2+1,___flmul@a+1
  3866  002500  C18E  F019         	movff	powf@s2+2,___flmul@a+2
  3867  002504  C18F  F01A         	movff	powf@s2+3,___flmul@a+3
  3868  002508  C138  F013         	movff	_powf$1348,___flmul@b
  3869  00250C  C139  F014         	movff	_powf$1348+1,___flmul@b+1
  3870  002510  C13A  F015         	movff	_powf$1348+2,___flmul@b+2
  3871  002514  C13B  F016         	movff	_powf$1348+3,___flmul@b+3
  3872  002518  EC19  F022         	call	___flmul	;wreg free
  3873  00251C  C013  F003         	movff	?___flmul,___fladd@b
  3874  002520  C014  F004         	movff	?___flmul+1,___fladd@b+1
  3875  002524  C015  F005         	movff	?___flmul+2,___fladd@b+2
  3876  002528  C016  F006         	movff	?___flmul+3,___fladd@b+3
  3877  00252C  ECB9  F01F         	call	___fladd	;wreg free
  3878  002530  C003  F100         	movff	?___fladd,_powf$1349
  3879  002534  C004  F101         	movff	?___fladd+1,_powf$1349+1
  3880  002538  C005  F102         	movff	?___fladd+2,_powf$1349+2
  3881  00253C  C006  F103         	movff	?___fladd+3,_powf$1349+3
  3882  002540  C18C  F017         	movff	powf@s2,___flmul@a
  3883  002544  C18D  F018         	movff	powf@s2+1,___flmul@a+1
  3884  002548  C18E  F019         	movff	powf@s2+2,___flmul@a+2
  3885  00254C  C18F  F01A         	movff	powf@s2+3,___flmul@a+3
  3886  002550  C18C  F013         	movff	powf@s2,___flmul@b
  3887  002554  C18D  F014         	movff	powf@s2+1,___flmul@b+1
  3888  002558  C18E  F015         	movff	powf@s2+2,___flmul@b+2
  3889  00255C  C18F  F016         	movff	powf@s2+3,___flmul@b+3
  3890  002560  EC19  F022         	call	___flmul	;wreg free
  3891  002564  C013  F104         	movff	?___flmul,_powf$1350
  3892  002568  C014  F105         	movff	?___flmul+1,_powf$1350+1
  3893  00256C  C015  F106         	movff	?___flmul+2,_powf$1350+2
  3894  002570  C016  F107         	movff	?___flmul+3,_powf$1350+3
  3895  002574  C100  F013         	movff	_powf$1349,___flmul@b
  3896  002578  C101  F014         	movff	_powf$1349+1,___flmul@b+1
  3897  00257C  C102  F015         	movff	_powf$1349+2,___flmul@b+2
  3898  002580  C103  F016         	movff	_powf$1349+3,___flmul@b+3
  3899  002584  C104  F017         	movff	_powf$1350,___flmul@a
  3900  002588  C105  F018         	movff	_powf$1350+1,___flmul@a+1
  3901  00258C  C106  F019         	movff	_powf$1350+2,___flmul@a+2
  3902  002590  C107  F01A         	movff	_powf$1350+3,___flmul@a+3
  3903  002594  EC19  F022         	call	___flmul	;wreg free
  3904  002598  C013  F14C         	movff	?___flmul,powf@r
  3905  00259C  C014  F14D         	movff	?___flmul+1,powf@r+1
  3906  0025A0  C015  F14E         	movff	?___flmul+2,powf@r+2
  3907  0025A4  C016  F14F         	movff	?___flmul+3,powf@r+3
  3908  0025A8  C130  F017         	movff	powf@s_l,___flmul@a
  3909  0025AC  C131  F018         	movff	powf@s_l+1,___flmul@a+1
  3910  0025B0  C132  F019         	movff	powf@s_l+2,___flmul@a+2
  3911  0025B4  C133  F01A         	movff	powf@s_l+3,___flmul@a+3
  3912  0025B8  C154  F007         	movff	powf@s,___fladd@a
  3913  0025BC  C155  F008         	movff	powf@s+1,___fladd@a+1
  3914  0025C0  C156  F009         	movff	powf@s+2,___fladd@a+2
  3915  0025C4  C157  F00A         	movff	powf@s+3,___fladd@a+3
  3916  0025C8  C16C  F003         	movff	powf@s_h,___fladd@b
  3917  0025CC  C16D  F004         	movff	powf@s_h+1,___fladd@b+1
  3918  0025D0  C16E  F005         	movff	powf@s_h+2,___fladd@b+2
  3919  0025D4  C16F  F006         	movff	powf@s_h+3,___fladd@b+3
  3920  0025D8  ECB9  F01F         	call	___fladd	;wreg free
  3921  0025DC  C003  F013         	movff	?___fladd,___flmul@b
  3922  0025E0  C004  F014         	movff	?___fladd+1,___flmul@b+1
  3923  0025E4  C005  F015         	movff	?___fladd+2,___flmul@b+2
  3924  0025E8  C006  F016         	movff	?___fladd+3,___flmul@b+3
  3925  0025EC  EC19  F022         	call	___flmul	;wreg free
  3926  0025F0  C013  F15C         	movff	?___flmul,_powf$1351
  3927  0025F4  C014  F15D         	movff	?___flmul+1,_powf$1351+1
  3928  0025F8  C015  F15E         	movff	?___flmul+2,_powf$1351+2
  3929  0025FC  C016  F15F         	movff	?___flmul+3,_powf$1351+3
  3930  002600  C14C  F003         	movff	powf@r,___fladd@b
  3931  002604  C14D  F004         	movff	powf@r+1,___fladd@b+1
  3932  002608  C14E  F005         	movff	powf@r+2,___fladd@b+2
  3933  00260C  C14F  F006         	movff	powf@r+3,___fladd@b+3
  3934  002610  C15C  F007         	movff	_powf$1351,___fladd@a
  3935  002614  C15D  F008         	movff	_powf$1351+1,___fladd@a+1
  3936  002618  C15E  F009         	movff	_powf$1351+2,___fladd@a+2
  3937  00261C  C15F  F00A         	movff	_powf$1351+3,___fladd@a+3
  3938  002620  ECB9  F01F         	call	___fladd	;wreg free
  3939  002624  C003  F14C         	movff	?___fladd,powf@r
  3940  002628  C004  F14D         	movff	?___fladd+1,powf@r+1
  3941  00262C  C005  F14E         	movff	?___fladd+2,powf@r+2
  3942  002630  C006  F14F         	movff	?___fladd+3,powf@r+3
  3943  002634  C16C  F013         	movff	powf@s_h,___flmul@b
  3944  002638  C16D  F014         	movff	powf@s_h+1,___flmul@b+1
  3945  00263C  C16E  F015         	movff	powf@s_h+2,___flmul@b+2
  3946  002640  C16F  F016         	movff	powf@s_h+3,___flmul@b+3
  3947  002644  C16C  F017         	movff	powf@s_h,___flmul@a
  3948  002648  C16D  F018         	movff	powf@s_h+1,___flmul@a+1
  3949  00264C  C16E  F019         	movff	powf@s_h+2,___flmul@a+2
  3950  002650  C16F  F01A         	movff	powf@s_h+3,___flmul@a+3
  3951  002654  EC19  F022         	call	___flmul	;wreg free
  3952  002658  C013  F18C         	movff	?___flmul,powf@s2
  3953  00265C  C014  F18D         	movff	?___flmul+1,powf@s2+1
  3954  002660  C015  F18E         	movff	?___flmul+2,powf@s2+2
  3955  002664  C016  F18F         	movff	?___flmul+3,powf@s2+3
  3956  002668  0E00               	movlw	0
  3957  00266A  6E07               	movwf	___fladd@a^0,c
  3958  00266C  0E00               	movlw	0
  3959  00266E  6E08               	movwf	(___fladd@a+1)^0,c
  3960  002670  0E40               	movlw	64
  3961  002672  6E09               	movwf	(___fladd@a+2)^0,c
  3962  002674  0E40               	movlw	64
  3963  002676  6E0A               	movwf	(___fladd@a+3)^0,c
  3964  002678  C18C  F003         	movff	powf@s2,___fladd@b
  3965  00267C  C18D  F004         	movff	powf@s2+1,___fladd@b+1
  3966  002680  C18E  F005         	movff	powf@s2+2,___fladd@b+2
  3967  002684  C18F  F006         	movff	powf@s2+3,___fladd@b+3
  3968  002688  ECB9  F01F         	call	___fladd	;wreg free
  3969  00268C  C003  F15C         	movff	?___fladd,_powf$1351
  3970  002690  C004  F15D         	movff	?___fladd+1,_powf$1351+1
  3971  002694  C005  F15E         	movff	?___fladd+2,_powf$1351+2
  3972  002698  C006  F15F         	movff	?___fladd+3,_powf$1351+3
  3973  00269C  C15C  F003         	movff	_powf$1351,___fladd@b
  3974  0026A0  C15D  F004         	movff	_powf$1351+1,___fladd@b+1
  3975  0026A4  C15E  F005         	movff	_powf$1351+2,___fladd@b+2
  3976  0026A8  C15F  F006         	movff	_powf$1351+3,___fladd@b+3
  3977  0026AC  C14C  F007         	movff	powf@r,___fladd@a
  3978  0026B0  C14D  F008         	movff	powf@r+1,___fladd@a+1
  3979  0026B4  C14E  F009         	movff	powf@r+2,___fladd@a+2
  3980  0026B8  C14F  F00A         	movff	powf@r+3,___fladd@a+3
  3981  0026BC  ECB9  F01F         	call	___fladd	;wreg free
  3982  0026C0  C003  F168         	movff	?___fladd,powf@t_h
  3983  0026C4  C004  F169         	movff	?___fladd+1,powf@t_h+1
  3984  0026C8  C005  F16A         	movff	?___fladd+2,powf@t_h+2
  3985  0026CC  C006  F16B         	movff	?___fladd+3,powf@t_h+3
  3986  0026D0  C168  F1B8         	movff	powf@t_h,powf@__xc8_float_word
  3987  0026D4  C169  F1B9         	movff	powf@t_h+1,powf@__xc8_float_word+1
  3988  0026D8  C16A  F1BA         	movff	powf@t_h+2,powf@__xc8_float_word+2
  3989  0026DC  C16B  F1BB         	movff	powf@t_h+3,powf@__xc8_float_word+3
  3990  0026E0  C1B8  F194         	movff	powf@__xc8_float_word,powf@is
  3991  0026E4  C1B9  F195         	movff	powf@__xc8_float_word+1,powf@is+1
  3992  0026E8  C1BA  F196         	movff	powf@__xc8_float_word+2,powf@is+2
  3993  0026EC  C1BB  F197         	movff	powf@__xc8_float_word+3,powf@is+3
  3994  0026F0  0E00               	movlw	0
  3995  0026F2  0101               	movlb	1	; () banked
  3996  0026F4  1594               	andwf	powf@is& (0+255),w,b
  3997  0026F6  6FB8               	movwf	powf@__xc8_float_word& (0+255),b
  3998  0026F8  0EF0               	movlw	240
  3999  0026FA  1595               	andwf	(powf@is+1)& (0+255),w,b
  4000  0026FC  6FB9               	movwf	(powf@__xc8_float_word+1)& (0+255),b
  4001  0026FE  0EFF               	movlw	255
  4002  002700  1596               	andwf	(powf@is+2)& (0+255),w,b
  4003  002702  6FBA               	movwf	(powf@__xc8_float_word+2)& (0+255),b
  4004  002704  0EFF               	movlw	255
  4005  002706  1597               	andwf	(powf@is+3)& (0+255),w,b
  4006  002708  6FBB               	movwf	(powf@__xc8_float_word+3)& (0+255),b
  4007  00270A                     
  4008                           ; BSR set to: 1
  4009  00270A  C1B8  F168         	movff	powf@__xc8_float_word,powf@t_h
  4010  00270E  C1B9  F169         	movff	powf@__xc8_float_word+1,powf@t_h+1
  4011  002712  C1BA  F16A         	movff	powf@__xc8_float_word+2,powf@t_h+2
  4012  002716  C1BB  F16B         	movff	powf@__xc8_float_word+3,powf@t_h+3
  4013  00271A                     
  4014                           ; BSR set to: 1
  4015  00271A  0E00               	movlw	0
  4016  00271C  6E07               	movwf	___fladd@a^0,c
  4017  00271E  0E00               	movlw	0
  4018  002720  6E08               	movwf	(___fladd@a+1)^0,c
  4019  002722  0E40               	movlw	64
  4020  002724  6E09               	movwf	(___fladd@a+2)^0,c
  4021  002726  0EC0               	movlw	192
  4022  002728  6E0A               	movwf	(___fladd@a+3)^0,c
  4023  00272A  C168  F003         	movff	powf@t_h,___fladd@b
  4024  00272E  C169  F004         	movff	powf@t_h+1,___fladd@b+1
  4025  002732  C16A  F005         	movff	powf@t_h+2,___fladd@b+2
  4026  002736  C16B  F006         	movff	powf@t_h+3,___fladd@b+3
  4027  00273A  ECB9  F01F         	call	___fladd	;wreg free
  4028  00273E  C003  F13C         	movff	?___fladd,_powf$1352
  4029  002742  C004  F13D         	movff	?___fladd+1,_powf$1352+1
  4030  002746  C005  F13E         	movff	?___fladd+2,_powf$1352+2
  4031  00274A  C006  F13F         	movff	?___fladd+3,_powf$1352+3
  4032  00274E  C18C  F03E         	movff	powf@s2,___flsub@a
  4033  002752  C18D  F03F         	movff	powf@s2+1,___flsub@a+1
  4034  002756  C18E  F040         	movff	powf@s2+2,___flsub@a+2
  4035  00275A  C18F  F041         	movff	powf@s2+3,___flsub@a+3
  4036  00275E  C13C  F03A         	movff	_powf$1352,___flsub@b
  4037  002762  C13D  F03B         	movff	_powf$1352+1,___flsub@b+1
  4038  002766  C13E  F03C         	movff	_powf$1352+2,___flsub@b+2
  4039  00276A  C13F  F03D         	movff	_powf$1352+3,___flsub@b+3
  4040  00276E  EC9A  F02B         	call	___flsub	;wreg free
  4041  002772  C03A  F140         	movff	?___flsub,_powf$1353
  4042  002776  C03B  F141         	movff	?___flsub+1,_powf$1353+1
  4043  00277A  C03C  F142         	movff	?___flsub+2,_powf$1353+2
  4044  00277E  C03D  F143         	movff	?___flsub+3,_powf$1353+3
  4045  002782  C14C  F03A         	movff	powf@r,___flsub@b
  4046  002786  C14D  F03B         	movff	powf@r+1,___flsub@b+1
  4047  00278A  C14E  F03C         	movff	powf@r+2,___flsub@b+2
  4048  00278E  C14F  F03D         	movff	powf@r+3,___flsub@b+3
  4049  002792  C140  F03E         	movff	_powf$1353,___flsub@a
  4050  002796  C141  F03F         	movff	_powf$1353+1,___flsub@a+1
  4051  00279A  C142  F040         	movff	_powf$1353+2,___flsub@a+2
  4052  00279E  C143  F041         	movff	_powf$1353+3,___flsub@a+3
  4053  0027A2  EC9A  F02B         	call	___flsub	;wreg free
  4054  0027A6  C03A  F134         	movff	?___flsub,powf@t_l
  4055  0027AA  C03B  F135         	movff	?___flsub+1,powf@t_l+1
  4056  0027AE  C03C  F136         	movff	?___flsub+2,powf@t_l+2
  4057  0027B2  C03D  F137         	movff	?___flsub+3,powf@t_l+3
  4058  0027B6  C16C  F013         	movff	powf@s_h,___flmul@b
  4059  0027BA  C16D  F014         	movff	powf@s_h+1,___flmul@b+1
  4060  0027BE  C16E  F015         	movff	powf@s_h+2,___flmul@b+2
  4061  0027C2  C16F  F016         	movff	powf@s_h+3,___flmul@b+3
  4062  0027C6  C168  F017         	movff	powf@t_h,___flmul@a
  4063  0027CA  C169  F018         	movff	powf@t_h+1,___flmul@a+1
  4064  0027CE  C16A  F019         	movff	powf@t_h+2,___flmul@a+2
  4065  0027D2  C16B  F01A         	movff	powf@t_h+3,___flmul@a+3
  4066  0027D6  EC19  F022         	call	___flmul	;wreg free
  4067  0027DA  C013  F174         	movff	?___flmul,powf@u
  4068  0027DE  C014  F175         	movff	?___flmul+1,powf@u+1
  4069  0027E2  C015  F176         	movff	?___flmul+2,powf@u+2
  4070  0027E6  C016  F177         	movff	?___flmul+3,powf@u+3
  4071  0027EA  C168  F017         	movff	powf@t_h,___flmul@a
  4072  0027EE  C169  F018         	movff	powf@t_h+1,___flmul@a+1
  4073  0027F2  C16A  F019         	movff	powf@t_h+2,___flmul@a+2
  4074  0027F6  C16B  F01A         	movff	powf@t_h+3,___flmul@a+3
  4075  0027FA  C130  F013         	movff	powf@s_l,___flmul@b
  4076  0027FE  C131  F014         	movff	powf@s_l+1,___flmul@b+1
  4077  002802  C132  F015         	movff	powf@s_l+2,___flmul@b+2
  4078  002806  C133  F016         	movff	powf@s_l+3,___flmul@b+3
  4079  00280A  EC19  F022         	call	___flmul	;wreg free
  4080  00280E  C013  F003         	movff	?___flmul,___fladd@b
  4081  002812  C014  F004         	movff	?___flmul+1,___fladd@b+1
  4082  002816  C015  F005         	movff	?___flmul+2,___fladd@b+2
  4083  00281A  C016  F006         	movff	?___flmul+3,___fladd@b+3
  4084  00281E  C154  F017         	movff	powf@s,___flmul@a
  4085  002822  C155  F018         	movff	powf@s+1,___flmul@a+1
  4086  002826  C156  F019         	movff	powf@s+2,___flmul@a+2
  4087  00282A  C157  F01A         	movff	powf@s+3,___flmul@a+3
  4088  00282E  C134  F013         	movff	powf@t_l,___flmul@b
  4089  002832  C135  F014         	movff	powf@t_l+1,___flmul@b+1
  4090  002836  C136  F015         	movff	powf@t_l+2,___flmul@b+2
  4091  00283A  C137  F016         	movff	powf@t_l+3,___flmul@b+3
  4092  00283E  EC19  F022         	call	___flmul	;wreg free
  4093  002842  C013  F007         	movff	?___flmul,___fladd@a
  4094  002846  C014  F008         	movff	?___flmul+1,___fladd@a+1
  4095  00284A  C015  F009         	movff	?___flmul+2,___fladd@a+2
  4096  00284E  C016  F00A         	movff	?___flmul+3,___fladd@a+3
  4097  002852  ECB9  F01F         	call	___fladd	;wreg free
  4098  002856  C003  F178         	movff	?___fladd,powf@v
  4099  00285A  C004  F179         	movff	?___fladd+1,powf@v+1
  4100  00285E  C005  F17A         	movff	?___fladd+2,powf@v+2
  4101  002862  C006  F17B         	movff	?___fladd+3,powf@v+3
  4102  002866  C174  F003         	movff	powf@u,___fladd@b
  4103  00286A  C175  F004         	movff	powf@u+1,___fladd@b+1
  4104  00286E  C176  F005         	movff	powf@u+2,___fladd@b+2
  4105  002872  C177  F006         	movff	powf@u+3,___fladd@b+3
  4106  002876  C178  F007         	movff	powf@v,___fladd@a
  4107  00287A  C179  F008         	movff	powf@v+1,___fladd@a+1
  4108  00287E  C17A  F009         	movff	powf@v+2,___fladd@a+2
  4109  002882  C17B  F00A         	movff	powf@v+3,___fladd@a+3
  4110  002886  ECB9  F01F         	call	___fladd	;wreg free
  4111  00288A  C003  F19C         	movff	?___fladd,powf@p_h
  4112  00288E  C004  F19D         	movff	?___fladd+1,powf@p_h+1
  4113  002892  C005  F19E         	movff	?___fladd+2,powf@p_h+2
  4114  002896  C006  F19F         	movff	?___fladd+3,powf@p_h+3
  4115  00289A  C19C  F1B8         	movff	powf@p_h,powf@__xc8_float_word
  4116  00289E  C19D  F1B9         	movff	powf@p_h+1,powf@__xc8_float_word+1
  4117  0028A2  C19E  F1BA         	movff	powf@p_h+2,powf@__xc8_float_word+2
  4118  0028A6  C19F  F1BB         	movff	powf@p_h+3,powf@__xc8_float_word+3
  4119  0028AA  C1B8  F194         	movff	powf@__xc8_float_word,powf@is
  4120  0028AE  C1B9  F195         	movff	powf@__xc8_float_word+1,powf@is+1
  4121  0028B2  C1BA  F196         	movff	powf@__xc8_float_word+2,powf@is+2
  4122  0028B6  C1BB  F197         	movff	powf@__xc8_float_word+3,powf@is+3
  4123  0028BA  0E00               	movlw	0
  4124  0028BC  0101               	movlb	1	; () banked
  4125  0028BE  1594               	andwf	powf@is& (0+255),w,b
  4126  0028C0  6FB8               	movwf	powf@__xc8_float_word& (0+255),b
  4127  0028C2  0EF0               	movlw	240
  4128  0028C4  1595               	andwf	(powf@is+1)& (0+255),w,b
  4129  0028C6  6FB9               	movwf	(powf@__xc8_float_word+1)& (0+255),b
  4130  0028C8  0EFF               	movlw	255
  4131  0028CA  1596               	andwf	(powf@is+2)& (0+255),w,b
  4132  0028CC  6FBA               	movwf	(powf@__xc8_float_word+2)& (0+255),b
  4133  0028CE  0EFF               	movlw	255
  4134  0028D0  1597               	andwf	(powf@is+3)& (0+255),w,b
  4135  0028D2  6FBB               	movwf	(powf@__xc8_float_word+3)& (0+255),b
  4136  0028D4                     
  4137                           ; BSR set to: 1
  4138  0028D4  C1B8  F19C         	movff	powf@__xc8_float_word,powf@p_h
  4139  0028D8  C1B9  F19D         	movff	powf@__xc8_float_word+1,powf@p_h+1
  4140  0028DC  C1BA  F19E         	movff	powf@__xc8_float_word+2,powf@p_h+2
  4141  0028E0  C1BB  F19F         	movff	powf@__xc8_float_word+3,powf@p_h+3
  4142  0028E4                     
  4143                           ; BSR set to: 1
  4144  0028E4  C174  F03E         	movff	powf@u,___flsub@a
  4145  0028E8  C175  F03F         	movff	powf@u+1,___flsub@a+1
  4146  0028EC  C176  F040         	movff	powf@u+2,___flsub@a+2
  4147  0028F0  C177  F041         	movff	powf@u+3,___flsub@a+3
  4148  0028F4  C19C  F03A         	movff	powf@p_h,___flsub@b
  4149  0028F8  C19D  F03B         	movff	powf@p_h+1,___flsub@b+1
  4150  0028FC  C19E  F03C         	movff	powf@p_h+2,___flsub@b+2
  4151  002900  C19F  F03D         	movff	powf@p_h+3,___flsub@b+3
  4152  002904  EC9A  F02B         	call	___flsub	;wreg free
  4153  002908  C03A  F198         	movff	?___flsub,_powf$1347
  4154  00290C  C03B  F199         	movff	?___flsub+1,_powf$1347+1
  4155  002910  C03C  F19A         	movff	?___flsub+2,_powf$1347+2
  4156  002914  C03D  F19B         	movff	?___flsub+3,_powf$1347+3
  4157  002918  C178  F03A         	movff	powf@v,___flsub@b
  4158  00291C  C179  F03B         	movff	powf@v+1,___flsub@b+1
  4159  002920  C17A  F03C         	movff	powf@v+2,___flsub@b+2
  4160  002924  C17B  F03D         	movff	powf@v+3,___flsub@b+3
  4161  002928  C198  F03E         	movff	_powf$1347,___flsub@a
  4162  00292C  C199  F03F         	movff	_powf$1347+1,___flsub@a+1
  4163  002930  C19A  F040         	movff	_powf$1347+2,___flsub@a+2
  4164  002934  C19B  F041         	movff	_powf$1347+3,___flsub@a+3
  4165  002938  EC9A  F02B         	call	___flsub	;wreg free
  4166  00293C  C03A  F164         	movff	?___flsub,powf@p_l
  4167  002940  C03B  F165         	movff	?___flsub+1,powf@p_l+1
  4168  002944  C03C  F166         	movff	?___flsub+2,powf@p_l+2
  4169  002948  C03D  F167         	movff	?___flsub+3,powf@p_l+3
  4170  00294C  C19C  F013         	movff	powf@p_h,___flmul@b
  4171  002950  C19D  F014         	movff	powf@p_h+1,___flmul@b+1
  4172  002954  C19E  F015         	movff	powf@p_h+2,___flmul@b+2
  4173  002958  C19F  F016         	movff	powf@p_h+3,___flmul@b+3
  4174  00295C  0E00               	movlw	0
  4175  00295E  6E17               	movwf	___flmul@a^0,c
  4176  002960  0E40               	movlw	64
  4177  002962  6E18               	movwf	(___flmul@a+1)^0,c
  4178  002964  0E76               	movlw	118
  4179  002966  6E19               	movwf	(___flmul@a+2)^0,c
  4180  002968  0E3F               	movlw	63
  4181  00296A  6E1A               	movwf	(___flmul@a+3)^0,c
  4182  00296C  EC19  F022         	call	___flmul	;wreg free
  4183  002970  C013  F120         	movff	?___flmul,powf@z_h
  4184  002974  C014  F121         	movff	?___flmul+1,powf@z_h+1
  4185  002978  C015  F122         	movff	?___flmul+2,powf@z_h+2
  4186  00297C  C016  F123         	movff	?___flmul+3,powf@z_h+3
  4187  002980  0E4F               	movlw	79
  4188  002982  6E17               	movwf	___flmul@a^0,c
  4189  002984  0E38               	movlw	56
  4190  002986  6E18               	movwf	(___flmul@a+1)^0,c
  4191  002988  0E76               	movlw	118
  4192  00298A  6E19               	movwf	(___flmul@a+2)^0,c
  4193  00298C  0E3F               	movlw	63
  4194  00298E  6E1A               	movwf	(___flmul@a+3)^0,c
  4195  002990  C164  F013         	movff	powf@p_l,___flmul@b
  4196  002994  C165  F014         	movff	powf@p_l+1,___flmul@b+1
  4197  002998  C166  F015         	movff	powf@p_l+2,___flmul@b+2
  4198  00299C  C167  F016         	movff	powf@p_l+3,___flmul@b+3
  4199  0029A0  EC19  F022         	call	___flmul	;wreg free
  4200  0029A4  C013  F007         	movff	?___flmul,___fladd@a
  4201  0029A8  C014  F008         	movff	?___flmul+1,___fladd@a+1
  4202  0029AC  C015  F009         	movff	?___flmul+2,___fladd@a+2
  4203  0029B0  C016  F00A         	movff	?___flmul+3,___fladd@a+3
  4204  0029B4  0EC6               	movlw	198
  4205  0029B6  6E17               	movwf	___flmul@a^0,c
  4206  0029B8  0E23               	movlw	35
  4207  0029BA  6E18               	movwf	(___flmul@a+1)^0,c
  4208  0029BC  0EF6               	movlw	246
  4209  0029BE  6E19               	movwf	(___flmul@a+2)^0,c
  4210  0029C0  0EB8               	movlw	184
  4211  0029C2  6E1A               	movwf	(___flmul@a+3)^0,c
  4212  0029C4  C19C  F013         	movff	powf@p_h,___flmul@b
  4213  0029C8  C19D  F014         	movff	powf@p_h+1,___flmul@b+1
  4214  0029CC  C19E  F015         	movff	powf@p_h+2,___flmul@b+2
  4215  0029D0  C19F  F016         	movff	powf@p_h+3,___flmul@b+3
  4216  0029D4  EC19  F022         	call	___flmul	;wreg free
  4217  0029D8  C013  F003         	movff	?___flmul,___fladd@b
  4218  0029DC  C014  F004         	movff	?___flmul+1,___fladd@b+1
  4219  0029E0  C015  F005         	movff	?___flmul+2,___fladd@b+2
  4220  0029E4  C016  F006         	movff	?___flmul+3,___fladd@b+3
  4221  0029E8  ECB9  F01F         	call	___fladd	;wreg free
  4222  0029EC  C003  F15C         	movff	?___fladd,_powf$1351
  4223  0029F0  C004  F15D         	movff	?___fladd+1,_powf$1351+1
  4224  0029F4  C005  F15E         	movff	?___fladd+2,_powf$1351+2
  4225  0029F8  C006  F15F         	movff	?___fladd+3,_powf$1351+3
  4226  0029FC  C15C  F003         	movff	_powf$1351,___fladd@b
  4227  002A00  C15D  F004         	movff	_powf$1351+1,___fladd@b+1
  4228  002A04  C15E  F005         	movff	_powf$1351+2,___fladd@b+2
  4229  002A08  C15F  F006         	movff	_powf$1351+3,___fladd@b+3
  4230  002A0C  C1A0  F090         	movff	powf@k,??_powf
  4231  002A10  C1A1  F091         	movff	powf@k+1,??_powf+1
  4232  002A14  0100               	movlb	0	; () banked
  4233  002A16  90D8               	bcf	status,0,c
  4234  002A18  3790               	rlcf	??_powf& (0+255),f,b
  4235  002A1A  3791               	rlcf	(??_powf+1)& (0+255),f,b
  4236  002A1C  90D8               	bcf	status,0,c
  4237  002A1E  3790               	rlcf	??_powf& (0+255),f,b
  4238  002A20  3791               	rlcf	(??_powf+1)& (0+255),f,b
  4239  002A22  0E01               	movlw	low _dp_l
  4240  002A24  2590               	addwf	??_powf& (0+255),w,b
  4241  002A26  6EF6               	movwf	tblptrl,c
  4242  002A28  0E10               	movlw	high _dp_l
  4243  002A2A  2191               	addwfc	(??_powf+1)& (0+255),w,b
  4244  002A2C  6EF7               	movwf	tblptrh,c
  4245  002A2E                     	if	1	;There are 3 active tblptr bytes
  4246  002A2E  6AF8               	clrf	tblptru,c
  4247  002A30  0E00               	movlw	low (__mediumconst shr (0+16))
  4248  002A32  22F8               	addwfc	tblptru,f,c
  4249  002A34                     	endif
  4250  002A34  0009               	tblrd		*+
  4251  002A36  CFF5 F007          	movff	tablat,___fladd@a
  4252  002A3A  0009               	tblrd		*+
  4253  002A3C  CFF5 F008          	movff	tablat,___fladd@a+1
  4254  002A40  0009               	tblrd		*+
  4255  002A42  CFF5 F009          	movff	tablat,___fladd@a+2
  4256  002A46  000A               	tblrd		*-
  4257  002A48  CFF5 F00A          	movff	tablat,___fladd@a+3
  4258  002A4C  ECB9  F01F         	call	___fladd	;wreg free
  4259  002A50  C003  F124         	movff	?___fladd,powf@z_l
  4260  002A54  C004  F125         	movff	?___fladd+1,powf@z_l+1
  4261  002A58  C005  F126         	movff	?___fladd+2,powf@z_l+2
  4262  002A5C  C006  F127         	movff	?___fladd+3,powf@z_l+3
  4263  002A60  C188  F02C         	movff	powf@n,___xxtofl@val
  4264  002A64  C189  F02D         	movff	powf@n+1,___xxtofl@val+1
  4265  002A68  C18A  F02E         	movff	powf@n+2,___xxtofl@val+2
  4266  002A6C  C18B  F02F         	movff	powf@n+3,___xxtofl@val+3
  4267  002A70  0E01               	movlw	1
  4268  002A72  EC15  F027         	call	___xxtofl
  4269  002A76  C02C  F1B0         	movff	?___xxtofl,powf@t
  4270  002A7A  C02D  F1B1         	movff	?___xxtofl+1,powf@t+1
  4271  002A7E  C02E  F1B2         	movff	?___xxtofl+2,powf@t+2
  4272  002A82  C02F  F1B3         	movff	?___xxtofl+3,powf@t+3
  4273  002A86  C124  F007         	movff	powf@z_l,___fladd@a
  4274  002A8A  C125  F008         	movff	powf@z_l+1,___fladd@a+1
  4275  002A8E  C126  F009         	movff	powf@z_l+2,___fladd@a+2
  4276  002A92  C127  F00A         	movff	powf@z_l+3,___fladd@a+3
  4277  002A96  C120  F003         	movff	powf@z_h,___fladd@b
  4278  002A9A  C121  F004         	movff	powf@z_h+1,___fladd@b+1
  4279  002A9E  C122  F005         	movff	powf@z_h+2,___fladd@b+2
  4280  002AA2  C123  F006         	movff	powf@z_h+3,___fladd@b+3
  4281  002AA6  ECB9  F01F         	call	___fladd	;wreg free
  4282  002AAA  C003  F15C         	movff	?___fladd,_powf$1351
  4283  002AAE  C004  F15D         	movff	?___fladd+1,_powf$1351+1
  4284  002AB2  C005  F15E         	movff	?___fladd+2,_powf$1351+2
  4285  002AB6  C006  F15F         	movff	?___fladd+3,_powf$1351+3
  4286  002ABA  C1A0  F090         	movff	powf@k,??_powf
  4287  002ABE  C1A1  F091         	movff	powf@k+1,??_powf+1
  4288  002AC2  0100               	movlb	0	; () banked
  4289  002AC4  90D8               	bcf	status,0,c
  4290  002AC6  3790               	rlcf	??_powf& (0+255),f,b
  4291  002AC8  3791               	rlcf	(??_powf+1)& (0+255),f,b
  4292  002ACA  90D8               	bcf	status,0,c
  4293  002ACC  3790               	rlcf	??_powf& (0+255),f,b
  4294  002ACE  3791               	rlcf	(??_powf+1)& (0+255),f,b
  4295  002AD0  0E09               	movlw	low _dp_h
  4296  002AD2  2590               	addwf	??_powf& (0+255),w,b
  4297  002AD4  6EF6               	movwf	tblptrl,c
  4298  002AD6  0E10               	movlw	high _dp_h
  4299  002AD8  2191               	addwfc	(??_powf+1)& (0+255),w,b
  4300  002ADA  6EF7               	movwf	tblptrh,c
  4301  002ADC                     	if	1	;There are 3 active tblptr bytes
  4302  002ADC  6AF8               	clrf	tblptru,c
  4303  002ADE  0E00               	movlw	low (__mediumconst shr (0+16))
  4304  002AE0  22F8               	addwfc	tblptru,f,c
  4305  002AE2                     	endif
  4306  002AE2  0009               	tblrd		*+
  4307  002AE4  CFF5 F007          	movff	tablat,___fladd@a
  4308  002AE8  0009               	tblrd		*+
  4309  002AEA  CFF5 F008          	movff	tablat,___fladd@a+1
  4310  002AEE  0009               	tblrd		*+
  4311  002AF0  CFF5 F009          	movff	tablat,___fladd@a+2
  4312  002AF4  000A               	tblrd		*-
  4313  002AF6  CFF5 F00A          	movff	tablat,___fladd@a+3
  4314  002AFA  C15C  F003         	movff	_powf$1351,___fladd@b
  4315  002AFE  C15D  F004         	movff	_powf$1351+1,___fladd@b+1
  4316  002B02  C15E  F005         	movff	_powf$1351+2,___fladd@b+2
  4317  002B06  C15F  F006         	movff	_powf$1351+3,___fladd@b+3
  4318  002B0A  ECB9  F01F         	call	___fladd	;wreg free
  4319  002B0E  C003  F108         	movff	?___fladd,_powf$1354
  4320  002B12  C004  F109         	movff	?___fladd+1,_powf$1354+1
  4321  002B16  C005  F10A         	movff	?___fladd+2,_powf$1354+2
  4322  002B1A  C006  F10B         	movff	?___fladd+3,_powf$1354+3
  4323  002B1E  C108  F003         	movff	_powf$1354,___fladd@b
  4324  002B22  C109  F004         	movff	_powf$1354+1,___fladd@b+1
  4325  002B26  C10A  F005         	movff	_powf$1354+2,___fladd@b+2
  4326  002B2A  C10B  F006         	movff	_powf$1354+3,___fladd@b+3
  4327  002B2E  C1B0  F007         	movff	powf@t,___fladd@a
  4328  002B32  C1B1  F008         	movff	powf@t+1,___fladd@a+1
  4329  002B36  C1B2  F009         	movff	powf@t+2,___fladd@a+2
  4330  002B3A  C1B3  F00A         	movff	powf@t+3,___fladd@a+3
  4331  002B3E  ECB9  F01F         	call	___fladd	;wreg free
  4332  002B42  C003  F180         	movff	?___fladd,powf@t1
  4333  002B46  C004  F181         	movff	?___fladd+1,powf@t1+1
  4334  002B4A  C005  F182         	movff	?___fladd+2,powf@t1+2
  4335  002B4E  C006  F183         	movff	?___fladd+3,powf@t1+3
  4336  002B52  C180  F1B8         	movff	powf@t1,powf@__xc8_float_word
  4337  002B56  C181  F1B9         	movff	powf@t1+1,powf@__xc8_float_word+1
  4338  002B5A  C182  F1BA         	movff	powf@t1+2,powf@__xc8_float_word+2
  4339  002B5E  C183  F1BB         	movff	powf@t1+3,powf@__xc8_float_word+3
  4340  002B62  C1B8  F194         	movff	powf@__xc8_float_word,powf@is
  4341  002B66  C1B9  F195         	movff	powf@__xc8_float_word+1,powf@is+1
  4342  002B6A  C1BA  F196         	movff	powf@__xc8_float_word+2,powf@is+2
  4343  002B6E  C1BB  F197         	movff	powf@__xc8_float_word+3,powf@is+3
  4344  002B72  0E00               	movlw	0
  4345  002B74  0101               	movlb	1	; () banked
  4346  002B76  1594               	andwf	powf@is& (0+255),w,b
  4347  002B78  6FB8               	movwf	powf@__xc8_float_word& (0+255),b
  4348  002B7A  0EF0               	movlw	240
  4349  002B7C  1595               	andwf	(powf@is+1)& (0+255),w,b
  4350  002B7E  6FB9               	movwf	(powf@__xc8_float_word+1)& (0+255),b
  4351  002B80  0EFF               	movlw	255
  4352  002B82  1596               	andwf	(powf@is+2)& (0+255),w,b
  4353  002B84  6FBA               	movwf	(powf@__xc8_float_word+2)& (0+255),b
  4354  002B86  0EFF               	movlw	255
  4355  002B88  1597               	andwf	(powf@is+3)& (0+255),w,b
  4356  002B8A  6FBB               	movwf	(powf@__xc8_float_word+3)& (0+255),b
  4357  002B8C                     
  4358                           ; BSR set to: 1
  4359  002B8C  C1B8  F180         	movff	powf@__xc8_float_word,powf@t1
  4360  002B90  C1B9  F181         	movff	powf@__xc8_float_word+1,powf@t1+1
  4361  002B94  C1BA  F182         	movff	powf@__xc8_float_word+2,powf@t1+2
  4362  002B98  C1BB  F183         	movff	powf@__xc8_float_word+3,powf@t1+3
  4363  002B9C                     
  4364                           ; BSR set to: 1
  4365  002B9C  C1B0  F03E         	movff	powf@t,___flsub@a
  4366  002BA0  C1B1  F03F         	movff	powf@t+1,___flsub@a+1
  4367  002BA4  C1B2  F040         	movff	powf@t+2,___flsub@a+2
  4368  002BA8  C1B3  F041         	movff	powf@t+3,___flsub@a+3
  4369  002BAC  C180  F03A         	movff	powf@t1,___flsub@b
  4370  002BB0  C181  F03B         	movff	powf@t1+1,___flsub@b+1
  4371  002BB4  C182  F03C         	movff	powf@t1+2,___flsub@b+2
  4372  002BB8  C183  F03D         	movff	powf@t1+3,___flsub@b+3
  4373  002BBC  EC9A  F02B         	call	___flsub	;wreg free
  4374  002BC0  C03A  F198         	movff	?___flsub,_powf$1347
  4375  002BC4  C03B  F199         	movff	?___flsub+1,_powf$1347+1
  4376  002BC8  C03C  F19A         	movff	?___flsub+2,_powf$1347+2
  4377  002BCC  C03D  F19B         	movff	?___flsub+3,_powf$1347+3
  4378  002BD0  C1A0  F090         	movff	powf@k,??_powf
  4379  002BD4  C1A1  F091         	movff	powf@k+1,??_powf+1
  4380  002BD8  0100               	movlb	0	; () banked
  4381  002BDA  90D8               	bcf	status,0,c
  4382  002BDC  3790               	rlcf	??_powf& (0+255),f,b
  4383  002BDE  3791               	rlcf	(??_powf+1)& (0+255),f,b
  4384  002BE0  90D8               	bcf	status,0,c
  4385  002BE2  3790               	rlcf	??_powf& (0+255),f,b
  4386  002BE4  3791               	rlcf	(??_powf+1)& (0+255),f,b
  4387  002BE6  0E09               	movlw	low _dp_h
  4388  002BE8  2590               	addwf	??_powf& (0+255),w,b
  4389  002BEA  6EF6               	movwf	tblptrl,c
  4390  002BEC  0E10               	movlw	high _dp_h
  4391  002BEE  2191               	addwfc	(??_powf+1)& (0+255),w,b
  4392  002BF0  6EF7               	movwf	tblptrh,c
  4393  002BF2                     	if	1	;There are 3 active tblptr bytes
  4394  002BF2  6AF8               	clrf	tblptru,c
  4395  002BF4  0E00               	movlw	low (__mediumconst shr (0+16))
  4396  002BF6  22F8               	addwfc	tblptru,f,c
  4397  002BF8                     	endif
  4398  002BF8  0009               	tblrd		*+
  4399  002BFA  CFF5 F03E          	movff	tablat,___flsub@a
  4400  002BFE  0009               	tblrd		*+
  4401  002C00  CFF5 F03F          	movff	tablat,___flsub@a+1
  4402  002C04  0009               	tblrd		*+
  4403  002C06  CFF5 F040          	movff	tablat,___flsub@a+2
  4404  002C0A  000A               	tblrd		*-
  4405  002C0C  CFF5 F041          	movff	tablat,___flsub@a+3
  4406  002C10  C198  F03A         	movff	_powf$1347,___flsub@b
  4407  002C14  C199  F03B         	movff	_powf$1347+1,___flsub@b+1
  4408  002C18  C19A  F03C         	movff	_powf$1347+2,___flsub@b+2
  4409  002C1C  C19B  F03D         	movff	_powf$1347+3,___flsub@b+3
  4410  002C20  EC9A  F02B         	call	___flsub	;wreg free
  4411  002C24  C03A  F140         	movff	?___flsub,_powf$1353
  4412  002C28  C03B  F141         	movff	?___flsub+1,_powf$1353+1
  4413  002C2C  C03C  F142         	movff	?___flsub+2,_powf$1353+2
  4414  002C30  C03D  F143         	movff	?___flsub+3,_powf$1353+3
  4415  002C34  C120  F03E         	movff	powf@z_h,___flsub@a
  4416  002C38  C121  F03F         	movff	powf@z_h+1,___flsub@a+1
  4417  002C3C  C122  F040         	movff	powf@z_h+2,___flsub@a+2
  4418  002C40  C123  F041         	movff	powf@z_h+3,___flsub@a+3
  4419  002C44  C140  F03A         	movff	_powf$1353,___flsub@b
  4420  002C48  C141  F03B         	movff	_powf$1353+1,___flsub@b+1
  4421  002C4C  C142  F03C         	movff	_powf$1353+2,___flsub@b+2
  4422  002C50  C143  F03D         	movff	_powf$1353+3,___flsub@b+3
  4423  002C54  EC9A  F02B         	call	___flsub	;wreg free
  4424  002C58  C03A  F10C         	movff	?___flsub,_powf$1355
  4425  002C5C  C03B  F10D         	movff	?___flsub+1,_powf$1355+1
  4426  002C60  C03C  F10E         	movff	?___flsub+2,_powf$1355+2
  4427  002C64  C03D  F10F         	movff	?___flsub+3,_powf$1355+3
  4428  002C68  C124  F03A         	movff	powf@z_l,___flsub@b
  4429  002C6C  C125  F03B         	movff	powf@z_l+1,___flsub@b+1
  4430  002C70  C126  F03C         	movff	powf@z_l+2,___flsub@b+2
  4431  002C74  C127  F03D         	movff	powf@z_l+3,___flsub@b+3
  4432  002C78  C10C  F03E         	movff	_powf$1355,___flsub@a
  4433  002C7C  C10D  F03F         	movff	_powf$1355+1,___flsub@a+1
  4434  002C80  C10E  F040         	movff	_powf$1355+2,___flsub@a+2
  4435  002C84  C10F  F041         	movff	_powf$1355+3,___flsub@a+3
  4436  002C88  EC9A  F02B         	call	___flsub	;wreg free
  4437  002C8C  C03A  F11C         	movff	?___flsub,powf@t2
  4438  002C90  C03B  F11D         	movff	?___flsub+1,powf@t2+1
  4439  002C94  C03C  F11E         	movff	?___flsub+2,powf@t2+2
  4440  002C98  C03D  F11F         	movff	?___flsub+3,powf@t2+3
  4441  002C9C                     l5083:
  4442  002C9C  C08C  F1B8         	movff	powf@y,powf@__xc8_float_word
  4443  002CA0  C08D  F1B9         	movff	powf@y+1,powf@__xc8_float_word+1
  4444  002CA4  C08E  F1BA         	movff	powf@y+2,powf@__xc8_float_word+2
  4445  002CA8  C08F  F1BB         	movff	powf@y+3,powf@__xc8_float_word+3
  4446  002CAC  C1B8  F194         	movff	powf@__xc8_float_word,powf@is
  4447  002CB0  C1B9  F195         	movff	powf@__xc8_float_word+1,powf@is+1
  4448  002CB4  C1BA  F196         	movff	powf@__xc8_float_word+2,powf@is+2
  4449  002CB8  C1BB  F197         	movff	powf@__xc8_float_word+3,powf@is+3
  4450  002CBC  0E00               	movlw	0
  4451  002CBE  0101               	movlb	1	; () banked
  4452  002CC0  1594               	andwf	powf@is& (0+255),w,b
  4453  002CC2  6FB8               	movwf	powf@__xc8_float_word& (0+255),b
  4454  002CC4  0EF0               	movlw	240
  4455  002CC6  1595               	andwf	(powf@is+1)& (0+255),w,b
  4456  002CC8  6FB9               	movwf	(powf@__xc8_float_word+1)& (0+255),b
  4457  002CCA  0EFF               	movlw	255
  4458  002CCC  1596               	andwf	(powf@is+2)& (0+255),w,b
  4459  002CCE  6FBA               	movwf	(powf@__xc8_float_word+2)& (0+255),b
  4460  002CD0  0EFF               	movlw	255
  4461  002CD2  1597               	andwf	(powf@is+3)& (0+255),w,b
  4462  002CD4  6FBB               	movwf	(powf@__xc8_float_word+3)& (0+255),b
  4463  002CD6                     
  4464                           ; BSR set to: 1
  4465  002CD6  C1B8  F128         	movff	powf@__xc8_float_word,powf@y1
  4466  002CDA  C1B9  F129         	movff	powf@__xc8_float_word+1,powf@y1+1
  4467  002CDE  C1BA  F12A         	movff	powf@__xc8_float_word+2,powf@y1+2
  4468  002CE2  C1BB  F12B         	movff	powf@__xc8_float_word+3,powf@y1+3
  4469  002CE6                     
  4470                           ; BSR set to: 1
  4471  002CE6  C180  F017         	movff	powf@t1,___flmul@a
  4472  002CEA  C181  F018         	movff	powf@t1+1,___flmul@a+1
  4473  002CEE  C182  F019         	movff	powf@t1+2,___flmul@a+2
  4474  002CF2  C183  F01A         	movff	powf@t1+3,___flmul@a+3
  4475  002CF6  C128  F03E         	movff	powf@y1,___flsub@a
  4476  002CFA  C129  F03F         	movff	powf@y1+1,___flsub@a+1
  4477  002CFE  C12A  F040         	movff	powf@y1+2,___flsub@a+2
  4478  002D02  C12B  F041         	movff	powf@y1+3,___flsub@a+3
  4479  002D06  C08C  F03A         	movff	powf@y,___flsub@b
  4480  002D0A  C08D  F03B         	movff	powf@y+1,___flsub@b+1
  4481  002D0E  C08E  F03C         	movff	powf@y+2,___flsub@b+2
  4482  002D12  C08F  F03D         	movff	powf@y+3,___flsub@b+3
  4483  002D16  EC9A  F02B         	call	___flsub	;wreg free
  4484  002D1A  C03A  F013         	movff	?___flsub,___flmul@b
  4485  002D1E  C03B  F014         	movff	?___flsub+1,___flmul@b+1
  4486  002D22  C03C  F015         	movff	?___flsub+2,___flmul@b+2
  4487  002D26  C03D  F016         	movff	?___flsub+3,___flmul@b+3
  4488  002D2A  EC19  F022         	call	___flmul	;wreg free
  4489  002D2E  C013  F110         	movff	?___flmul,_powf$1356
  4490  002D32  C014  F111         	movff	?___flmul+1,_powf$1356+1
  4491  002D36  C015  F112         	movff	?___flmul+2,_powf$1356+2
  4492  002D3A  C016  F113         	movff	?___flmul+3,_powf$1356+3
  4493  002D3E  C110  F003         	movff	_powf$1356,___fladd@b
  4494  002D42  C111  F004         	movff	_powf$1356+1,___fladd@b+1
  4495  002D46  C112  F005         	movff	_powf$1356+2,___fladd@b+2
  4496  002D4A  C113  F006         	movff	_powf$1356+3,___fladd@b+3
  4497  002D4E  C11C  F017         	movff	powf@t2,___flmul@a
  4498  002D52  C11D  F018         	movff	powf@t2+1,___flmul@a+1
  4499  002D56  C11E  F019         	movff	powf@t2+2,___flmul@a+2
  4500  002D5A  C11F  F01A         	movff	powf@t2+3,___flmul@a+3
  4501  002D5E  C08C  F013         	movff	powf@y,___flmul@b
  4502  002D62  C08D  F014         	movff	powf@y+1,___flmul@b+1
  4503  002D66  C08E  F015         	movff	powf@y+2,___flmul@b+2
  4504  002D6A  C08F  F016         	movff	powf@y+3,___flmul@b+3
  4505  002D6E  EC19  F022         	call	___flmul	;wreg free
  4506  002D72  C013  F007         	movff	?___flmul,___fladd@a
  4507  002D76  C014  F008         	movff	?___flmul+1,___fladd@a+1
  4508  002D7A  C015  F009         	movff	?___flmul+2,___fladd@a+2
  4509  002D7E  C016  F00A         	movff	?___flmul+3,___fladd@a+3
  4510  002D82  ECB9  F01F         	call	___fladd	;wreg free
  4511  002D86  C003  F164         	movff	?___fladd,powf@p_l
  4512  002D8A  C004  F165         	movff	?___fladd+1,powf@p_l+1
  4513  002D8E  C005  F166         	movff	?___fladd+2,powf@p_l+2
  4514  002D92  C006  F167         	movff	?___fladd+3,powf@p_l+3
  4515  002D96  C128  F013         	movff	powf@y1,___flmul@b
  4516  002D9A  C129  F014         	movff	powf@y1+1,___flmul@b+1
  4517  002D9E  C12A  F015         	movff	powf@y1+2,___flmul@b+2
  4518  002DA2  C12B  F016         	movff	powf@y1+3,___flmul@b+3
  4519  002DA6  C180  F017         	movff	powf@t1,___flmul@a
  4520  002DAA  C181  F018         	movff	powf@t1+1,___flmul@a+1
  4521  002DAE  C182  F019         	movff	powf@t1+2,___flmul@a+2
  4522  002DB2  C183  F01A         	movff	powf@t1+3,___flmul@a+3
  4523  002DB6  EC19  F022         	call	___flmul	;wreg free
  4524  002DBA  C013  F19C         	movff	?___flmul,powf@p_h
  4525  002DBE  C014  F19D         	movff	?___flmul+1,powf@p_h+1
  4526  002DC2  C015  F19E         	movff	?___flmul+2,powf@p_h+2
  4527  002DC6  C016  F19F         	movff	?___flmul+3,powf@p_h+3
  4528  002DCA  C164  F003         	movff	powf@p_l,___fladd@b
  4529  002DCE  C165  F004         	movff	powf@p_l+1,___fladd@b+1
  4530  002DD2  C166  F005         	movff	powf@p_l+2,___fladd@b+2
  4531  002DD6  C167  F006         	movff	powf@p_l+3,___fladd@b+3
  4532  002DDA  C19C  F007         	movff	powf@p_h,___fladd@a
  4533  002DDE  C19D  F008         	movff	powf@p_h+1,___fladd@a+1
  4534  002DE2  C19E  F009         	movff	powf@p_h+2,___fladd@a+2
  4535  002DE6  C19F  F00A         	movff	powf@p_h+3,___fladd@a+3
  4536  002DEA  ECB9  F01F         	call	___fladd	;wreg free
  4537  002DEE  C003  F1B4         	movff	?___fladd,powf@z
  4538  002DF2  C004  F1B5         	movff	?___fladd+1,powf@z+1
  4539  002DF6  C005  F1B6         	movff	?___fladd+2,powf@z+2
  4540  002DFA  C006  F1B7         	movff	?___fladd+3,powf@z+3
  4541  002DFE  C1B4  F1B8         	movff	powf@z,powf@__xc8_float_word
  4542  002E02  C1B5  F1B9         	movff	powf@z+1,powf@__xc8_float_word+1
  4543  002E06  C1B6  F1BA         	movff	powf@z+2,powf@__xc8_float_word+2
  4544  002E0A  C1B7  F1BB         	movff	powf@z+3,powf@__xc8_float_word+3
  4545  002E0E  C1B8  F1AC         	movff	powf@__xc8_float_word,powf@j
  4546  002E12  C1B9  F1AD         	movff	powf@__xc8_float_word+1,powf@j+1
  4547  002E16  C1BA  F1AE         	movff	powf@__xc8_float_word+2,powf@j+2
  4548  002E1A  C1BB  F1AF         	movff	powf@__xc8_float_word+3,powf@j+3
  4549  002E1E  0101               	movlb	1	; () banked
  4550  002E20  BFAF               	btfsc	(powf@j+3)& (0+255),7,b
  4551  002E22  EF1F  F017         	goto	u5511
  4552  002E26  05AC               	decf	powf@j& (0+255),w,b
  4553  002E28  0E00               	movlw	0
  4554  002E2A  59AD               	subwfb	(powf@j+1)& (0+255),w,b
  4555  002E2C  0E00               	movlw	0
  4556  002E2E  59AE               	subwfb	(powf@j+2)& (0+255),w,b
  4557  002E30  0E43               	movlw	67
  4558  002E32  59AF               	subwfb	(powf@j+3)& (0+255),w,b
  4559  002E34  A0D8               	btfss	status,0,c
  4560  002E36  EF1F  F017         	goto	u5511
  4561  002E3A  EF21  F017         	goto	u5510
  4562  002E3E                     u5511:
  4563  002E3E  EF57  F017         	goto	l5111
  4564  002E42                     u5510:
  4565  002E42                     
  4566                           ; BSR set to: 1
  4567  002E42  0ECA               	movlw	202
  4568  002E44  6E17               	movwf	___flmul@a^0,c
  4569  002E46  0EF2               	movlw	242
  4570  002E48  6E18               	movwf	(___flmul@a+1)^0,c
  4571  002E4A  0E49               	movlw	73
  4572  002E4C  6E19               	movwf	(___flmul@a+2)^0,c
  4573  002E4E  0E71               	movlw	113
  4574  002E50  6E1A               	movwf	(___flmul@a+3)^0,c
  4575  002E52  C184  F013         	movff	powf@sn,___flmul@b
  4576  002E56  C185  F014         	movff	powf@sn+1,___flmul@b+1
  4577  002E5A  C186  F015         	movff	powf@sn+2,___flmul@b+2
  4578  002E5E  C187  F016         	movff	powf@sn+3,___flmul@b+3
  4579  002E62  EC19  F022         	call	___flmul	;wreg free
  4580  002E66  C013  F1A4         	movff	?___flmul,_powf$1344
  4581  002E6A  C014  F1A5         	movff	?___flmul+1,_powf$1344+1
  4582  002E6E  C015  F1A6         	movff	?___flmul+2,_powf$1344+2
  4583  002E72  C016  F1A7         	movff	?___flmul+3,_powf$1344+3
  4584  002E76  C1A4  F013         	movff	_powf$1344,___flmul@b
  4585  002E7A  C1A5  F014         	movff	_powf$1344+1,___flmul@b+1
  4586  002E7E  C1A6  F015         	movff	_powf$1344+2,___flmul@b+2
  4587  002E82  C1A7  F016         	movff	_powf$1344+3,___flmul@b+3
  4588  002E86  0ECA               	movlw	202
  4589  002E88  6E17               	movwf	___flmul@a^0,c
  4590  002E8A  0EF2               	movlw	242
  4591  002E8C  6E18               	movwf	(___flmul@a+1)^0,c
  4592  002E8E  0E49               	movlw	73
  4593  002E90  6E19               	movwf	(___flmul@a+2)^0,c
  4594  002E92  0E71               	movlw	113
  4595  002E94  6E1A               	movwf	(___flmul@a+3)^0,c
  4596  002E96  EC19  F022         	call	___flmul	;wreg free
  4597  002E9A  C013  F088         	movff	?___flmul,?_powf
  4598  002E9E  C014  F089         	movff	?___flmul+1,?_powf+1
  4599  002EA2  C015  F08A         	movff	?___flmul+2,?_powf+2
  4600  002EA6  C016  F08B         	movff	?___flmul+3,?_powf+3
  4601  002EAA  EF58  F01D         	goto	l1052
  4602  002EAE                     l5111:
  4603                           
  4604                           ; BSR set to: 1
  4605  002EAE  0E43               	movlw	67
  4606  002EB0  19AF               	xorwf	(powf@j+3)& (0+255),w,b
  4607  002EB2  11AC               	iorwf	powf@j& (0+255),w,b
  4608  002EB4  11AD               	iorwf	(powf@j+1)& (0+255),w,b
  4609  002EB6  11AE               	iorwf	(powf@j+2)& (0+255),w,b
  4610  002EB8  A4D8               	btfss	status,2,c
  4611  002EBA  EF61  F017         	goto	u5521
  4612  002EBE  EF63  F017         	goto	u5520
  4613  002EC2                     u5521:
  4614  002EC2  EFD6  F017         	goto	l5119
  4615  002EC6                     u5520:
  4616  002EC6                     
  4617                           ; BSR set to: 1
  4618  002EC6  C19C  F03E         	movff	powf@p_h,___flsub@a
  4619  002ECA  C19D  F03F         	movff	powf@p_h+1,___flsub@a+1
  4620  002ECE  C19E  F040         	movff	powf@p_h+2,___flsub@a+2
  4621  002ED2  C19F  F041         	movff	powf@p_h+3,___flsub@a+3
  4622  002ED6  C1B4  F03A         	movff	powf@z,___flsub@b
  4623  002EDA  C1B5  F03B         	movff	powf@z+1,___flsub@b+1
  4624  002EDE  C1B6  F03C         	movff	powf@z+2,___flsub@b+2
  4625  002EE2  C1B7  F03D         	movff	powf@z+3,___flsub@b+3
  4626  002EE6  EC9A  F02B         	call	___flsub	;wreg free
  4627  002EEA  C03A  F042         	movff	?___flsub,___flge@ff1
  4628  002EEE  C03B  F043         	movff	?___flsub+1,___flge@ff1+1
  4629  002EF2  C03C  F044         	movff	?___flsub+2,___flge@ff1+2
  4630  002EF6  C03D  F045         	movff	?___flsub+3,___flge@ff1+3
  4631  002EFA  0E3C               	movlw	60
  4632  002EFC  6E07               	movwf	___fladd@a^0,c
  4633  002EFE  0EAA               	movlw	170
  4634  002F00  6E08               	movwf	(___fladd@a+1)^0,c
  4635  002F02  0E38               	movlw	56
  4636  002F04  6E09               	movwf	(___fladd@a+2)^0,c
  4637  002F06  0E33               	movlw	51
  4638  002F08  6E0A               	movwf	(___fladd@a+3)^0,c
  4639  002F0A  C164  F003         	movff	powf@p_l,___fladd@b
  4640  002F0E  C165  F004         	movff	powf@p_l+1,___fladd@b+1
  4641  002F12  C166  F005         	movff	powf@p_l+2,___fladd@b+2
  4642  002F16  C167  F006         	movff	powf@p_l+3,___fladd@b+3
  4643  002F1A  ECB9  F01F         	call	___fladd	;wreg free
  4644  002F1E  C003  F046         	movff	?___fladd,___flge@ff2
  4645  002F22  C004  F047         	movff	?___fladd+1,___flge@ff2+1
  4646  002F26  C005  F048         	movff	?___fladd+2,___flge@ff2+2
  4647  002F2A  C006  F049         	movff	?___fladd+3,___flge@ff2+3
  4648  002F2E  EC9F  F029         	call	___flge	;wreg free
  4649  002F32  B0D8               	btfsc	status,0,c
  4650  002F34  EF9E  F017         	goto	u5531
  4651  002F38  EFA0  F017         	goto	u5530
  4652  002F3C                     u5531:
  4653  002F3C  EFA0  F018         	goto	l5135
  4654  002F40                     u5530:
  4655  002F40  0ECA               	movlw	202
  4656  002F42  6E17               	movwf	___flmul@a^0,c
  4657  002F44  0EF2               	movlw	242
  4658  002F46  6E18               	movwf	(___flmul@a+1)^0,c
  4659  002F48  0E49               	movlw	73
  4660  002F4A  6E19               	movwf	(___flmul@a+2)^0,c
  4661  002F4C  0E71               	movlw	113
  4662  002F4E  6E1A               	movwf	(___flmul@a+3)^0,c
  4663  002F50  C184  F013         	movff	powf@sn,___flmul@b
  4664  002F54  C185  F014         	movff	powf@sn+1,___flmul@b+1
  4665  002F58  C186  F015         	movff	powf@sn+2,___flmul@b+2
  4666  002F5C  C187  F016         	movff	powf@sn+3,___flmul@b+3
  4667  002F60  EC19  F022         	call	___flmul	;wreg free
  4668  002F64  C013  F1A4         	movff	?___flmul,_powf$1344
  4669  002F68  C014  F1A5         	movff	?___flmul+1,_powf$1344+1
  4670  002F6C  C015  F1A6         	movff	?___flmul+2,_powf$1344+2
  4671  002F70  C016  F1A7         	movff	?___flmul+3,_powf$1344+3
  4672  002F74  C1A4  F013         	movff	_powf$1344,___flmul@b
  4673  002F78  C1A5  F014         	movff	_powf$1344+1,___flmul@b+1
  4674  002F7C  C1A6  F015         	movff	_powf$1344+2,___flmul@b+2
  4675  002F80  C1A7  F016         	movff	_powf$1344+3,___flmul@b+3
  4676  002F84  0ECA               	movlw	202
  4677  002F86  6E17               	movwf	___flmul@a^0,c
  4678  002F88  0EF2               	movlw	242
  4679  002F8A  6E18               	movwf	(___flmul@a+1)^0,c
  4680  002F8C  0E49               	movlw	73
  4681  002F8E  6E19               	movwf	(___flmul@a+2)^0,c
  4682  002F90  0E71               	movlw	113
  4683  002F92  6E1A               	movwf	(___flmul@a+3)^0,c
  4684  002F94  EC19  F022         	call	___flmul	;wreg free
  4685  002F98  C013  F088         	movff	?___flmul,?_powf
  4686  002F9C  C014  F089         	movff	?___flmul+1,?_powf+1
  4687  002FA0  C015  F08A         	movff	?___flmul+2,?_powf+2
  4688  002FA4  C016  F08B         	movff	?___flmul+3,?_powf+3
  4689  002FA8  EF58  F01D         	goto	l1052
  4690  002FAC                     l5119:
  4691                           
  4692                           ; BSR set to: 1
  4693  002FAC  0EFF               	movlw	255
  4694  002FAE  15AC               	andwf	powf@j& (0+255),w,b
  4695  002FB0  0100               	movlb	0	; () banked
  4696  002FB2  6F90               	movwf	??_powf& (0+255),b
  4697  002FB4  0EFF               	movlw	255
  4698  002FB6  0101               	movlb	1	; () banked
  4699  002FB8  15AD               	andwf	(powf@j+1)& (0+255),w,b
  4700  002FBA  0100               	movlb	0	; () banked
  4701  002FBC  6F91               	movwf	(??_powf+1)& (0+255),b
  4702  002FBE  0EFF               	movlw	255
  4703  002FC0  0101               	movlb	1	; () banked
  4704  002FC2  15AE               	andwf	(powf@j+2)& (0+255),w,b
  4705  002FC4  0100               	movlb	0	; () banked
  4706  002FC6  6F92               	movwf	(??_powf+2)& (0+255),b
  4707  002FC8  0E7F               	movlw	127
  4708  002FCA  0101               	movlb	1	; () banked
  4709  002FCC  15AF               	andwf	(powf@j+3)& (0+255),w,b
  4710  002FCE  0100               	movlb	0	; () banked
  4711  002FD0  6F93               	movwf	(??_powf+3)& (0+255),b
  4712  002FD2  BF93               	btfsc	(??_powf+3)& (0+255),7,b
  4713  002FD4  EFF8  F017         	goto	u5541
  4714  002FD8  0590               	decf	??_powf& (0+255),w,b
  4715  002FDA  0E00               	movlw	0
  4716  002FDC  5991               	subwfb	(??_powf+1)& (0+255),w,b
  4717  002FDE  0E16               	movlw	22
  4718  002FE0  5992               	subwfb	(??_powf+2)& (0+255),w,b
  4719  002FE2  0E43               	movlw	67
  4720  002FE4  5993               	subwfb	(??_powf+3)& (0+255),w,b
  4721  002FE6  A0D8               	btfss	status,0,c
  4722  002FE8  EFF8  F017         	goto	u5541
  4723  002FEC  EFFA  F017         	goto	u5540
  4724  002FF0                     u5541:
  4725  002FF0  EF30  F018         	goto	l5127
  4726  002FF4                     u5540:
  4727  002FF4                     
  4728                           ; BSR set to: 0
  4729  002FF4  0E60               	movlw	96
  4730  002FF6  6E17               	movwf	___flmul@a^0,c
  4731  002FF8  0E42               	movlw	66
  4732  002FFA  6E18               	movwf	(___flmul@a+1)^0,c
  4733  002FFC  0EA2               	movlw	162
  4734  002FFE  6E19               	movwf	(___flmul@a+2)^0,c
  4735  003000  0E0D               	movlw	13
  4736  003002  6E1A               	movwf	(___flmul@a+3)^0,c
  4737  003004  C184  F013         	movff	powf@sn,___flmul@b
  4738  003008  C185  F014         	movff	powf@sn+1,___flmul@b+1
  4739  00300C  C186  F015         	movff	powf@sn+2,___flmul@b+2
  4740  003010  C187  F016         	movff	powf@sn+3,___flmul@b+3
  4741  003014  EC19  F022         	call	___flmul	;wreg free
  4742  003018  C013  F1A4         	movff	?___flmul,_powf$1344
  4743  00301C  C014  F1A5         	movff	?___flmul+1,_powf$1344+1
  4744  003020  C015  F1A6         	movff	?___flmul+2,_powf$1344+2
  4745  003024  C016  F1A7         	movff	?___flmul+3,_powf$1344+3
  4746  003028  C1A4  F013         	movff	_powf$1344,___flmul@b
  4747  00302C  C1A5  F014         	movff	_powf$1344+1,___flmul@b+1
  4748  003030  C1A6  F015         	movff	_powf$1344+2,___flmul@b+2
  4749  003034  C1A7  F016         	movff	_powf$1344+3,___flmul@b+3
  4750  003038  0E60               	movlw	96
  4751  00303A  6E17               	movwf	___flmul@a^0,c
  4752  00303C  0E42               	movlw	66
  4753  00303E  6E18               	movwf	(___flmul@a+1)^0,c
  4754  003040  0EA2               	movlw	162
  4755  003042  6E19               	movwf	(___flmul@a+2)^0,c
  4756  003044  0E0D               	movlw	13
  4757  003046  6E1A               	movwf	(___flmul@a+3)^0,c
  4758  003048  EC19  F022         	call	___flmul	;wreg free
  4759  00304C  C013  F088         	movff	?___flmul,?_powf
  4760  003050  C014  F089         	movff	?___flmul+1,?_powf+1
  4761  003054  C015  F08A         	movff	?___flmul+2,?_powf+2
  4762  003058  C016  F08B         	movff	?___flmul+3,?_powf+3
  4763  00305C  EF58  F01D         	goto	l1052
  4764  003060                     l5127:
  4765                           
  4766                           ; BSR set to: 0
  4767  003060  0E16               	movlw	22
  4768  003062  0101               	movlb	1	; () banked
  4769  003064  19AE               	xorwf	(powf@j+2)& (0+255),w,b
  4770  003066  E109               	bnz	u5551
  4771  003068  0EC3               	movlw	195
  4772  00306A  19AF               	xorwf	(powf@j+3)& (0+255),w,b
  4773  00306C  11AC               	iorwf	powf@j& (0+255),w,b
  4774  00306E  11AD               	iorwf	(powf@j+1)& (0+255),w,b
  4775  003070  A4D8               	btfss	status,2,c
  4776  003072  EF3D  F018         	goto	u5551
  4777  003076  EF3F  F018         	goto	u5550
  4778  00307A                     u5551:
  4779  00307A  EFA0  F018         	goto	l5135
  4780  00307E                     u5550:
  4781  00307E                     
  4782                           ; BSR set to: 1
  4783  00307E  C19C  F03E         	movff	powf@p_h,___flsub@a
  4784  003082  C19D  F03F         	movff	powf@p_h+1,___flsub@a+1
  4785  003086  C19E  F040         	movff	powf@p_h+2,___flsub@a+2
  4786  00308A  C19F  F041         	movff	powf@p_h+3,___flsub@a+3
  4787  00308E  C1B4  F03A         	movff	powf@z,___flsub@b
  4788  003092  C1B5  F03B         	movff	powf@z+1,___flsub@b+1
  4789  003096  C1B6  F03C         	movff	powf@z+2,___flsub@b+2
  4790  00309A  C1B7  F03D         	movff	powf@z+3,___flsub@b+3
  4791  00309E  EC9A  F02B         	call	___flsub	;wreg free
  4792  0030A2  C03A  F042         	movff	?___flsub,___flge@ff1
  4793  0030A6  C03B  F043         	movff	?___flsub+1,___flge@ff1+1
  4794  0030AA  C03C  F044         	movff	?___flsub+2,___flge@ff1+2
  4795  0030AE  C03D  F045         	movff	?___flsub+3,___flge@ff1+3
  4796  0030B2  C164  F046         	movff	powf@p_l,___flge@ff2
  4797  0030B6  C165  F047         	movff	powf@p_l+1,___flge@ff2+1
  4798  0030BA  C166  F048         	movff	powf@p_l+2,___flge@ff2+2
  4799  0030BE  C167  F049         	movff	powf@p_l+3,___flge@ff2+3
  4800  0030C2  EC9F  F029         	call	___flge	;wreg free
  4801  0030C6  A0D8               	btfss	status,0,c
  4802  0030C8  EF68  F018         	goto	u5561
  4803  0030CC  EF6A  F018         	goto	u5560
  4804  0030D0                     u5561:
  4805  0030D0  EFA0  F018         	goto	l5135
  4806  0030D4                     u5560:
  4807  0030D4  0E60               	movlw	96
  4808  0030D6  6E17               	movwf	___flmul@a^0,c
  4809  0030D8  0E42               	movlw	66
  4810  0030DA  6E18               	movwf	(___flmul@a+1)^0,c
  4811  0030DC  0EA2               	movlw	162
  4812  0030DE  6E19               	movwf	(___flmul@a+2)^0,c
  4813  0030E0  0E0D               	movlw	13
  4814  0030E2  6E1A               	movwf	(___flmul@a+3)^0,c
  4815  0030E4  C184  F013         	movff	powf@sn,___flmul@b
  4816  0030E8  C185  F014         	movff	powf@sn+1,___flmul@b+1
  4817  0030EC  C186  F015         	movff	powf@sn+2,___flmul@b+2
  4818  0030F0  C187  F016         	movff	powf@sn+3,___flmul@b+3
  4819  0030F4  EC19  F022         	call	___flmul	;wreg free
  4820  0030F8  C013  F1A4         	movff	?___flmul,_powf$1344
  4821  0030FC  C014  F1A5         	movff	?___flmul+1,_powf$1344+1
  4822  003100  C015  F1A6         	movff	?___flmul+2,_powf$1344+2
  4823  003104  C016  F1A7         	movff	?___flmul+3,_powf$1344+3
  4824  003108  C1A4  F013         	movff	_powf$1344,___flmul@b
  4825  00310C  C1A5  F014         	movff	_powf$1344+1,___flmul@b+1
  4826  003110  C1A6  F015         	movff	_powf$1344+2,___flmul@b+2
  4827  003114  C1A7  F016         	movff	_powf$1344+3,___flmul@b+3
  4828  003118  0E60               	movlw	96
  4829  00311A  6E17               	movwf	___flmul@a^0,c
  4830  00311C  0E42               	movlw	66
  4831  00311E  6E18               	movwf	(___flmul@a+1)^0,c
  4832  003120  0EA2               	movlw	162
  4833  003122  6E19               	movwf	(___flmul@a+2)^0,c
  4834  003124  0E0D               	movlw	13
  4835  003126  6E1A               	movwf	(___flmul@a+3)^0,c
  4836  003128  EC19  F022         	call	___flmul	;wreg free
  4837  00312C  C013  F088         	movff	?___flmul,?_powf
  4838  003130  C014  F089         	movff	?___flmul+1,?_powf+1
  4839  003134  C015  F08A         	movff	?___flmul+2,?_powf+2
  4840  003138  C016  F08B         	movff	?___flmul+3,?_powf+3
  4841  00313C  EF58  F01D         	goto	l1052
  4842  003140                     l5135:
  4843  003140  0EFF               	movlw	255
  4844  003142  0101               	movlb	1	; () banked
  4845  003144  15AC               	andwf	powf@j& (0+255),w,b
  4846  003146  6F2C               	movwf	powf@i& (0+255),b
  4847  003148  0EFF               	movlw	255
  4848  00314A  15AD               	andwf	(powf@j+1)& (0+255),w,b
  4849  00314C  6F2D               	movwf	(powf@i+1)& (0+255),b
  4850  00314E  0EFF               	movlw	255
  4851  003150  15AE               	andwf	(powf@j+2)& (0+255),w,b
  4852  003152  6F2E               	movwf	(powf@i+2)& (0+255),b
  4853  003154  0E7F               	movlw	127
  4854  003156  15AF               	andwf	(powf@j+3)& (0+255),w,b
  4855  003158  6F2F               	movwf	(powf@i+3)& (0+255),b
  4856  00315A  0E17               	movlw	23
  4857  00315C  0100               	movlb	0	; () banked
  4858  00315E  6F90               	movwf	??_powf& (0+255),b
  4859  003160  C12C  F091         	movff	powf@i,??_powf+1
  4860  003164  C12D  F092         	movff	powf@i+1,??_powf+2
  4861  003168  C12E  F093         	movff	powf@i+2,??_powf+3
  4862  00316C  C12F  F094         	movff	powf@i+3,??_powf+4
  4863  003170                     u5575:
  4864  003170  6790               	tstfsz	??_powf& (0+255),b
  4865  003172  EFBD  F018         	goto	u5576
  4866  003176  EFC5  F018         	goto	u5577
  4867  00317A                     u5576:
  4868  00317A  3594               	rlcf	(??_powf+4)& (0+255),w,b
  4869  00317C  3394               	rrcf	(??_powf+4)& (0+255),f,b
  4870  00317E  3393               	rrcf	(??_powf+3)& (0+255),f,b
  4871  003180  3392               	rrcf	(??_powf+2)& (0+255),f,b
  4872  003182  3391               	rrcf	(??_powf+1)& (0+255),f,b
  4873  003184  2F90               	decfsz	??_powf& (0+255),f,b
  4874  003186  EFB8  F018         	goto	u5575
  4875  00318A                     u5577:
  4876  00318A  0E81               	movlw	129
  4877  00318C  0100               	movlb	0	; () banked
  4878  00318E  2591               	addwf	(??_powf+1)& (0+255),w,b
  4879  003190  0101               	movlb	1	; () banked
  4880  003192  6FA0               	movwf	powf@k& (0+255),b
  4881  003194  0EFF               	movlw	255
  4882  003196  0100               	movlb	0	; () banked
  4883  003198  2192               	addwfc	(??_powf+2)& (0+255),w,b
  4884  00319A  0101               	movlb	1	; () banked
  4885  00319C  6FA1               	movwf	(powf@k+1)& (0+255),b
  4886  00319E  0EFF               	movlw	255
  4887  0031A0  0100               	movlb	0	; () banked
  4888  0031A2  2193               	addwfc	(??_powf+3)& (0+255),w,b
  4889  0031A4  0101               	movlb	1	; () banked
  4890  0031A6  6FA2               	movwf	(powf@k+2)& (0+255),b
  4891  0031A8  0EFF               	movlw	255
  4892  0031AA  0100               	movlb	0	; () banked
  4893  0031AC  2194               	addwfc	(??_powf+4)& (0+255),w,b
  4894  0031AE  0101               	movlb	1	; () banked
  4895  0031B0  6FA3               	movwf	(powf@k+3)& (0+255),b
  4896  0031B2                     
  4897                           ; BSR set to: 1
  4898  0031B2  0E00               	movlw	0
  4899  0031B4  6F88               	movwf	powf@n& (0+255),b
  4900  0031B6  0E00               	movlw	0
  4901  0031B8  6F89               	movwf	(powf@n+1)& (0+255),b
  4902  0031BA  0E00               	movlw	0
  4903  0031BC  6F8A               	movwf	(powf@n+2)& (0+255),b
  4904  0031BE  0E00               	movlw	0
  4905  0031C0  6F8B               	movwf	(powf@n+3)& (0+255),b
  4906  0031C2                     
  4907                           ; BSR set to: 1
  4908  0031C2  BF2F               	btfsc	(powf@i+3)& (0+255),7,b
  4909  0031C4  EFF0  F018         	goto	u5581
  4910  0031C8  052C               	decf	powf@i& (0+255),w,b
  4911  0031CA  0E00               	movlw	0
  4912  0031CC  592D               	subwfb	(powf@i+1)& (0+255),w,b
  4913  0031CE  0E00               	movlw	0
  4914  0031D0  592E               	subwfb	(powf@i+2)& (0+255),w,b
  4915  0031D2  0E3F               	movlw	63
  4916  0031D4  592F               	subwfb	(powf@i+3)& (0+255),w,b
  4917  0031D6  A0D8               	btfss	status,0,c
  4918  0031D8  EFF0  F018         	goto	u5581
  4919  0031DC  EFF2  F018         	goto	u5580
  4920  0031E0                     u5581:
  4921  0031E0  EFF6  F019         	goto	l5149
  4922  0031E4                     u5580:
  4923  0031E4                     
  4924                           ; BSR set to: 1
  4925  0031E4  C1A0  F090         	movff	powf@k,??_powf
  4926  0031E8  0E01               	movlw	1
  4927  0031EA  0100               	movlb	0	; () banked
  4928  0031EC  2790               	addwf	??_powf& (0+255),f,b
  4929  0031EE  0E00               	movlw	0
  4930  0031F0  6F91               	movwf	(??_powf+1)& (0+255),b
  4931  0031F2  0E00               	movlw	0
  4932  0031F4  6F92               	movwf	(??_powf+2)& (0+255),b
  4933  0031F6  0E80               	movlw	128
  4934  0031F8  6F93               	movwf	(??_powf+3)& (0+255),b
  4935  0031FA  0E00               	movlw	0
  4936  0031FC  6F94               	movwf	(??_powf+4)& (0+255),b
  4937  0031FE                     u5595:
  4938  0031FE  6790               	tstfsz	??_powf& (0+255),b
  4939  003200  EF04  F019         	goto	u5596
  4940  003204  EF0C  F019         	goto	u5597
  4941  003208                     u5596:
  4942  003208  3594               	rlcf	(??_powf+4)& (0+255),w,b
  4943  00320A  3394               	rrcf	(??_powf+4)& (0+255),f,b
  4944  00320C  3393               	rrcf	(??_powf+3)& (0+255),f,b
  4945  00320E  3392               	rrcf	(??_powf+2)& (0+255),f,b
  4946  003210  3391               	rrcf	(??_powf+1)& (0+255),f,b
  4947  003212  2F90               	decfsz	??_powf& (0+255),f,b
  4948  003214  EFFF  F018         	goto	u5595
  4949  003218                     u5597:
  4950  003218  0101               	movlb	1	; () banked
  4951  00321A  51AC               	movf	powf@j& (0+255),w,b
  4952  00321C  0100               	movlb	0	; () banked
  4953  00321E  2591               	addwf	(??_powf+1)& (0+255),w,b
  4954  003220  0101               	movlb	1	; () banked
  4955  003222  6F88               	movwf	powf@n& (0+255),b
  4956  003224  51AD               	movf	(powf@j+1)& (0+255),w,b
  4957  003226  0100               	movlb	0	; () banked
  4958  003228  2192               	addwfc	(??_powf+2)& (0+255),w,b
  4959  00322A  0101               	movlb	1	; () banked
  4960  00322C  6F89               	movwf	(powf@n+1)& (0+255),b
  4961  00322E  51AE               	movf	(powf@j+2)& (0+255),w,b
  4962  003230  0100               	movlb	0	; () banked
  4963  003232  2193               	addwfc	(??_powf+3)& (0+255),w,b
  4964  003234  0101               	movlb	1	; () banked
  4965  003236  6F8A               	movwf	(powf@n+2)& (0+255),b
  4966  003238  51AF               	movf	(powf@j+3)& (0+255),w,b
  4967  00323A  0100               	movlb	0	; () banked
  4968  00323C  2194               	addwfc	(??_powf+4)& (0+255),w,b
  4969  00323E  0101               	movlb	1	; () banked
  4970  003240  6F8B               	movwf	(powf@n+3)& (0+255),b
  4971  003242  0E81               	movlw	129
  4972  003244  0100               	movlb	0	; () banked
  4973  003246  6F90               	movwf	??_powf& (0+255),b
  4974  003248  0EFF               	movlw	255
  4975  00324A  6F91               	movwf	(??_powf+1)& (0+255),b
  4976  00324C  0EFF               	movlw	255
  4977  00324E  6F92               	movwf	(??_powf+2)& (0+255),b
  4978  003250  0EFF               	movlw	255
  4979  003252  6F93               	movwf	(??_powf+3)& (0+255),b
  4980  003254  0E17               	movlw	23
  4981  003256  6F94               	movwf	(??_powf+4)& (0+255),b
  4982  003258  C188  F095         	movff	powf@n,??_powf+5
  4983  00325C  C189  F096         	movff	powf@n+1,??_powf+6
  4984  003260  C18A  F097         	movff	powf@n+2,??_powf+7
  4985  003264  C18B  F098         	movff	powf@n+3,??_powf+8
  4986  003268                     u5605:
  4987  003268  6794               	tstfsz	(??_powf+4)& (0+255),b
  4988  00326A  EF39  F019         	goto	u5606
  4989  00326E  EF41  F019         	goto	u5607
  4990  003272                     u5606:
  4991  003272  3598               	rlcf	(??_powf+8)& (0+255),w,b
  4992  003274  3398               	rrcf	(??_powf+8)& (0+255),f,b
  4993  003276  3397               	rrcf	(??_powf+7)& (0+255),f,b
  4994  003278  3396               	rrcf	(??_powf+6)& (0+255),f,b
  4995  00327A  3395               	rrcf	(??_powf+5)& (0+255),f,b
  4996  00327C  2F94               	decfsz	(??_powf+4)& (0+255),f,b
  4997  00327E  EF34  F019         	goto	u5605
  4998  003282                     u5607:
  4999  003282  0100               	movlb	0	; () banked
  5000  003284  5195               	movf	(??_powf+5)& (0+255),w,b
  5001  003286  2590               	addwf	??_powf& (0+255),w,b
  5002  003288  0101               	movlb	1	; () banked
  5003  00328A  6FA0               	movwf	powf@k& (0+255),b
  5004  00328C  0E00               	movlw	0
  5005  00328E  0100               	movlb	0	; () banked
  5006  003290  2191               	addwfc	(??_powf+1)& (0+255),w,b
  5007  003292  0101               	movlb	1	; () banked
  5008  003294  6FA1               	movwf	(powf@k+1)& (0+255),b
  5009  003296  0E00               	movlw	0
  5010  003298  0100               	movlb	0	; () banked
  5011  00329A  2192               	addwfc	(??_powf+2)& (0+255),w,b
  5012  00329C  0101               	movlb	1	; () banked
  5013  00329E  6FA2               	movwf	(powf@k+2)& (0+255),b
  5014  0032A0  0E00               	movlw	0
  5015  0032A2  0100               	movlb	0	; () banked
  5016  0032A4  2193               	addwfc	(??_powf+3)& (0+255),w,b
  5017  0032A6  0101               	movlb	1	; () banked
  5018  0032A8  6FA3               	movwf	(powf@k+3)& (0+255),b
  5019  0032AA                     
  5020                           ; BSR set to: 1
  5021  0032AA  C1A0  F090         	movff	powf@k,??_powf
  5022  0032AE  0EFF               	movlw	255
  5023  0032B0  0100               	movlb	0	; () banked
  5024  0032B2  6F91               	movwf	(??_powf+1)& (0+255),b
  5025  0032B4  0EFF               	movlw	255
  5026  0032B6  6F92               	movwf	(??_powf+2)& (0+255),b
  5027  0032B8  0E7F               	movlw	127
  5028  0032BA  6F93               	movwf	(??_powf+3)& (0+255),b
  5029  0032BC  0E00               	movlw	0
  5030  0032BE  6F94               	movwf	(??_powf+4)& (0+255),b
  5031  0032C0                     u5615:
  5032  0032C0  6790               	tstfsz	??_powf& (0+255),b
  5033  0032C2  EF65  F019         	goto	u5616
  5034  0032C6  EF6D  F019         	goto	u5617
  5035  0032CA                     u5616:
  5036  0032CA  3594               	rlcf	(??_powf+4)& (0+255),w,b
  5037  0032CC  3394               	rrcf	(??_powf+4)& (0+255),f,b
  5038  0032CE  3393               	rrcf	(??_powf+3)& (0+255),f,b
  5039  0032D0  3392               	rrcf	(??_powf+2)& (0+255),f,b
  5040  0032D2  3391               	rrcf	(??_powf+1)& (0+255),f,b
  5041  0032D4  2F90               	decfsz	??_powf& (0+255),f,b
  5042  0032D6  EF60  F019         	goto	u5615
  5043  0032DA                     u5617:
  5044  0032DA  0100               	movlb	0	; () banked
  5045  0032DC  1D91               	comf	(??_powf+1)& (0+255),w,b
  5046  0032DE  6F95               	movwf	(??_powf+5)& (0+255),b
  5047  0032E0  1D92               	comf	(??_powf+2)& (0+255),w,b
  5048  0032E2  6F96               	movwf	(??_powf+6)& (0+255),b
  5049  0032E4  1D93               	comf	(??_powf+3)& (0+255),w,b
  5050  0032E6  6F97               	movwf	(??_powf+7)& (0+255),b
  5051  0032E8  1D94               	comf	(??_powf+4)& (0+255),w,b
  5052  0032EA  6F98               	movwf	(??_powf+8)& (0+255),b
  5053  0032EC  0101               	movlb	1	; () banked
  5054  0032EE  5188               	movf	powf@n& (0+255),w,b
  5055  0032F0  0100               	movlb	0	; () banked
  5056  0032F2  1595               	andwf	(??_powf+5)& (0+255),w,b
  5057  0032F4  0101               	movlb	1	; () banked
  5058  0032F6  6FB8               	movwf	powf@__xc8_float_word& (0+255),b
  5059  0032F8  5189               	movf	(powf@n+1)& (0+255),w,b
  5060  0032FA  0100               	movlb	0	; () banked
  5061  0032FC  1596               	andwf	(??_powf+6)& (0+255),w,b
  5062  0032FE  0101               	movlb	1	; () banked
  5063  003300  6FB9               	movwf	(powf@__xc8_float_word+1)& (0+255),b
  5064  003302  518A               	movf	(powf@n+2)& (0+255),w,b
  5065  003304  0100               	movlb	0	; () banked
  5066  003306  1597               	andwf	(??_powf+7)& (0+255),w,b
  5067  003308  0101               	movlb	1	; () banked
  5068  00330A  6FBA               	movwf	(powf@__xc8_float_word+2)& (0+255),b
  5069  00330C  518B               	movf	(powf@n+3)& (0+255),w,b
  5070  00330E  0100               	movlb	0	; () banked
  5071  003310  1598               	andwf	(??_powf+8)& (0+255),w,b
  5072  003312  0101               	movlb	1	; () banked
  5073  003314  6FBB               	movwf	(powf@__xc8_float_word+3)& (0+255),b
  5074  003316                     
  5075                           ; BSR set to: 1
  5076  003316  C1B8  F1B0         	movff	powf@__xc8_float_word,powf@t
  5077  00331A  C1B9  F1B1         	movff	powf@__xc8_float_word+1,powf@t+1
  5078  00331E  C1BA  F1B2         	movff	powf@__xc8_float_word+2,powf@t+2
  5079  003322  C1BB  F1B3         	movff	powf@__xc8_float_word+3,powf@t+3
  5080  003326                     
  5081                           ; BSR set to: 1
  5082  003326  51A0               	movf	powf@k& (0+255),w,b
  5083  003328  0817               	sublw	23
  5084  00332A  0100               	movlb	0	; () banked
  5085  00332C  6F90               	movwf	??_powf& (0+255),b
  5086  00332E  0EFF               	movlw	255
  5087  003330  0101               	movlb	1	; () banked
  5088  003332  1588               	andwf	powf@n& (0+255),w,b
  5089  003334  0100               	movlb	0	; () banked
  5090  003336  6F91               	movwf	(??_powf+1)& (0+255),b
  5091  003338  0EFF               	movlw	255
  5092  00333A  0101               	movlb	1	; () banked
  5093  00333C  1589               	andwf	(powf@n+1)& (0+255),w,b
  5094  00333E  0100               	movlb	0	; () banked
  5095  003340  6F92               	movwf	(??_powf+2)& (0+255),b
  5096  003342  0E7F               	movlw	127
  5097  003344  0101               	movlb	1	; () banked
  5098  003346  158A               	andwf	(powf@n+2)& (0+255),w,b
  5099  003348  0100               	movlb	0	; () banked
  5100  00334A  6F93               	movwf	(??_powf+3)& (0+255),b
  5101  00334C  0E00               	movlw	0
  5102  00334E  0101               	movlb	1	; () banked
  5103  003350  158B               	andwf	(powf@n+3)& (0+255),w,b
  5104  003352  0100               	movlb	0	; () banked
  5105  003354  6F94               	movwf	(??_powf+4)& (0+255),b
  5106  003356  0E00               	movlw	0
  5107  003358  1191               	iorwf	(??_powf+1)& (0+255),w,b
  5108  00335A  6F95               	movwf	(??_powf+5)& (0+255),b
  5109  00335C  0E00               	movlw	0
  5110  00335E  1192               	iorwf	(??_powf+2)& (0+255),w,b
  5111  003360  6F96               	movwf	(??_powf+6)& (0+255),b
  5112  003362  0E80               	movlw	128
  5113  003364  1193               	iorwf	(??_powf+3)& (0+255),w,b
  5114  003366  6F97               	movwf	(??_powf+7)& (0+255),b
  5115  003368  0E00               	movlw	0
  5116  00336A  1194               	iorwf	(??_powf+4)& (0+255),w,b
  5117  00336C  6F98               	movwf	(??_powf+8)& (0+255),b
  5118  00336E                     u5625:
  5119  00336E  6790               	tstfsz	??_powf& (0+255),b
  5120  003370  EFBC  F019         	goto	u5626
  5121  003374  EFC4  F019         	goto	u5627
  5122  003378                     u5626:
  5123  003378  3598               	rlcf	(??_powf+8)& (0+255),w,b
  5124  00337A  3398               	rrcf	(??_powf+8)& (0+255),f,b
  5125  00337C  3397               	rrcf	(??_powf+7)& (0+255),f,b
  5126  00337E  3396               	rrcf	(??_powf+6)& (0+255),f,b
  5127  003380  3395               	rrcf	(??_powf+5)& (0+255),f,b
  5128  003382  2F90               	decfsz	??_powf& (0+255),f,b
  5129  003384  EFB7  F019         	goto	u5625
  5130  003388                     u5627:
  5131  003388  C095  F188         	movff	??_powf+5,powf@n
  5132  00338C  C096  F189         	movff	??_powf+6,powf@n+1
  5133  003390  C097  F18A         	movff	??_powf+7,powf@n+2
  5134  003394  C098  F18B         	movff	??_powf+8,powf@n+3
  5135  003398  0101               	movlb	1	; () banked
  5136  00339A  BFAF               	btfsc	(powf@j+3)& (0+255),7,b
  5137  00339C  EFD4  F019         	goto	u5630
  5138  0033A0  EFD2  F019         	goto	u5631
  5139  0033A4                     u5631:
  5140  0033A4  EFDC  F019         	goto	l5147
  5141  0033A8                     u5630:
  5142  0033A8                     
  5143                           ; BSR set to: 1
  5144  0033A8  1F8B               	comf	(powf@n+3)& (0+255),f,b
  5145  0033AA  1F8A               	comf	(powf@n+2)& (0+255),f,b
  5146  0033AC  1F89               	comf	(powf@n+1)& (0+255),f,b
  5147  0033AE  6D88               	negf	powf@n& (0+255),b
  5148  0033B0  0E00               	movlw	0
  5149  0033B2  2389               	addwfc	(powf@n+1)& (0+255),f,b
  5150  0033B4  238A               	addwfc	(powf@n+2)& (0+255),f,b
  5151  0033B6  238B               	addwfc	(powf@n+3)& (0+255),f,b
  5152  0033B8                     l5147:
  5153                           
  5154                           ; BSR set to: 1
  5155  0033B8  C19C  F03A         	movff	powf@p_h,___flsub@b
  5156  0033BC  C19D  F03B         	movff	powf@p_h+1,___flsub@b+1
  5157  0033C0  C19E  F03C         	movff	powf@p_h+2,___flsub@b+2
  5158  0033C4  C19F  F03D         	movff	powf@p_h+3,___flsub@b+3
  5159  0033C8  C1B0  F03E         	movff	powf@t,___flsub@a
  5160  0033CC  C1B1  F03F         	movff	powf@t+1,___flsub@a+1
  5161  0033D0  C1B2  F040         	movff	powf@t+2,___flsub@a+2
  5162  0033D4  C1B3  F041         	movff	powf@t+3,___flsub@a+3
  5163  0033D8  EC9A  F02B         	call	___flsub	;wreg free
  5164  0033DC  C03A  F19C         	movff	?___flsub,powf@p_h
  5165  0033E0  C03B  F19D         	movff	?___flsub+1,powf@p_h+1
  5166  0033E4  C03C  F19E         	movff	?___flsub+2,powf@p_h+2
  5167  0033E8  C03D  F19F         	movff	?___flsub+3,powf@p_h+3
  5168  0033EC                     l5149:
  5169  0033EC  C164  F003         	movff	powf@p_l,___fladd@b
  5170  0033F0  C165  F004         	movff	powf@p_l+1,___fladd@b+1
  5171  0033F4  C166  F005         	movff	powf@p_l+2,___fladd@b+2
  5172  0033F8  C167  F006         	movff	powf@p_l+3,___fladd@b+3
  5173  0033FC  C19C  F007         	movff	powf@p_h,___fladd@a
  5174  003400  C19D  F008         	movff	powf@p_h+1,___fladd@a+1
  5175  003404  C19E  F009         	movff	powf@p_h+2,___fladd@a+2
  5176  003408  C19F  F00A         	movff	powf@p_h+3,___fladd@a+3
  5177  00340C  ECB9  F01F         	call	___fladd	;wreg free
  5178  003410  C003  F1B0         	movff	?___fladd,powf@t
  5179  003414  C004  F1B1         	movff	?___fladd+1,powf@t+1
  5180  003418  C005  F1B2         	movff	?___fladd+2,powf@t+2
  5181  00341C  C006  F1B3         	movff	?___fladd+3,powf@t+3
  5182  003420  C1B0  F1B8         	movff	powf@t,powf@__xc8_float_word
  5183  003424  C1B1  F1B9         	movff	powf@t+1,powf@__xc8_float_word+1
  5184  003428  C1B2  F1BA         	movff	powf@t+2,powf@__xc8_float_word+2
  5185  00342C  C1B3  F1BB         	movff	powf@t+3,powf@__xc8_float_word+3
  5186  003430  C1B8  F194         	movff	powf@__xc8_float_word,powf@is
  5187  003434  C1B9  F195         	movff	powf@__xc8_float_word+1,powf@is+1
  5188  003438  C1BA  F196         	movff	powf@__xc8_float_word+2,powf@is+2
  5189  00343C  C1BB  F197         	movff	powf@__xc8_float_word+3,powf@is+3
  5190  003440  0E00               	movlw	0
  5191  003442  0101               	movlb	1	; () banked
  5192  003444  1594               	andwf	powf@is& (0+255),w,b
  5193  003446  6FB8               	movwf	powf@__xc8_float_word& (0+255),b
  5194  003448  0E80               	movlw	128
  5195  00344A  1595               	andwf	(powf@is+1)& (0+255),w,b
  5196  00344C  6FB9               	movwf	(powf@__xc8_float_word+1)& (0+255),b
  5197  00344E  0EFF               	movlw	255
  5198  003450  1596               	andwf	(powf@is+2)& (0+255),w,b
  5199  003452  6FBA               	movwf	(powf@__xc8_float_word+2)& (0+255),b
  5200  003454  0EFF               	movlw	255
  5201  003456  1597               	andwf	(powf@is+3)& (0+255),w,b
  5202  003458  6FBB               	movwf	(powf@__xc8_float_word+3)& (0+255),b
  5203  00345A                     
  5204                           ; BSR set to: 1
  5205  00345A  C1B8  F1B0         	movff	powf@__xc8_float_word,powf@t
  5206  00345E  C1B9  F1B1         	movff	powf@__xc8_float_word+1,powf@t+1
  5207  003462  C1BA  F1B2         	movff	powf@__xc8_float_word+2,powf@t+2
  5208  003466  C1BB  F1B3         	movff	powf@__xc8_float_word+3,powf@t+3
  5209  00346A                     
  5210                           ; BSR set to: 1
  5211  00346A  C1B0  F013         	movff	powf@t,___flmul@b
  5212  00346E  C1B1  F014         	movff	powf@t+1,___flmul@b+1
  5213  003472  C1B2  F015         	movff	powf@t+2,___flmul@b+2
  5214  003476  C1B3  F016         	movff	powf@t+3,___flmul@b+3
  5215  00347A  0E00               	movlw	0
  5216  00347C  6E17               	movwf	___flmul@a^0,c
  5217  00347E  0E72               	movlw	114
  5218  003480  6E18               	movwf	(___flmul@a+1)^0,c
  5219  003482  0E31               	movlw	49
  5220  003484  6E19               	movwf	(___flmul@a+2)^0,c
  5221  003486  0E3F               	movlw	63
  5222  003488  6E1A               	movwf	(___flmul@a+3)^0,c
  5223  00348A  EC19  F022         	call	___flmul	;wreg free
  5224  00348E  C013  F174         	movff	?___flmul,powf@u
  5225  003492  C014  F175         	movff	?___flmul+1,powf@u+1
  5226  003496  C015  F176         	movff	?___flmul+2,powf@u+2
  5227  00349A  C016  F177         	movff	?___flmul+3,powf@u+3
  5228  00349E  C19C  F03E         	movff	powf@p_h,___flsub@a
  5229  0034A2  C19D  F03F         	movff	powf@p_h+1,___flsub@a+1
  5230  0034A6  C19E  F040         	movff	powf@p_h+2,___flsub@a+2
  5231  0034AA  C19F  F041         	movff	powf@p_h+3,___flsub@a+3
  5232  0034AE  C1B0  F03A         	movff	powf@t,___flsub@b
  5233  0034B2  C1B1  F03B         	movff	powf@t+1,___flsub@b+1
  5234  0034B6  C1B2  F03C         	movff	powf@t+2,___flsub@b+2
  5235  0034BA  C1B3  F03D         	movff	powf@t+3,___flsub@b+3
  5236  0034BE  EC9A  F02B         	call	___flsub	;wreg free
  5237  0034C2  C03A  F198         	movff	?___flsub,_powf$1347
  5238  0034C6  C03B  F199         	movff	?___flsub+1,_powf$1347+1
  5239  0034CA  C03C  F19A         	movff	?___flsub+2,_powf$1347+2
  5240  0034CE  C03D  F19B         	movff	?___flsub+3,_powf$1347+3
  5241  0034D2  0E18               	movlw	24
  5242  0034D4  6E17               	movwf	___flmul@a^0,c
  5243  0034D6  0E72               	movlw	114
  5244  0034D8  6E18               	movwf	(___flmul@a+1)^0,c
  5245  0034DA  0E31               	movlw	49
  5246  0034DC  6E19               	movwf	(___flmul@a+2)^0,c
  5247  0034DE  0E3F               	movlw	63
  5248  0034E0  6E1A               	movwf	(___flmul@a+3)^0,c
  5249  0034E2  C198  F03E         	movff	_powf$1347,___flsub@a
  5250  0034E6  C199  F03F         	movff	_powf$1347+1,___flsub@a+1
  5251  0034EA  C19A  F040         	movff	_powf$1347+2,___flsub@a+2
  5252  0034EE  C19B  F041         	movff	_powf$1347+3,___flsub@a+3
  5253  0034F2  C164  F03A         	movff	powf@p_l,___flsub@b
  5254  0034F6  C165  F03B         	movff	powf@p_l+1,___flsub@b+1
  5255  0034FA  C166  F03C         	movff	powf@p_l+2,___flsub@b+2
  5256  0034FE  C167  F03D         	movff	powf@p_l+3,___flsub@b+3
  5257  003502  EC9A  F02B         	call	___flsub	;wreg free
  5258  003506  C03A  F013         	movff	?___flsub,___flmul@b
  5259  00350A  C03B  F014         	movff	?___flsub+1,___flmul@b+1
  5260  00350E  C03C  F015         	movff	?___flsub+2,___flmul@b+2
  5261  003512  C03D  F016         	movff	?___flsub+3,___flmul@b+3
  5262  003516  EC19  F022         	call	___flmul	;wreg free
  5263  00351A  C013  F114         	movff	?___flmul,_powf$1357
  5264  00351E  C014  F115         	movff	?___flmul+1,_powf$1357+1
  5265  003522  C015  F116         	movff	?___flmul+2,_powf$1357+2
  5266  003526  C016  F117         	movff	?___flmul+3,_powf$1357+3
  5267  00352A  C114  F003         	movff	_powf$1357,___fladd@b
  5268  00352E  C115  F004         	movff	_powf$1357+1,___fladd@b+1
  5269  003532  C116  F005         	movff	_powf$1357+2,___fladd@b+2
  5270  003536  C117  F006         	movff	_powf$1357+3,___fladd@b+3
  5271  00353A  0E8C               	movlw	140
  5272  00353C  6E17               	movwf	___flmul@a^0,c
  5273  00353E  0EBE               	movlw	190
  5274  003540  6E18               	movwf	(___flmul@a+1)^0,c
  5275  003542  0EBF               	movlw	191
  5276  003544  6E19               	movwf	(___flmul@a+2)^0,c
  5277  003546  0E35               	movlw	53
  5278  003548  6E1A               	movwf	(___flmul@a+3)^0,c
  5279  00354A  C1B0  F013         	movff	powf@t,___flmul@b
  5280  00354E  C1B1  F014         	movff	powf@t+1,___flmul@b+1
  5281  003552  C1B2  F015         	movff	powf@t+2,___flmul@b+2
  5282  003556  C1B3  F016         	movff	powf@t+3,___flmul@b+3
  5283  00355A  EC19  F022         	call	___flmul	;wreg free
  5284  00355E  C013  F007         	movff	?___flmul,___fladd@a
  5285  003562  C014  F008         	movff	?___flmul+1,___fladd@a+1
  5286  003566  C015  F009         	movff	?___flmul+2,___fladd@a+2
  5287  00356A  C016  F00A         	movff	?___flmul+3,___fladd@a+3
  5288  00356E  ECB9  F01F         	call	___fladd	;wreg free
  5289  003572  C003  F178         	movff	?___fladd,powf@v
  5290  003576  C004  F179         	movff	?___fladd+1,powf@v+1
  5291  00357A  C005  F17A         	movff	?___fladd+2,powf@v+2
  5292  00357E  C006  F17B         	movff	?___fladd+3,powf@v+3
  5293  003582  C174  F003         	movff	powf@u,___fladd@b
  5294  003586  C175  F004         	movff	powf@u+1,___fladd@b+1
  5295  00358A  C176  F005         	movff	powf@u+2,___fladd@b+2
  5296  00358E  C177  F006         	movff	powf@u+3,___fladd@b+3
  5297  003592  C178  F007         	movff	powf@v,___fladd@a
  5298  003596  C179  F008         	movff	powf@v+1,___fladd@a+1
  5299  00359A  C17A  F009         	movff	powf@v+2,___fladd@a+2
  5300  00359E  C17B  F00A         	movff	powf@v+3,___fladd@a+3
  5301  0035A2  ECB9  F01F         	call	___fladd	;wreg free
  5302  0035A6  C003  F1B4         	movff	?___fladd,powf@z
  5303  0035AA  C004  F1B5         	movff	?___fladd+1,powf@z+1
  5304  0035AE  C005  F1B6         	movff	?___fladd+2,powf@z+2
  5305  0035B2  C006  F1B7         	movff	?___fladd+3,powf@z+3
  5306  0035B6  C174  F03E         	movff	powf@u,___flsub@a
  5307  0035BA  C175  F03F         	movff	powf@u+1,___flsub@a+1
  5308  0035BE  C176  F040         	movff	powf@u+2,___flsub@a+2
  5309  0035C2  C177  F041         	movff	powf@u+3,___flsub@a+3
  5310  0035C6  C1B4  F03A         	movff	powf@z,___flsub@b
  5311  0035CA  C1B5  F03B         	movff	powf@z+1,___flsub@b+1
  5312  0035CE  C1B6  F03C         	movff	powf@z+2,___flsub@b+2
  5313  0035D2  C1B7  F03D         	movff	powf@z+3,___flsub@b+3
  5314  0035D6  EC9A  F02B         	call	___flsub	;wreg free
  5315  0035DA  C03A  F198         	movff	?___flsub,_powf$1347
  5316  0035DE  C03B  F199         	movff	?___flsub+1,_powf$1347+1
  5317  0035E2  C03C  F19A         	movff	?___flsub+2,_powf$1347+2
  5318  0035E6  C03D  F19B         	movff	?___flsub+3,_powf$1347+3
  5319  0035EA  C178  F03A         	movff	powf@v,___flsub@b
  5320  0035EE  C179  F03B         	movff	powf@v+1,___flsub@b+1
  5321  0035F2  C17A  F03C         	movff	powf@v+2,___flsub@b+2
  5322  0035F6  C17B  F03D         	movff	powf@v+3,___flsub@b+3
  5323  0035FA  C198  F03E         	movff	_powf$1347,___flsub@a
  5324  0035FE  C199  F03F         	movff	_powf$1347+1,___flsub@a+1
  5325  003602  C19A  F040         	movff	_powf$1347+2,___flsub@a+2
  5326  003606  C19B  F041         	movff	_powf$1347+3,___flsub@a+3
  5327  00360A  EC9A  F02B         	call	___flsub	;wreg free
  5328  00360E  C03A  F144         	movff	?___flsub,powf@w
  5329  003612  C03B  F145         	movff	?___flsub+1,powf@w+1
  5330  003616  C03C  F146         	movff	?___flsub+2,powf@w+2
  5331  00361A  C03D  F147         	movff	?___flsub+3,powf@w+3
  5332  00361E  C1B4  F013         	movff	powf@z,___flmul@b
  5333  003622  C1B5  F014         	movff	powf@z+1,___flmul@b+1
  5334  003626  C1B6  F015         	movff	powf@z+2,___flmul@b+2
  5335  00362A  C1B7  F016         	movff	powf@z+3,___flmul@b+3
  5336  00362E  C1B4  F017         	movff	powf@z,___flmul@a
  5337  003632  C1B5  F018         	movff	powf@z+1,___flmul@a+1
  5338  003636  C1B6  F019         	movff	powf@z+2,___flmul@a+2
  5339  00363A  C1B7  F01A         	movff	powf@z+3,___flmul@a+3
  5340  00363E  EC19  F022         	call	___flmul	;wreg free
  5341  003642  C013  F1B0         	movff	?___flmul,powf@t
  5342  003646  C014  F1B1         	movff	?___flmul+1,powf@t+1
  5343  00364A  C015  F1B2         	movff	?___flmul+2,powf@t+2
  5344  00364E  C016  F1B3         	movff	?___flmul+3,powf@t+3
  5345  003652  0E0E               	movlw	14
  5346  003654  6E07               	movwf	___fladd@a^0,c
  5347  003656  0EEA               	movlw	234
  5348  003658  6E08               	movwf	(___fladd@a+1)^0,c
  5349  00365A  0EDD               	movlw	221
  5350  00365C  6E09               	movwf	(___fladd@a+2)^0,c
  5351  00365E  0EB5               	movlw	181
  5352  003660  6E0A               	movwf	(___fladd@a+3)^0,c
  5353  003662  0E4C               	movlw	76
  5354  003664  6E17               	movwf	___flmul@a^0,c
  5355  003666  0EBB               	movlw	187
  5356  003668  6E18               	movwf	(___flmul@a+1)^0,c
  5357  00366A  0E31               	movlw	49
  5358  00366C  6E19               	movwf	(___flmul@a+2)^0,c
  5359  00366E  0E33               	movlw	51
  5360  003670  6E1A               	movwf	(___flmul@a+3)^0,c
  5361  003672  C1B0  F013         	movff	powf@t,___flmul@b
  5362  003676  C1B1  F014         	movff	powf@t+1,___flmul@b+1
  5363  00367A  C1B2  F015         	movff	powf@t+2,___flmul@b+2
  5364  00367E  C1B3  F016         	movff	powf@t+3,___flmul@b+3
  5365  003682  EC19  F022         	call	___flmul	;wreg free
  5366  003686  C013  F003         	movff	?___flmul,___fladd@b
  5367  00368A  C014  F004         	movff	?___flmul+1,___fladd@b+1
  5368  00368E  C015  F005         	movff	?___flmul+2,___fladd@b+2
  5369  003692  C016  F006         	movff	?___flmul+3,___fladd@b+3
  5370  003696  ECB9  F01F         	call	___fladd	;wreg free
  5371  00369A  C003  F1A4         	movff	?___fladd,_powf$1344
  5372  00369E  C004  F1A5         	movff	?___fladd+1,_powf$1344+1
  5373  0036A2  C005  F1A6         	movff	?___fladd+2,_powf$1344+2
  5374  0036A6  C006  F1A7         	movff	?___fladd+3,_powf$1344+3
  5375  0036AA  0E55               	movlw	85
  5376  0036AC  6E07               	movwf	___fladd@a^0,c
  5377  0036AE  0EB3               	movlw	179
  5378  0036B0  6E08               	movwf	(___fladd@a+1)^0,c
  5379  0036B2  0E8A               	movlw	138
  5380  0036B4  6E09               	movwf	(___fladd@a+2)^0,c
  5381  0036B6  0E38               	movlw	56
  5382  0036B8  6E0A               	movwf	(___fladd@a+3)^0,c
  5383  0036BA  C1B0  F017         	movff	powf@t,___flmul@a
  5384  0036BE  C1B1  F018         	movff	powf@t+1,___flmul@a+1
  5385  0036C2  C1B2  F019         	movff	powf@t+2,___flmul@a+2
  5386  0036C6  C1B3  F01A         	movff	powf@t+3,___flmul@a+3
  5387  0036CA  C1A4  F013         	movff	_powf$1344,___flmul@b
  5388  0036CE  C1A5  F014         	movff	_powf$1344+1,___flmul@b+1
  5389  0036D2  C1A6  F015         	movff	_powf$1344+2,___flmul@b+2
  5390  0036D6  C1A7  F016         	movff	_powf$1344+3,___flmul@b+3
  5391  0036DA  EC19  F022         	call	___flmul	;wreg free
  5392  0036DE  C013  F003         	movff	?___flmul,___fladd@b
  5393  0036E2  C014  F004         	movff	?___flmul+1,___fladd@b+1
  5394  0036E6  C015  F005         	movff	?___flmul+2,___fladd@b+2
  5395  0036EA  C016  F006         	movff	?___flmul+3,___fladd@b+3
  5396  0036EE  ECB9  F01F         	call	___fladd	;wreg free
  5397  0036F2  C003  F158         	movff	?___fladd,_powf$1345
  5398  0036F6  C004  F159         	movff	?___fladd+1,_powf$1345+1
  5399  0036FA  C005  F15A         	movff	?___fladd+2,_powf$1345+2
  5400  0036FE  C006  F15B         	movff	?___fladd+3,_powf$1345+3
  5401  003702  0E61               	movlw	97
  5402  003704  6E07               	movwf	___fladd@a^0,c
  5403  003706  0E0B               	movlw	11
  5404  003708  6E08               	movwf	(___fladd@a+1)^0,c
  5405  00370A  0E36               	movlw	54
  5406  00370C  6E09               	movwf	(___fladd@a+2)^0,c
  5407  00370E  0EBB               	movlw	187
  5408  003710  6E0A               	movwf	(___fladd@a+3)^0,c
  5409  003712  C1B0  F017         	movff	powf@t,___flmul@a
  5410  003716  C1B1  F018         	movff	powf@t+1,___flmul@a+1
  5411  00371A  C1B2  F019         	movff	powf@t+2,___flmul@a+2
  5412  00371E  C1B3  F01A         	movff	powf@t+3,___flmul@a+3
  5413  003722  C158  F013         	movff	_powf$1345,___flmul@b
  5414  003726  C159  F014         	movff	_powf$1345+1,___flmul@b+1
  5415  00372A  C15A  F015         	movff	_powf$1345+2,___flmul@b+2
  5416  00372E  C15B  F016         	movff	_powf$1345+3,___flmul@b+3
  5417  003732  EC19  F022         	call	___flmul	;wreg free
  5418  003736  C013  F003         	movff	?___flmul,___fladd@b
  5419  00373A  C014  F004         	movff	?___flmul+1,___fladd@b+1
  5420  00373E  C015  F005         	movff	?___flmul+2,___fladd@b+2
  5421  003742  C016  F006         	movff	?___flmul+3,___fladd@b+3
  5422  003746  ECB9  F01F         	call	___fladd	;wreg free
  5423  00374A  C003  F148         	movff	?___fladd,_powf$1346
  5424  00374E  C004  F149         	movff	?___fladd+1,_powf$1346+1
  5425  003752  C005  F14A         	movff	?___fladd+2,_powf$1346+2
  5426  003756  C006  F14B         	movff	?___fladd+3,_powf$1346+3
  5427  00375A  0EAB               	movlw	171
  5428  00375C  6E07               	movwf	___fladd@a^0,c
  5429  00375E  0EAA               	movlw	170
  5430  003760  6E08               	movwf	(___fladd@a+1)^0,c
  5431  003762  0E2A               	movlw	42
  5432  003764  6E09               	movwf	(___fladd@a+2)^0,c
  5433  003766  0E3E               	movlw	62
  5434  003768  6E0A               	movwf	(___fladd@a+3)^0,c
  5435  00376A  C1B0  F017         	movff	powf@t,___flmul@a
  5436  00376E  C1B1  F018         	movff	powf@t+1,___flmul@a+1
  5437  003772  C1B2  F019         	movff	powf@t+2,___flmul@a+2
  5438  003776  C1B3  F01A         	movff	powf@t+3,___flmul@a+3
  5439  00377A  C148  F013         	movff	_powf$1346,___flmul@b
  5440  00377E  C149  F014         	movff	_powf$1346+1,___flmul@b+1
  5441  003782  C14A  F015         	movff	_powf$1346+2,___flmul@b+2
  5442  003786  C14B  F016         	movff	_powf$1346+3,___flmul@b+3
  5443  00378A  EC19  F022         	call	___flmul	;wreg free
  5444  00378E  C013  F003         	movff	?___flmul,___fladd@b
  5445  003792  C014  F004         	movff	?___flmul+1,___fladd@b+1
  5446  003796  C015  F005         	movff	?___flmul+2,___fladd@b+2
  5447  00379A  C016  F006         	movff	?___flmul+3,___fladd@b+3
  5448  00379E  ECB9  F01F         	call	___fladd	;wreg free
  5449  0037A2  C003  F138         	movff	?___fladd,_powf$1348
  5450  0037A6  C004  F139         	movff	?___fladd+1,_powf$1348+1
  5451  0037AA  C005  F13A         	movff	?___fladd+2,_powf$1348+2
  5452  0037AE  C006  F13B         	movff	?___fladd+3,_powf$1348+3
  5453  0037B2  C1B4  F03A         	movff	powf@z,___flsub@b
  5454  0037B6  C1B5  F03B         	movff	powf@z+1,___flsub@b+1
  5455  0037BA  C1B6  F03C         	movff	powf@z+2,___flsub@b+2
  5456  0037BE  C1B7  F03D         	movff	powf@z+3,___flsub@b+3
  5457  0037C2  C1B0  F017         	movff	powf@t,___flmul@a
  5458  0037C6  C1B1  F018         	movff	powf@t+1,___flmul@a+1
  5459  0037CA  C1B2  F019         	movff	powf@t+2,___flmul@a+2
  5460  0037CE  C1B3  F01A         	movff	powf@t+3,___flmul@a+3
  5461  0037D2  C138  F013         	movff	_powf$1348,___flmul@b
  5462  0037D6  C139  F014         	movff	_powf$1348+1,___flmul@b+1
  5463  0037DA  C13A  F015         	movff	_powf$1348+2,___flmul@b+2
  5464  0037DE  C13B  F016         	movff	_powf$1348+3,___flmul@b+3
  5465  0037E2  EC19  F022         	call	___flmul	;wreg free
  5466  0037E6  C013  F03E         	movff	?___flmul,___flsub@a
  5467  0037EA  C014  F03F         	movff	?___flmul+1,___flsub@a+1
  5468  0037EE  C015  F040         	movff	?___flmul+2,___flsub@a+2
  5469  0037F2  C016  F041         	movff	?___flmul+3,___flsub@a+3
  5470  0037F6  EC9A  F02B         	call	___flsub	;wreg free
  5471  0037FA  C03A  F180         	movff	?___flsub,powf@t1
  5472  0037FE  C03B  F181         	movff	?___flsub+1,powf@t1+1
  5473  003802  C03C  F182         	movff	?___flsub+2,powf@t1+2
  5474  003806  C03D  F183         	movff	?___flsub+3,powf@t1+3
  5475  00380A  0E00               	movlw	0
  5476  00380C  6E07               	movwf	___fladd@a^0,c
  5477  00380E  0E00               	movlw	0
  5478  003810  6E08               	movwf	(___fladd@a+1)^0,c
  5479  003812  0E00               	movlw	0
  5480  003814  6E09               	movwf	(___fladd@a+2)^0,c
  5481  003816  0EC0               	movlw	192
  5482  003818  6E0A               	movwf	(___fladd@a+3)^0,c
  5483  00381A  C180  F003         	movff	powf@t1,___fladd@b
  5484  00381E  C181  F004         	movff	powf@t1+1,___fladd@b+1
  5485  003822  C182  F005         	movff	powf@t1+2,___fladd@b+2
  5486  003826  C183  F006         	movff	powf@t1+3,___fladd@b+3
  5487  00382A  ECB9  F01F         	call	___fladd	;wreg free
  5488  00382E  C003  F046         	movff	?___fladd,___fldiv@a
  5489  003832  C004  F047         	movff	?___fladd+1,___fldiv@a+1
  5490  003836  C005  F048         	movff	?___fladd+2,___fldiv@a+2
  5491  00383A  C006  F049         	movff	?___fladd+3,___fldiv@a+3
  5492  00383E  C180  F017         	movff	powf@t1,___flmul@a
  5493  003842  C181  F018         	movff	powf@t1+1,___flmul@a+1
  5494  003846  C182  F019         	movff	powf@t1+2,___flmul@a+2
  5495  00384A  C183  F01A         	movff	powf@t1+3,___flmul@a+3
  5496  00384E  C1B4  F013         	movff	powf@z,___flmul@b
  5497  003852  C1B5  F014         	movff	powf@z+1,___flmul@b+1
  5498  003856  C1B6  F015         	movff	powf@z+2,___flmul@b+2
  5499  00385A  C1B7  F016         	movff	powf@z+3,___flmul@b+3
  5500  00385E  EC19  F022         	call	___flmul	;wreg free
  5501  003862  C013  F042         	movff	?___flmul,___fldiv@b
  5502  003866  C014  F043         	movff	?___flmul+1,___fldiv@b+1
  5503  00386A  C015  F044         	movff	?___flmul+2,___fldiv@b+2
  5504  00386E  C016  F045         	movff	?___flmul+3,___fldiv@b+3
  5505  003872  EC2E  F024         	call	___fldiv	;wreg free
  5506  003876  C042  F13C         	movff	?___fldiv,_powf$1352
  5507  00387A  C043  F13D         	movff	?___fldiv+1,_powf$1352+1
  5508  00387E  C044  F13E         	movff	?___fldiv+2,_powf$1352+2
  5509  003882  C045  F13F         	movff	?___fldiv+3,_powf$1352+3
  5510  003886  C144  F007         	movff	powf@w,___fladd@a
  5511  00388A  C145  F008         	movff	powf@w+1,___fladd@a+1
  5512  00388E  C146  F009         	movff	powf@w+2,___fladd@a+2
  5513  003892  C147  F00A         	movff	powf@w+3,___fladd@a+3
  5514  003896  C144  F017         	movff	powf@w,___flmul@a
  5515  00389A  C145  F018         	movff	powf@w+1,___flmul@a+1
  5516  00389E  C146  F019         	movff	powf@w+2,___flmul@a+2
  5517  0038A2  C147  F01A         	movff	powf@w+3,___flmul@a+3
  5518  0038A6  C1B4  F013         	movff	powf@z,___flmul@b
  5519  0038AA  C1B5  F014         	movff	powf@z+1,___flmul@b+1
  5520  0038AE  C1B6  F015         	movff	powf@z+2,___flmul@b+2
  5521  0038B2  C1B7  F016         	movff	powf@z+3,___flmul@b+3
  5522  0038B6  EC19  F022         	call	___flmul	;wreg free
  5523  0038BA  C013  F003         	movff	?___flmul,___fladd@b
  5524  0038BE  C014  F004         	movff	?___flmul+1,___fladd@b+1
  5525  0038C2  C015  F005         	movff	?___flmul+2,___fladd@b+2
  5526  0038C6  C016  F006         	movff	?___flmul+3,___fladd@b+3
  5527  0038CA  ECB9  F01F         	call	___fladd	;wreg free
  5528  0038CE  C003  F118         	movff	?___fladd,_powf$1358
  5529  0038D2  C004  F119         	movff	?___fladd+1,_powf$1358+1
  5530  0038D6  C005  F11A         	movff	?___fladd+2,_powf$1358+2
  5531  0038DA  C006  F11B         	movff	?___fladd+3,_powf$1358+3
  5532  0038DE  C13C  F03A         	movff	_powf$1352,___flsub@b
  5533  0038E2  C13D  F03B         	movff	_powf$1352+1,___flsub@b+1
  5534  0038E6  C13E  F03C         	movff	_powf$1352+2,___flsub@b+2
  5535  0038EA  C13F  F03D         	movff	_powf$1352+3,___flsub@b+3
  5536  0038EE  C118  F03E         	movff	_powf$1358,___flsub@a
  5537  0038F2  C119  F03F         	movff	_powf$1358+1,___flsub@a+1
  5538  0038F6  C11A  F040         	movff	_powf$1358+2,___flsub@a+2
  5539  0038FA  C11B  F041         	movff	_powf$1358+3,___flsub@a+3
  5540  0038FE  EC9A  F02B         	call	___flsub	;wreg free
  5541  003902  C03A  F14C         	movff	?___flsub,powf@r
  5542  003906  C03B  F14D         	movff	?___flsub+1,powf@r+1
  5543  00390A  C03C  F14E         	movff	?___flsub+2,powf@r+2
  5544  00390E  C03D  F14F         	movff	?___flsub+3,powf@r+3
  5545  003912  C1B4  F03E         	movff	powf@z,___flsub@a
  5546  003916  C1B5  F03F         	movff	powf@z+1,___flsub@a+1
  5547  00391A  C1B6  F040         	movff	powf@z+2,___flsub@a+2
  5548  00391E  C1B7  F041         	movff	powf@z+3,___flsub@a+3
  5549  003922  C14C  F03A         	movff	powf@r,___flsub@b
  5550  003926  C14D  F03B         	movff	powf@r+1,___flsub@b+1
  5551  00392A  C14E  F03C         	movff	powf@r+2,___flsub@b+2
  5552  00392E  C14F  F03D         	movff	powf@r+3,___flsub@b+3
  5553  003932  EC9A  F02B         	call	___flsub	;wreg free
  5554  003936  C03A  F198         	movff	?___flsub,_powf$1347
  5555  00393A  C03B  F199         	movff	?___flsub+1,_powf$1347+1
  5556  00393E  C03C  F19A         	movff	?___flsub+2,_powf$1347+2
  5557  003942  C03D  F19B         	movff	?___flsub+3,_powf$1347+3
  5558  003946  0E00               	movlw	0
  5559  003948  6E3A               	movwf	___flsub@b^0,c
  5560  00394A  0E00               	movlw	0
  5561  00394C  6E3B               	movwf	(___flsub@b+1)^0,c
  5562  00394E  0E80               	movlw	128
  5563  003950  6E3C               	movwf	(___flsub@b+2)^0,c
  5564  003952  0E3F               	movlw	63
  5565  003954  6E3D               	movwf	(___flsub@b+3)^0,c
  5566  003956  C198  F03E         	movff	_powf$1347,___flsub@a
  5567  00395A  C199  F03F         	movff	_powf$1347+1,___flsub@a+1
  5568  00395E  C19A  F040         	movff	_powf$1347+2,___flsub@a+2
  5569  003962  C19B  F041         	movff	_powf$1347+3,___flsub@a+3
  5570  003966  EC9A  F02B         	call	___flsub	;wreg free
  5571  00396A  C03A  F1B4         	movff	?___flsub,powf@z
  5572  00396E  C03B  F1B5         	movff	?___flsub+1,powf@z+1
  5573  003972  C03C  F1B6         	movff	?___flsub+2,powf@z+2
  5574  003976  C03D  F1B7         	movff	?___flsub+3,powf@z+3
  5575  00397A  C1B4  F1B8         	movff	powf@z,powf@__xc8_float_word
  5576  00397E  C1B5  F1B9         	movff	powf@z+1,powf@__xc8_float_word+1
  5577  003982  C1B6  F1BA         	movff	powf@z+2,powf@__xc8_float_word+2
  5578  003986  C1B7  F1BB         	movff	powf@z+3,powf@__xc8_float_word+3
  5579  00398A  C1B8  F1AC         	movff	powf@__xc8_float_word,powf@j
  5580  00398E  C1B9  F1AD         	movff	powf@__xc8_float_word+1,powf@j+1
  5581  003992  C1BA  F1AE         	movff	powf@__xc8_float_word+2,powf@j+2
  5582  003996  C1BB  F1AF         	movff	powf@__xc8_float_word+3,powf@j+3
  5583  00399A  C188  F090         	movff	powf@n,??_powf
  5584  00399E  C189  F091         	movff	powf@n+1,??_powf+1
  5585  0039A2  C18A  F092         	movff	powf@n+2,??_powf+2
  5586  0039A6  C18B  F093         	movff	powf@n+3,??_powf+3
  5587  0039AA  0E17               	movlw	23
  5588  0039AC                     u5645:
  5589  0039AC  90D8               	bcf	status,0,c
  5590  0039AE  0100               	movlb	0	; () banked
  5591  0039B0  3790               	rlcf	??_powf& (0+255),f,b
  5592  0039B2  3791               	rlcf	(??_powf+1)& (0+255),f,b
  5593  0039B4  3792               	rlcf	(??_powf+2)& (0+255),f,b
  5594  0039B6  3793               	rlcf	(??_powf+3)& (0+255),f,b
  5595  0039B8  2EE8               	decfsz	wreg,f,c
  5596  0039BA  EFD6  F01C         	goto	u5645
  5597  0039BE  5190               	movf	??_powf& (0+255),w,b
  5598  0039C0  0101               	movlb	1	; () banked
  5599  0039C2  27AC               	addwf	powf@j& (0+255),f,b
  5600  0039C4  0100               	movlb	0	; () banked
  5601  0039C6  5191               	movf	(??_powf+1)& (0+255),w,b
  5602  0039C8  0101               	movlb	1	; () banked
  5603  0039CA  23AD               	addwfc	(powf@j+1)& (0+255),f,b
  5604  0039CC  0100               	movlb	0	; () banked
  5605  0039CE  5192               	movf	(??_powf+2)& (0+255),w,b
  5606  0039D0  0101               	movlb	1	; () banked
  5607  0039D2  23AE               	addwfc	(powf@j+2)& (0+255),f,b
  5608  0039D4  0100               	movlb	0	; () banked
  5609  0039D6  5193               	movf	(??_powf+3)& (0+255),w,b
  5610  0039D8  0101               	movlb	1	; () banked
  5611  0039DA  23AF               	addwfc	(powf@j+3)& (0+255),f,b
  5612  0039DC                     
  5613                           ; BSR set to: 1
  5614  0039DC  0E17               	movlw	23
  5615  0039DE  0100               	movlb	0	; () banked
  5616  0039E0  6F90               	movwf	??_powf& (0+255),b
  5617  0039E2  C1AC  F091         	movff	powf@j,??_powf+1
  5618  0039E6  C1AD  F092         	movff	powf@j+1,??_powf+2
  5619  0039EA  C1AE  F093         	movff	powf@j+2,??_powf+3
  5620  0039EE  C1AF  F094         	movff	powf@j+3,??_powf+4
  5621  0039F2                     u5655:
  5622  0039F2  6790               	tstfsz	??_powf& (0+255),b
  5623  0039F4  EFFE  F01C         	goto	u5656
  5624  0039F8  EF06  F01D         	goto	u5657
  5625  0039FC                     u5656:
  5626  0039FC  3594               	rlcf	(??_powf+4)& (0+255),w,b
  5627  0039FE  3394               	rrcf	(??_powf+4)& (0+255),f,b
  5628  003A00  3393               	rrcf	(??_powf+3)& (0+255),f,b
  5629  003A02  3392               	rrcf	(??_powf+2)& (0+255),f,b
  5630  003A04  3391               	rrcf	(??_powf+1)& (0+255),f,b
  5631  003A06  2F90               	decfsz	??_powf& (0+255),f,b
  5632  003A08  EFF9  F01C         	goto	u5655
  5633  003A0C                     u5657:
  5634  003A0C  0100               	movlb	0	; () banked
  5635  003A0E  BF94               	btfsc	(??_powf+4)& (0+255),7,b
  5636  003A10  EF16  F01D         	goto	u5660
  5637  003A14  5194               	movf	(??_powf+4)& (0+255),w,b
  5638  003A16  1193               	iorwf	(??_powf+3)& (0+255),w,b
  5639  003A18  1192               	iorwf	(??_powf+2)& (0+255),w,b
  5640  003A1A  E106               	bnz	u5661
  5641  003A1C  0591               	decf	(??_powf+1)& (0+255),w,b
  5642  003A1E  B0D8               	btfsc	status,0,c
  5643  003A20  EF14  F01D         	goto	u5661
  5644  003A24  EF16  F01D         	goto	u5660
  5645  003A28                     u5661:
  5646  003A28  EF2E  F01D         	goto	l1164
  5647  003A2C                     u5660:
  5648  003A2C                     
  5649                           ; BSR set to: 0
  5650  003A2C  C1B4  F02C         	movff	powf@z,scalbnf@x
  5651  003A30  C1B5  F02D         	movff	powf@z+1,scalbnf@x+1
  5652  003A34  C1B6  F02E         	movff	powf@z+2,scalbnf@x+2
  5653  003A38  C1B7  F02F         	movff	powf@z+3,scalbnf@x+3
  5654  003A3C  C188  F030         	movff	powf@n,scalbnf@n
  5655  003A40  C189  F031         	movff	powf@n+1,scalbnf@n+1
  5656  003A44  ECFB  F025         	call	_scalbnf	;wreg free
  5657  003A48  C02C  F1B4         	movff	?_scalbnf,powf@z
  5658  003A4C  C02D  F1B5         	movff	?_scalbnf+1,powf@z+1
  5659  003A50  C02E  F1B6         	movff	?_scalbnf+2,powf@z+2
  5660  003A54  C02F  F1B7         	movff	?_scalbnf+3,powf@z+3
  5661  003A58  EF3E  F01D         	goto	l5205
  5662  003A5C                     l1164:
  5663                           
  5664                           ; BSR set to: 0
  5665  003A5C  C1AC  F1B8         	movff	powf@j,powf@__xc8_float_word
  5666  003A60  C1AD  F1B9         	movff	powf@j+1,powf@__xc8_float_word+1
  5667  003A64  C1AE  F1BA         	movff	powf@j+2,powf@__xc8_float_word+2
  5668  003A68  C1AF  F1BB         	movff	powf@j+3,powf@__xc8_float_word+3
  5669  003A6C  C1B8  F1B4         	movff	powf@__xc8_float_word,powf@z
  5670  003A70  C1B9  F1B5         	movff	powf@__xc8_float_word+1,powf@z+1
  5671  003A74  C1BA  F1B6         	movff	powf@__xc8_float_word+2,powf@z+2
  5672  003A78  C1BB  F1B7         	movff	powf@__xc8_float_word+3,powf@z+3
  5673  003A7C                     l5205:
  5674  003A7C  C184  F013         	movff	powf@sn,___flmul@b
  5675  003A80  C185  F014         	movff	powf@sn+1,___flmul@b+1
  5676  003A84  C186  F015         	movff	powf@sn+2,___flmul@b+2
  5677  003A88  C187  F016         	movff	powf@sn+3,___flmul@b+3
  5678  003A8C  C1B4  F017         	movff	powf@z,___flmul@a
  5679  003A90  C1B5  F018         	movff	powf@z+1,___flmul@a+1
  5680  003A94  C1B6  F019         	movff	powf@z+2,___flmul@a+2
  5681  003A98  C1B7  F01A         	movff	powf@z+3,___flmul@a+3
  5682  003A9C  EC19  F022         	call	___flmul	;wreg free
  5683  003AA0  C013  F088         	movff	?___flmul,?_powf
  5684  003AA4  C014  F089         	movff	?___flmul+1,?_powf+1
  5685  003AA8  C015  F08A         	movff	?___flmul+2,?_powf+2
  5686  003AAC  C016  F08B         	movff	?___flmul+3,?_powf+3
  5687  003AB0                     l1052:
  5688  003AB0  0012               	return		;funcret
  5689  003AB2                     __end_of_powf:
  5690                           	opt callstack 0
  5691                           
  5692 ;; *************** function _sqrtf *****************
  5693 ;; Defined at:
  5694 ;;		line 22 in file "/opt/microchip/xc8/v2.10/pic/sources/c99/common/sqrtf.c"
  5695 ;; Parameters:    Size  Location     Type
  5696 ;;  x               4   77[COMRAM] float 
  5697 ;; Auto vars:     Size  Location     Type
  5698 ;;  ix              4   36[BANK0 ] long 
  5699 ;;  r               4   32[BANK0 ] unsigned long 
  5700 ;;  m               4   28[BANK0 ] long 
  5701 ;;  z               4   24[BANK0 ] float 
  5702 ;;  t               4   20[BANK0 ] long 
  5703 ;;  q               4   16[BANK0 ] long 
  5704 ;;  __xc8_float_    4   12[BANK0 ] struct .
  5705 ;;  i               4    8[BANK0 ] long 
  5706 ;;  s               4    4[BANK0 ] long 
  5707 ;;  sign            4    0        long 
  5708 ;; Return value:  Size  Location     Type
  5709 ;;                  4   77[COMRAM] float 
  5710 ;; Registers used:
  5711 ;;		wreg, status,2, status,0, prodl, prodh, cstack
  5712 ;; Tracked objects:
  5713 ;;		On entry : 0/0
  5714 ;;		On exit  : 0/0
  5715 ;;		Unchanged: 0/0
  5716 ;; Data sizes:     COMRAM   BANK0   BANK1   BANK2   BANK3   BANK4   BANK5   BANK6   BANK7   BANK8   BANK9  BANK10  BANK1
      +1  BANK12  BANK13  BANK14  BANK15
  5717 ;;      Params:         4       0       0       0       0       0       0       0       0       0       0       0       
      +0       0       0       0       0
  5718 ;;      Locals:         0      40       0       0       0       0       0       0       0       0       0       0       
      +0       0       0       0       0
  5719 ;;      Temps:          5       0       0       0       0       0       0       0       0       0       0       0       
      +0       0       0       0       0
  5720 ;;      Totals:         9      40       0       0       0       0       0       0       0       0       0       0       
      +0       0       0       0       0
  5721 ;;Total ram usage:       49 bytes
  5722 ;; Hardware stack levels used:    1
  5723 ;; Hardware stack levels required when called:    4
  5724 ;; This function calls:
  5725 ;;		___fladd
  5726 ;;		___flge
  5727 ;;		___flmul
  5728 ;;		_nanf
  5729 ;; This function is called by:
  5730 ;;		_powf
  5731 ;; This function uses a non-reentrant model
  5732 ;;
  5733                           
  5734                           	psect	text8
  5735  003AB2                     __ptext8:
  5736                           	opt callstack 0
  5737  003AB2                     _sqrtf:
  5738                           	opt callstack 23
  5739  003AB2  C04E  F06C         	movff	sqrtf@x,sqrtf@__xc8_float_word
  5740  003AB6  C04F  F06D         	movff	sqrtf@x+1,sqrtf@__xc8_float_word+1
  5741  003ABA  C050  F06E         	movff	sqrtf@x+2,sqrtf@__xc8_float_word+2
  5742  003ABE  C051  F06F         	movff	sqrtf@x+3,sqrtf@__xc8_float_word+3
  5743  003AC2  C06C  F084         	movff	sqrtf@__xc8_float_word,sqrtf@ix
  5744  003AC6  C06D  F085         	movff	sqrtf@__xc8_float_word+1,sqrtf@ix+1
  5745  003ACA  C06E  F086         	movff	sqrtf@__xc8_float_word+2,sqrtf@ix+2
  5746  003ACE  C06F  F087         	movff	sqrtf@__xc8_float_word+3,sqrtf@ix+3
  5747  003AD2  0E00               	movlw	0
  5748  003AD4  0100               	movlb	0	; () banked
  5749  003AD6  1584               	andwf	sqrtf@ix& (0+255),w,b
  5750  003AD8  6E52               	movwf	??_sqrtf^0,c
  5751  003ADA  0E00               	movlw	0
  5752  003ADC  1585               	andwf	(sqrtf@ix+1)& (0+255),w,b
  5753  003ADE  6E53               	movwf	(??_sqrtf+1)^0,c
  5754  003AE0  0E80               	movlw	128
  5755  003AE2  1586               	andwf	(sqrtf@ix+2)& (0+255),w,b
  5756  003AE4  6E54               	movwf	(??_sqrtf+2)^0,c
  5757  003AE6  0E7F               	movlw	127
  5758  003AE8  1587               	andwf	(sqrtf@ix+3)& (0+255),w,b
  5759  003AEA  6E55               	movwf	(??_sqrtf+3)^0,c
  5760  003AEC  0E80               	movlw	128
  5761  003AEE  1854               	xorwf	(??_sqrtf+2)^0,w,c
  5762  003AF0  E109               	bnz	u3171
  5763  003AF2  0E7F               	movlw	127
  5764  003AF4  1855               	xorwf	(??_sqrtf+3)^0,w,c
  5765  003AF6  1052               	iorwf	??_sqrtf^0,w,c
  5766  003AF8  1053               	iorwf	(??_sqrtf+1)^0,w,c
  5767  003AFA  A4D8               	btfss	status,2,c
  5768  003AFC  EF82  F01D         	goto	u3171
  5769  003B00  EF84  F01D         	goto	u3170
  5770  003B04                     u3171:
  5771  003B04  EFB2  F01D         	goto	l3221
  5772  003B08                     u3170:
  5773  003B08                     
  5774                           ; BSR set to: 0
  5775  003B08  C04E  F017         	movff	sqrtf@x,___flmul@a
  5776  003B0C  C04F  F018         	movff	sqrtf@x+1,___flmul@a+1
  5777  003B10  C050  F019         	movff	sqrtf@x+2,___flmul@a+2
  5778  003B14  C051  F01A         	movff	sqrtf@x+3,___flmul@a+3
  5779  003B18  C04E  F013         	movff	sqrtf@x,___flmul@b
  5780  003B1C  C04F  F014         	movff	sqrtf@x+1,___flmul@b+1
  5781  003B20  C050  F015         	movff	sqrtf@x+2,___flmul@b+2
  5782  003B24  C051  F016         	movff	sqrtf@x+3,___flmul@b+3
  5783  003B28  EC19  F022         	call	___flmul	;wreg free
  5784  003B2C  C013  F003         	movff	?___flmul,___fladd@b
  5785  003B30  C014  F004         	movff	?___flmul+1,___fladd@b+1
  5786  003B34  C015  F005         	movff	?___flmul+2,___fladd@b+2
  5787  003B38  C016  F006         	movff	?___flmul+3,___fladd@b+3
  5788  003B3C  C04E  F007         	movff	sqrtf@x,___fladd@a
  5789  003B40  C04F  F008         	movff	sqrtf@x+1,___fladd@a+1
  5790  003B44  C050  F009         	movff	sqrtf@x+2,___fladd@a+2
  5791  003B48  C051  F00A         	movff	sqrtf@x+3,___fladd@a+3
  5792  003B4C  ECB9  F01F         	call	___fladd	;wreg free
  5793  003B50  C003  F04E         	movff	?___fladd,?_sqrtf
  5794  003B54  C004  F04F         	movff	?___fladd+1,?_sqrtf+1
  5795  003B58  C005  F050         	movff	?___fladd+2,?_sqrtf+2
  5796  003B5C  C006  F051         	movff	?___fladd+3,?_sqrtf+3
  5797  003B60  EFB8  F01F         	goto	l1187
  5798  003B64                     l3221:
  5799                           
  5800                           ; BSR set to: 0
  5801  003B64  BF87               	btfsc	(sqrtf@ix+3)& (0+255),7,b
  5802  003B66  EFC1  F01D         	goto	u3180
  5803  003B6A  5187               	movf	(sqrtf@ix+3)& (0+255),w,b
  5804  003B6C  1186               	iorwf	(sqrtf@ix+2)& (0+255),w,b
  5805  003B6E  1185               	iorwf	(sqrtf@ix+1)& (0+255),w,b
  5806  003B70  E106               	bnz	u3181
  5807  003B72  0584               	decf	sqrtf@ix& (0+255),w,b
  5808  003B74  B0D8               	btfsc	status,0,c
  5809  003B76  EFBF  F01D         	goto	u3181
  5810  003B7A  EFC1  F01D         	goto	u3180
  5811  003B7E                     u3181:
  5812  003B7E  EFFD  F01D         	goto	l3235
  5813  003B82                     u3180:
  5814  003B82                     
  5815                           ; BSR set to: 0
  5816  003B82  0EFF               	movlw	255
  5817  003B84  1584               	andwf	sqrtf@ix& (0+255),w,b
  5818  003B86  6E52               	movwf	??_sqrtf^0,c
  5819  003B88  0EFF               	movlw	255
  5820  003B8A  1585               	andwf	(sqrtf@ix+1)& (0+255),w,b
  5821  003B8C  6E53               	movwf	(??_sqrtf+1)^0,c
  5822  003B8E  0EFF               	movlw	255
  5823  003B90  1586               	andwf	(sqrtf@ix+2)& (0+255),w,b
  5824  003B92  6E54               	movwf	(??_sqrtf+2)^0,c
  5825  003B94  0E7F               	movlw	127
  5826  003B96  1587               	andwf	(sqrtf@ix+3)& (0+255),w,b
  5827  003B98  6E55               	movwf	(??_sqrtf+3)^0,c
  5828  003B9A  5052               	movf	??_sqrtf^0,w,c
  5829  003B9C  1053               	iorwf	(??_sqrtf+1)^0,w,c
  5830  003B9E  1054               	iorwf	(??_sqrtf+2)^0,w,c
  5831  003BA0  1055               	iorwf	(??_sqrtf+3)^0,w,c
  5832  003BA2  A4D8               	btfss	status,2,c
  5833  003BA4  EFD6  F01D         	goto	u3191
  5834  003BA8  EFD8  F01D         	goto	u3190
  5835  003BAC                     u3191:
  5836  003BAC  EFE2  F01D         	goto	l3227
  5837  003BB0                     u3190:
  5838  003BB0                     
  5839                           ; BSR set to: 0
  5840  003BB0  C04E  F04E         	movff	sqrtf@x,?_sqrtf
  5841  003BB4  C04F  F04F         	movff	sqrtf@x+1,?_sqrtf+1
  5842  003BB8  C050  F050         	movff	sqrtf@x+2,?_sqrtf+2
  5843  003BBC  C051  F051         	movff	sqrtf@x+3,?_sqrtf+3
  5844  003BC0  EFB8  F01F         	goto	l1187
  5845  003BC4                     l3227:
  5846                           
  5847                           ; BSR set to: 0
  5848  003BC4  BF87               	btfsc	(sqrtf@ix+3)& (0+255),7,b
  5849  003BC6  EFE9  F01D         	goto	u3200
  5850  003BCA  EFE7  F01D         	goto	u3201
  5851  003BCE                     u3201:
  5852  003BCE  EFFD  F01D         	goto	l3235
  5853  003BD2                     u3200:
  5854  003BD2                     
  5855                           ; BSR set to: 0
  5856  003BD2  0E00               	movlw	0
  5857  003BD4  6FBA               	movwf	(_errno+1)& (0+255),b
  5858  003BD6  0E21               	movlw	33
  5859  003BD8  6FB9               	movwf	_errno& (0+255),b
  5860  003BDA                     
  5861                           ; BSR set to: 0
  5862  003BDA  0E7D               	movlw	low STR_1
  5863  003BDC  6E03               	movwf	nanf@s^0,c
  5864  003BDE  0E10               	movlw	high STR_1
  5865  003BE0  6E04               	movwf	(nanf@s+1)^0,c
  5866  003BE2  EC8F  F02C         	call	_nanf	;wreg free
  5867  003BE6  C003  F04E         	movff	?_nanf,?_sqrtf
  5868  003BEA  C004  F04F         	movff	?_nanf+1,?_sqrtf+1
  5869  003BEE  C005  F050         	movff	?_nanf+2,?_sqrtf+2
  5870  003BF2  C006  F051         	movff	?_nanf+3,?_sqrtf+3
  5871  003BF6  EFB8  F01F         	goto	l1187
  5872  003BFA                     l3235:
  5873                           
  5874                           ; BSR set to: 0
  5875  003BFA  0E17               	movlw	23
  5876  003BFC  6E52               	movwf	??_sqrtf^0,c
  5877  003BFE  C084  F053         	movff	sqrtf@ix,??_sqrtf+1
  5878  003C02  C085  F054         	movff	sqrtf@ix+1,??_sqrtf+2
  5879  003C06  C086  F055         	movff	sqrtf@ix+2,??_sqrtf+3
  5880  003C0A  C087  F056         	movff	sqrtf@ix+3,??_sqrtf+4
  5881  003C0E                     u3215:
  5882  003C0E  6652               	tstfsz	??_sqrtf^0,c
  5883  003C10  EF0C  F01E         	goto	u3216
  5884  003C14  EF14  F01E         	goto	u3217
  5885  003C18                     u3216:
  5886  003C18  3456               	rlcf	(??_sqrtf+4)^0,w,c
  5887  003C1A  3256               	rrcf	(??_sqrtf+4)^0,f,c
  5888  003C1C  3255               	rrcf	(??_sqrtf+3)^0,f,c
  5889  003C1E  3254               	rrcf	(??_sqrtf+2)^0,f,c
  5890  003C20  3253               	rrcf	(??_sqrtf+1)^0,f,c
  5891  003C22  2E52               	decfsz	??_sqrtf^0,f,c
  5892  003C24  EF07  F01E         	goto	u3215
  5893  003C28                     u3217:
  5894  003C28  C053  F07C         	movff	??_sqrtf+1,sqrtf@m
  5895  003C2C  C054  F07D         	movff	??_sqrtf+2,sqrtf@m+1
  5896  003C30  C055  F07E         	movff	??_sqrtf+3,sqrtf@m+2
  5897  003C34  C056  F07F         	movff	??_sqrtf+4,sqrtf@m+3
  5898  003C38  0100               	movlb	0	; () banked
  5899  003C3A  517C               	movf	sqrtf@m& (0+255),w,b
  5900  003C3C  117D               	iorwf	(sqrtf@m+1)& (0+255),w,b
  5901  003C3E  117E               	iorwf	(sqrtf@m+2)& (0+255),w,b
  5902  003C40  117F               	iorwf	(sqrtf@m+3)& (0+255),w,b
  5903  003C42  A4D8               	btfss	status,2,c
  5904  003C44  EF26  F01E         	goto	u3221
  5905  003C48  EF28  F01E         	goto	u3220
  5906  003C4C                     u3221:
  5907  003C4C  EF58  F01E         	goto	l1191
  5908  003C50                     u3220:
  5909  003C50                     
  5910                           ; BSR set to: 0
  5911  003C50  0E00               	movlw	0
  5912  003C52  6F68               	movwf	sqrtf@i& (0+255),b
  5913  003C54  0E00               	movlw	0
  5914  003C56  6F69               	movwf	(sqrtf@i+1)& (0+255),b
  5915  003C58  0E00               	movlw	0
  5916  003C5A  6F6A               	movwf	(sqrtf@i+2)& (0+255),b
  5917  003C5C  0E00               	movlw	0
  5918  003C5E  6F6B               	movwf	(sqrtf@i+3)& (0+255),b
  5919  003C60  EF3D  F01E         	goto	l3243
  5920  003C64                     l3239:
  5921                           
  5922                           ; BSR set to: 0
  5923  003C64  90D8               	bcf	status,0,c
  5924  003C66  3784               	rlcf	sqrtf@ix& (0+255),f,b
  5925  003C68  3785               	rlcf	(sqrtf@ix+1)& (0+255),f,b
  5926  003C6A  3786               	rlcf	(sqrtf@ix+2)& (0+255),f,b
  5927  003C6C  3787               	rlcf	(sqrtf@ix+3)& (0+255),f,b
  5928  003C6E                     
  5929                           ; BSR set to: 0
  5930  003C6E  0E01               	movlw	1
  5931  003C70  2768               	addwf	sqrtf@i& (0+255),f,b
  5932  003C72  0E00               	movlw	0
  5933  003C74  2369               	addwfc	(sqrtf@i+1)& (0+255),f,b
  5934  003C76  236A               	addwfc	(sqrtf@i+2)& (0+255),f,b
  5935  003C78  236B               	addwfc	(sqrtf@i+3)& (0+255),f,b
  5936  003C7A                     l3243:
  5937                           
  5938                           ; BSR set to: 0
  5939  003C7A  AF86               	btfss	(sqrtf@ix+2)& (0+255),7,b
  5940  003C7C  EF42  F01E         	goto	u3231
  5941  003C80  EF44  F01E         	goto	u3230
  5942  003C84                     u3231:
  5943  003C84  EF32  F01E         	goto	l3239
  5944  003C88                     u3230:
  5945  003C88                     
  5946                           ; BSR set to: 0
  5947  003C88  0EFF               	movlw	255
  5948  003C8A  2568               	addwf	sqrtf@i& (0+255),w,b
  5949  003C8C  6E52               	movwf	??_sqrtf^0,c
  5950  003C8E  0EFF               	movlw	255
  5951  003C90  2169               	addwfc	(sqrtf@i+1)& (0+255),w,b
  5952  003C92  6E53               	movwf	(??_sqrtf+1)^0,c
  5953  003C94  0EFF               	movlw	255
  5954  003C96  216A               	addwfc	(sqrtf@i+2)& (0+255),w,b
  5955  003C98  6E54               	movwf	(??_sqrtf+2)^0,c
  5956  003C9A  0EFF               	movlw	255
  5957  003C9C  216B               	addwfc	(sqrtf@i+3)& (0+255),w,b
  5958  003C9E  6E55               	movwf	(??_sqrtf+3)^0,c
  5959  003CA0  5052               	movf	??_sqrtf^0,w,c
  5960  003CA2  5F7C               	subwf	sqrtf@m& (0+255),f,b
  5961  003CA4  5053               	movf	(??_sqrtf+1)^0,w,c
  5962  003CA6  5B7D               	subwfb	(sqrtf@m+1)& (0+255),f,b
  5963  003CA8  5054               	movf	(??_sqrtf+2)^0,w,c
  5964  003CAA  5B7E               	subwfb	(sqrtf@m+2)& (0+255),f,b
  5965  003CAC  5055               	movf	(??_sqrtf+3)^0,w,c
  5966  003CAE  5B7F               	subwfb	(sqrtf@m+3)& (0+255),f,b
  5967  003CB0                     l1191:
  5968                           
  5969                           ; BSR set to: 0
  5970  003CB0  0E81               	movlw	129
  5971  003CB2  277C               	addwf	sqrtf@m& (0+255),f,b
  5972  003CB4  0EFF               	movlw	255
  5973  003CB6  237D               	addwfc	(sqrtf@m+1)& (0+255),f,b
  5974  003CB8  0EFF               	movlw	255
  5975  003CBA  237E               	addwfc	(sqrtf@m+2)& (0+255),f,b
  5976  003CBC  0EFF               	movlw	255
  5977  003CBE  237F               	addwfc	(sqrtf@m+3)& (0+255),f,b
  5978  003CC0  0EFF               	movlw	255
  5979  003CC2  1584               	andwf	sqrtf@ix& (0+255),w,b
  5980  003CC4  6E52               	movwf	??_sqrtf^0,c
  5981  003CC6  0EFF               	movlw	255
  5982  003CC8  1585               	andwf	(sqrtf@ix+1)& (0+255),w,b
  5983  003CCA  6E53               	movwf	(??_sqrtf+1)^0,c
  5984  003CCC  0E7F               	movlw	127
  5985  003CCE  1586               	andwf	(sqrtf@ix+2)& (0+255),w,b
  5986  003CD0  6E54               	movwf	(??_sqrtf+2)^0,c
  5987  003CD2  0E00               	movlw	0
  5988  003CD4  1587               	andwf	(sqrtf@ix+3)& (0+255),w,b
  5989  003CD6  6E55               	movwf	(??_sqrtf+3)^0,c
  5990  003CD8  0E00               	movlw	0
  5991  003CDA  1052               	iorwf	??_sqrtf^0,w,c
  5992  003CDC  6F84               	movwf	sqrtf@ix& (0+255),b
  5993  003CDE  0E00               	movlw	0
  5994  003CE0  1053               	iorwf	(??_sqrtf+1)^0,w,c
  5995  003CE2  6F85               	movwf	(sqrtf@ix+1)& (0+255),b
  5996  003CE4  0E80               	movlw	128
  5997  003CE6  1054               	iorwf	(??_sqrtf+2)^0,w,c
  5998  003CE8  6F86               	movwf	(sqrtf@ix+2)& (0+255),b
  5999  003CEA  0E00               	movlw	0
  6000  003CEC  1055               	iorwf	(??_sqrtf+3)^0,w,c
  6001  003CEE  6F87               	movwf	(sqrtf@ix+3)& (0+255),b
  6002  003CF0                     
  6003                           ; BSR set to: 0
  6004  003CF0  A17C               	btfss	sqrtf@m& (0+255),0,b
  6005  003CF2  EF7D  F01E         	goto	u3241
  6006  003CF6  EF7F  F01E         	goto	u3240
  6007  003CFA                     u3241:
  6008  003CFA  EF87  F01E         	goto	l1195
  6009  003CFE                     u3240:
  6010  003CFE                     
  6011                           ; BSR set to: 0
  6012  003CFE  5184               	movf	sqrtf@ix& (0+255),w,b
  6013  003D00  2784               	addwf	sqrtf@ix& (0+255),f,b
  6014  003D02  5185               	movf	(sqrtf@ix+1)& (0+255),w,b
  6015  003D04  2385               	addwfc	(sqrtf@ix+1)& (0+255),f,b
  6016  003D06  5186               	movf	(sqrtf@ix+2)& (0+255),w,b
  6017  003D08  2386               	addwfc	(sqrtf@ix+2)& (0+255),f,b
  6018  003D0A  5187               	movf	(sqrtf@ix+3)& (0+255),w,b
  6019  003D0C  2387               	addwfc	(sqrtf@ix+3)& (0+255),f,b
  6020  003D0E                     l1195:
  6021                           
  6022                           ; BSR set to: 0
  6023  003D0E  357F               	rlcf	(sqrtf@m+3)& (0+255),w,b
  6024  003D10  337F               	rrcf	(sqrtf@m+3)& (0+255),f,b
  6025  003D12  337E               	rrcf	(sqrtf@m+2)& (0+255),f,b
  6026  003D14  337D               	rrcf	(sqrtf@m+1)& (0+255),f,b
  6027  003D16  337C               	rrcf	sqrtf@m& (0+255),f,b
  6028  003D18  5184               	movf	sqrtf@ix& (0+255),w,b
  6029  003D1A  2784               	addwf	sqrtf@ix& (0+255),f,b
  6030  003D1C  5185               	movf	(sqrtf@ix+1)& (0+255),w,b
  6031  003D1E  2385               	addwfc	(sqrtf@ix+1)& (0+255),f,b
  6032  003D20  5186               	movf	(sqrtf@ix+2)& (0+255),w,b
  6033  003D22  2386               	addwfc	(sqrtf@ix+2)& (0+255),f,b
  6034  003D24  5187               	movf	(sqrtf@ix+3)& (0+255),w,b
  6035  003D26  2387               	addwfc	(sqrtf@ix+3)& (0+255),f,b
  6036  003D28                     
  6037                           ; BSR set to: 0
  6038  003D28  0E00               	movlw	0
  6039  003D2A  6F64               	movwf	sqrtf@s& (0+255),b
  6040  003D2C  0E00               	movlw	0
  6041  003D2E  6F65               	movwf	(sqrtf@s+1)& (0+255),b
  6042  003D30  0E00               	movlw	0
  6043  003D32  6F66               	movwf	(sqrtf@s+2)& (0+255),b
  6044  003D34  0E00               	movlw	0
  6045  003D36  6F67               	movwf	(sqrtf@s+3)& (0+255),b
  6046  003D38  C064  F070         	movff	sqrtf@s,sqrtf@q
  6047  003D3C  C065  F071         	movff	sqrtf@s+1,sqrtf@q+1
  6048  003D40  C066  F072         	movff	sqrtf@s+2,sqrtf@q+2
  6049  003D44  C067  F073         	movff	sqrtf@s+3,sqrtf@q+3
  6050  003D48                     
  6051                           ; BSR set to: 0
  6052  003D48  0E00               	movlw	0
  6053  003D4A  6F80               	movwf	sqrtf@r& (0+255),b
  6054  003D4C  0E00               	movlw	0
  6055  003D4E  6F81               	movwf	(sqrtf@r+1)& (0+255),b
  6056  003D50  0E00               	movlw	0
  6057  003D52  6F82               	movwf	(sqrtf@r+2)& (0+255),b
  6058  003D54  0E01               	movlw	1
  6059  003D56  6F83               	movwf	(sqrtf@r+3)& (0+255),b
  6060  003D58  EFF6  F01E         	goto	l3261
  6061  003D5C                     l3255:
  6062                           
  6063                           ; BSR set to: 0
  6064  003D5C  5180               	movf	sqrtf@r& (0+255),w,b
  6065  003D5E  2564               	addwf	sqrtf@s& (0+255),w,b
  6066  003D60  6F74               	movwf	sqrtf@t& (0+255),b
  6067  003D62  5181               	movf	(sqrtf@r+1)& (0+255),w,b
  6068  003D64  2165               	addwfc	(sqrtf@s+1)& (0+255),w,b
  6069  003D66  6F75               	movwf	(sqrtf@t+1)& (0+255),b
  6070  003D68  5182               	movf	(sqrtf@r+2)& (0+255),w,b
  6071  003D6A  2166               	addwfc	(sqrtf@s+2)& (0+255),w,b
  6072  003D6C  6F76               	movwf	(sqrtf@t+2)& (0+255),b
  6073  003D6E  5183               	movf	(sqrtf@r+3)& (0+255),w,b
  6074  003D70  2167               	addwfc	(sqrtf@s+3)& (0+255),w,b
  6075  003D72  6F77               	movwf	(sqrtf@t+3)& (0+255),b
  6076  003D74  5174               	movf	sqrtf@t& (0+255),w,b
  6077  003D76  5D84               	subwf	sqrtf@ix& (0+255),w,b
  6078  003D78  5175               	movf	(sqrtf@t+1)& (0+255),w,b
  6079  003D7A  5985               	subwfb	(sqrtf@ix+1)& (0+255),w,b
  6080  003D7C  5176               	movf	(sqrtf@t+2)& (0+255),w,b
  6081  003D7E  5986               	subwfb	(sqrtf@ix+2)& (0+255),w,b
  6082  003D80  5187               	movf	(sqrtf@ix+3)& (0+255),w,b
  6083  003D82  0A80               	xorlw	128
  6084  003D84  6E52               	movwf	??_sqrtf^0,c
  6085  003D86  5177               	movf	(sqrtf@t+3)& (0+255),w,b
  6086  003D88  0A80               	xorlw	128
  6087  003D8A  5852               	subwfb	??_sqrtf^0,w,c
  6088  003D8C  A0D8               	btfss	status,0,c
  6089  003D8E  EFCB  F01E         	goto	u3251
  6090  003D92  EFCD  F01E         	goto	u3250
  6091  003D96                     u3251:
  6092  003D96  EFE9  F01E         	goto	l1198
  6093  003D9A                     u3250:
  6094  003D9A                     
  6095                           ; BSR set to: 0
  6096  003D9A  5180               	movf	sqrtf@r& (0+255),w,b
  6097  003D9C  2574               	addwf	sqrtf@t& (0+255),w,b
  6098  003D9E  6F64               	movwf	sqrtf@s& (0+255),b
  6099  003DA0  5181               	movf	(sqrtf@r+1)& (0+255),w,b
  6100  003DA2  2175               	addwfc	(sqrtf@t+1)& (0+255),w,b
  6101  003DA4  6F65               	movwf	(sqrtf@s+1)& (0+255),b
  6102  003DA6  5182               	movf	(sqrtf@r+2)& (0+255),w,b
  6103  003DA8  2176               	addwfc	(sqrtf@t+2)& (0+255),w,b
  6104  003DAA  6F66               	movwf	(sqrtf@s+2)& (0+255),b
  6105  003DAC  5183               	movf	(sqrtf@r+3)& (0+255),w,b
  6106  003DAE  2177               	addwfc	(sqrtf@t+3)& (0+255),w,b
  6107  003DB0  6F67               	movwf	(sqrtf@s+3)& (0+255),b
  6108  003DB2  5174               	movf	sqrtf@t& (0+255),w,b
  6109  003DB4  5F84               	subwf	sqrtf@ix& (0+255),f,b
  6110  003DB6  5175               	movf	(sqrtf@t+1)& (0+255),w,b
  6111  003DB8  5B85               	subwfb	(sqrtf@ix+1)& (0+255),f,b
  6112  003DBA  5176               	movf	(sqrtf@t+2)& (0+255),w,b
  6113  003DBC  5B86               	subwfb	(sqrtf@ix+2)& (0+255),f,b
  6114  003DBE  5177               	movf	(sqrtf@t+3)& (0+255),w,b
  6115  003DC0  5B87               	subwfb	(sqrtf@ix+3)& (0+255),f,b
  6116  003DC2  5180               	movf	sqrtf@r& (0+255),w,b
  6117  003DC4  2770               	addwf	sqrtf@q& (0+255),f,b
  6118  003DC6  5181               	movf	(sqrtf@r+1)& (0+255),w,b
  6119  003DC8  2371               	addwfc	(sqrtf@q+1)& (0+255),f,b
  6120  003DCA  5182               	movf	(sqrtf@r+2)& (0+255),w,b
  6121  003DCC  2372               	addwfc	(sqrtf@q+2)& (0+255),f,b
  6122  003DCE  5183               	movf	(sqrtf@r+3)& (0+255),w,b
  6123  003DD0  2373               	addwfc	(sqrtf@q+3)& (0+255),f,b
  6124  003DD2                     l1198:
  6125                           
  6126                           ; BSR set to: 0
  6127  003DD2  5184               	movf	sqrtf@ix& (0+255),w,b
  6128  003DD4  2784               	addwf	sqrtf@ix& (0+255),f,b
  6129  003DD6  5185               	movf	(sqrtf@ix+1)& (0+255),w,b
  6130  003DD8  2385               	addwfc	(sqrtf@ix+1)& (0+255),f,b
  6131  003DDA  5186               	movf	(sqrtf@ix+2)& (0+255),w,b
  6132  003DDC  2386               	addwfc	(sqrtf@ix+2)& (0+255),f,b
  6133  003DDE  5187               	movf	(sqrtf@ix+3)& (0+255),w,b
  6134  003DE0  2387               	addwfc	(sqrtf@ix+3)& (0+255),f,b
  6135  003DE2                     
  6136                           ; BSR set to: 0
  6137  003DE2  90D8               	bcf	status,0,c
  6138  003DE4  3383               	rrcf	(sqrtf@r+3)& (0+255),f,b
  6139  003DE6  3382               	rrcf	(sqrtf@r+2)& (0+255),f,b
  6140  003DE8  3381               	rrcf	(sqrtf@r+1)& (0+255),f,b
  6141  003DEA  3380               	rrcf	sqrtf@r& (0+255),f,b
  6142  003DEC                     l3261:
  6143                           
  6144                           ; BSR set to: 0
  6145  003DEC  5180               	movf	sqrtf@r& (0+255),w,b
  6146  003DEE  1181               	iorwf	(sqrtf@r+1)& (0+255),w,b
  6147  003DF0  1182               	iorwf	(sqrtf@r+2)& (0+255),w,b
  6148  003DF2  1183               	iorwf	(sqrtf@r+3)& (0+255),w,b
  6149  003DF4  A4D8               	btfss	status,2,c
  6150  003DF6  EFFF  F01E         	goto	u3261
  6151  003DFA  EF01  F01F         	goto	u3260
  6152  003DFE                     u3261:
  6153  003DFE  EFAE  F01E         	goto	l3255
  6154  003E02                     u3260:
  6155  003E02                     
  6156                           ; BSR set to: 0
  6157  003E02  5184               	movf	sqrtf@ix& (0+255),w,b
  6158  003E04  1185               	iorwf	(sqrtf@ix+1)& (0+255),w,b
  6159  003E06  1186               	iorwf	(sqrtf@ix+2)& (0+255),w,b
  6160  003E08  1187               	iorwf	(sqrtf@ix+3)& (0+255),w,b
  6161  003E0A  B4D8               	btfsc	status,2,c
  6162  003E0C  EF0A  F01F         	goto	u3271
  6163  003E10  EF0C  F01F         	goto	u3270
  6164  003E14                     u3271:
  6165  003E14  EF6D  F01F         	goto	l1200
  6166  003E18                     u3270:
  6167  003E18                     
  6168                           ; BSR set to: 0
  6169  003E18  0E00               	movlw	0
  6170  003E1A  6F78               	movwf	sqrtf@z& (0+255),b
  6171  003E1C  0E00               	movlw	0
  6172  003E1E  6F79               	movwf	(sqrtf@z+1)& (0+255),b
  6173  003E20  0E80               	movlw	128
  6174  003E22  6F7A               	movwf	(sqrtf@z+2)& (0+255),b
  6175  003E24  0E3F               	movlw	63
  6176  003E26  6F7B               	movwf	(sqrtf@z+3)& (0+255),b
  6177  003E28                     
  6178                           ; BSR set to: 0
  6179  003E28  C078  F042         	movff	sqrtf@z,___flge@ff1
  6180  003E2C  C079  F043         	movff	sqrtf@z+1,___flge@ff1+1
  6181  003E30  C07A  F044         	movff	sqrtf@z+2,___flge@ff1+2
  6182  003E34  C07B  F045         	movff	sqrtf@z+3,___flge@ff1+3
  6183  003E38  0E00               	movlw	0
  6184  003E3A  6E46               	movwf	___flge@ff2^0,c
  6185  003E3C  0E00               	movlw	0
  6186  003E3E  6E47               	movwf	(___flge@ff2+1)^0,c
  6187  003E40  0E80               	movlw	128
  6188  003E42  6E48               	movwf	(___flge@ff2+2)^0,c
  6189  003E44  0E3F               	movlw	63
  6190  003E46  6E49               	movwf	(___flge@ff2+3)^0,c
  6191  003E48  EC9F  F029         	call	___flge	;wreg free
  6192  003E4C  A0D8               	btfss	status,0,c
  6193  003E4E  EF2B  F01F         	goto	u3281
  6194  003E52  EF2D  F01F         	goto	u3280
  6195  003E56                     u3281:
  6196  003E56  EF6D  F01F         	goto	l1200
  6197  003E5A                     u3280:
  6198  003E5A  0E00               	movlw	0
  6199  003E5C  0100               	movlb	0	; () banked
  6200  003E5E  6F78               	movwf	sqrtf@z& (0+255),b
  6201  003E60  0E00               	movlw	0
  6202  003E62  6F79               	movwf	(sqrtf@z+1)& (0+255),b
  6203  003E64  0E80               	movlw	128
  6204  003E66  6F7A               	movwf	(sqrtf@z+2)& (0+255),b
  6205  003E68  0E3F               	movlw	63
  6206  003E6A  6F7B               	movwf	(sqrtf@z+3)& (0+255),b
  6207  003E6C                     
  6208                           ; BSR set to: 0
  6209  003E6C  0E00               	movlw	0
  6210  003E6E  6E42               	movwf	___flge@ff1^0,c
  6211  003E70  0E00               	movlw	0
  6212  003E72  6E43               	movwf	(___flge@ff1+1)^0,c
  6213  003E74  0E80               	movlw	128
  6214  003E76  6E44               	movwf	(___flge@ff1+2)^0,c
  6215  003E78  0E3F               	movlw	63
  6216  003E7A  6E45               	movwf	(___flge@ff1+3)^0,c
  6217  003E7C  C078  F046         	movff	sqrtf@z,___flge@ff2
  6218  003E80  C079  F047         	movff	sqrtf@z+1,___flge@ff2+1
  6219  003E84  C07A  F048         	movff	sqrtf@z+2,___flge@ff2+2
  6220  003E88  C07B  F049         	movff	sqrtf@z+3,___flge@ff2+3
  6221  003E8C  EC9F  F029         	call	___flge	;wreg free
  6222  003E90  B0D8               	btfsc	status,0,c
  6223  003E92  EF4D  F01F         	goto	u3291
  6224  003E96  EF4F  F01F         	goto	u3290
  6225  003E9A                     u3291:
  6226  003E9A  EF58  F01F         	goto	l3275
  6227  003E9E                     u3290:
  6228  003E9E  0E02               	movlw	2
  6229  003EA0  0100               	movlb	0	; () banked
  6230  003EA2  2770               	addwf	sqrtf@q& (0+255),f,b
  6231  003EA4  0E00               	movlw	0
  6232  003EA6  2371               	addwfc	(sqrtf@q+1)& (0+255),f,b
  6233  003EA8  2372               	addwfc	(sqrtf@q+2)& (0+255),f,b
  6234  003EAA  2373               	addwfc	(sqrtf@q+3)& (0+255),f,b
  6235  003EAC  EF6D  F01F         	goto	l1200
  6236  003EB0                     l3275:
  6237  003EB0  0E01               	movlw	1
  6238  003EB2  0100               	movlb	0	; () banked
  6239  003EB4  1570               	andwf	sqrtf@q& (0+255),w,b
  6240  003EB6  6E52               	movwf	??_sqrtf^0,c
  6241  003EB8  0E00               	movlw	0
  6242  003EBA  1571               	andwf	(sqrtf@q+1)& (0+255),w,b
  6243  003EBC  6E53               	movwf	(??_sqrtf+1)^0,c
  6244  003EBE  0E00               	movlw	0
  6245  003EC0  1572               	andwf	(sqrtf@q+2)& (0+255),w,b
  6246  003EC2  6E54               	movwf	(??_sqrtf+2)^0,c
  6247  003EC4  0E00               	movlw	0
  6248  003EC6  1573               	andwf	(sqrtf@q+3)& (0+255),w,b
  6249  003EC8  6E55               	movwf	(??_sqrtf+3)^0,c
  6250  003ECA  5052               	movf	??_sqrtf^0,w,c
  6251  003ECC  2770               	addwf	sqrtf@q& (0+255),f,b
  6252  003ECE  5053               	movf	(??_sqrtf+1)^0,w,c
  6253  003ED0  2371               	addwfc	(sqrtf@q+1)& (0+255),f,b
  6254  003ED2  5054               	movf	(??_sqrtf+2)^0,w,c
  6255  003ED4  2372               	addwfc	(sqrtf@q+2)& (0+255),f,b
  6256  003ED6  5055               	movf	(??_sqrtf+3)^0,w,c
  6257  003ED8  2373               	addwfc	(sqrtf@q+3)& (0+255),f,b
  6258  003EDA                     l1200:
  6259  003EDA  C070  F052         	movff	sqrtf@q,??_sqrtf
  6260  003EDE  C071  F053         	movff	sqrtf@q+1,??_sqrtf+1
  6261  003EE2  C072  F054         	movff	sqrtf@q+2,??_sqrtf+2
  6262  003EE6  C073  F055         	movff	sqrtf@q+3,??_sqrtf+3
  6263  003EEA  3455               	rlcf	(??_sqrtf+3)^0,w,c
  6264  003EEC  3255               	rrcf	(??_sqrtf+3)^0,f,c
  6265  003EEE  3254               	rrcf	(??_sqrtf+2)^0,f,c
  6266  003EF0  3253               	rrcf	(??_sqrtf+1)^0,f,c
  6267  003EF2  3252               	rrcf	??_sqrtf^0,f,c
  6268  003EF4  0E00               	movlw	0
  6269  003EF6  2452               	addwf	??_sqrtf^0,w,c
  6270  003EF8  0100               	movlb	0	; () banked
  6271  003EFA  6F84               	movwf	sqrtf@ix& (0+255),b
  6272  003EFC  0E00               	movlw	0
  6273  003EFE  2053               	addwfc	(??_sqrtf+1)^0,w,c
  6274  003F00  6F85               	movwf	(sqrtf@ix+1)& (0+255),b
  6275  003F02  0E00               	movlw	0
  6276  003F04  2054               	addwfc	(??_sqrtf+2)^0,w,c
  6277  003F06  6F86               	movwf	(sqrtf@ix+2)& (0+255),b
  6278  003F08  0E3F               	movlw	63
  6279  003F0A  2055               	addwfc	(??_sqrtf+3)^0,w,c
  6280  003F0C  6F87               	movwf	(sqrtf@ix+3)& (0+255),b
  6281  003F0E  C07C  F052         	movff	sqrtf@m,??_sqrtf
  6282  003F12  C07D  F053         	movff	sqrtf@m+1,??_sqrtf+1
  6283  003F16  C07E  F054         	movff	sqrtf@m+2,??_sqrtf+2
  6284  003F1A  C07F  F055         	movff	sqrtf@m+3,??_sqrtf+3
  6285  003F1E  0E17               	movlw	23
  6286  003F20                     u3305:
  6287  003F20  90D8               	bcf	status,0,c
  6288  003F22  3652               	rlcf	??_sqrtf^0,f,c
  6289  003F24  3653               	rlcf	(??_sqrtf+1)^0,f,c
  6290  003F26  3654               	rlcf	(??_sqrtf+2)^0,f,c
  6291  003F28  3655               	rlcf	(??_sqrtf+3)^0,f,c
  6292  003F2A  2EE8               	decfsz	wreg,f,c
  6293  003F2C  EF90  F01F         	goto	u3305
  6294  003F30  5052               	movf	??_sqrtf^0,w,c
  6295  003F32  2784               	addwf	sqrtf@ix& (0+255),f,b
  6296  003F34  5053               	movf	(??_sqrtf+1)^0,w,c
  6297  003F36  2385               	addwfc	(sqrtf@ix+1)& (0+255),f,b
  6298  003F38  5054               	movf	(??_sqrtf+2)^0,w,c
  6299  003F3A  2386               	addwfc	(sqrtf@ix+2)& (0+255),f,b
  6300  003F3C  5055               	movf	(??_sqrtf+3)^0,w,c
  6301  003F3E  2387               	addwfc	(sqrtf@ix+3)& (0+255),f,b
  6302  003F40                     
  6303                           ; BSR set to: 0
  6304  003F40  C084  F06C         	movff	sqrtf@ix,sqrtf@__xc8_float_word
  6305  003F44  C085  F06D         	movff	sqrtf@ix+1,sqrtf@__xc8_float_word+1
  6306  003F48  C086  F06E         	movff	sqrtf@ix+2,sqrtf@__xc8_float_word+2
  6307  003F4C  C087  F06F         	movff	sqrtf@ix+3,sqrtf@__xc8_float_word+3
  6308  003F50                     
  6309                           ; BSR set to: 0
  6310  003F50  C06C  F078         	movff	sqrtf@__xc8_float_word,sqrtf@z
  6311  003F54  C06D  F079         	movff	sqrtf@__xc8_float_word+1,sqrtf@z+1
  6312  003F58  C06E  F07A         	movff	sqrtf@__xc8_float_word+2,sqrtf@z+2
  6313  003F5C  C06F  F07B         	movff	sqrtf@__xc8_float_word+3,sqrtf@z+3
  6314  003F60                     
  6315                           ; BSR set to: 0
  6316  003F60  C078  F04E         	movff	sqrtf@z,?_sqrtf
  6317  003F64  C079  F04F         	movff	sqrtf@z+1,?_sqrtf+1
  6318  003F68  C07A  F050         	movff	sqrtf@z+2,?_sqrtf+2
  6319  003F6C  C07B  F051         	movff	sqrtf@z+3,?_sqrtf+3
  6320  003F70                     l1187:
  6321  003F70  0012               	return		;funcret
  6322  003F72                     __end_of_sqrtf:
  6323                           	opt callstack 0
  6324                           
  6325 ;; *************** function _nanf *****************
  6326 ;; Defined at:
  6327 ;;		line 4 in file "/opt/microchip/xc8/v2.10/pic/sources/c99/common/nanf.c"
  6328 ;; Parameters:    Size  Location     Type
  6329 ;;  s               2    2[COMRAM] PTR const unsigned char 
  6330 ;;		 -> STR_1(1), 
  6331 ;; Auto vars:     Size  Location     Type
  6332 ;;  u               4    6[COMRAM] struct .
  6333 ;; Return value:  Size  Location     Type
  6334 ;;                  4    2[COMRAM] float 
  6335 ;; Registers used:
  6336 ;;		wreg, status,2
  6337 ;; Tracked objects:
  6338 ;;		On entry : 0/0
  6339 ;;		On exit  : 0/0
  6340 ;;		Unchanged: 0/0
  6341 ;; Data sizes:     COMRAM   BANK0   BANK1   BANK2   BANK3   BANK4   BANK5   BANK6   BANK7   BANK8   BANK9  BANK10  BANK1
      +1  BANK12  BANK13  BANK14  BANK15
  6342 ;;      Params:         4       0       0       0       0       0       0       0       0       0       0       0       
      +0       0       0       0       0
  6343 ;;      Locals:         4       0       0       0       0       0       0       0       0       0       0       0       
      +0       0       0       0       0
  6344 ;;      Temps:          0       0       0       0       0       0       0       0       0       0       0       0       
      +0       0       0       0       0
  6345 ;;      Totals:         8       0       0       0       0       0       0       0       0       0       0       0       
      +0       0       0       0       0
  6346 ;;Total ram usage:        8 bytes
  6347 ;; Hardware stack levels used:    1
  6348 ;; Hardware stack levels required when called:    3
  6349 ;; This function calls:
  6350 ;;		Nothing
  6351 ;; This function is called by:
  6352 ;;		_sqrtf
  6353 ;; This function uses a non-reentrant model
  6354 ;;
  6355                           
  6356                           	psect	text9
  6357  00591E                     __ptext9:
  6358                           	opt callstack 0
  6359  00591E                     _nanf:
  6360                           	opt callstack 23
  6361  00591E  0EFF               	movlw	255
  6362  005920  6E07               	movwf	nanf@u^0,c
  6363  005922  0EFF               	movlw	255
  6364  005924  6E08               	movwf	(nanf@u+1)^0,c
  6365  005926  0EFF               	movlw	255
  6366  005928  6E09               	movwf	(nanf@u+2)^0,c
  6367  00592A  0E7F               	movlw	127
  6368  00592C  6E0A               	movwf	(nanf@u+3)^0,c
  6369  00592E  C007  F003         	movff	nanf@u,?_nanf
  6370  005932  C008  F004         	movff	nanf@u+1,?_nanf+1
  6371  005936  C009  F005         	movff	nanf@u+2,?_nanf+2
  6372  00593A  C00A  F006         	movff	nanf@u+3,?_nanf+3
  6373  00593E  0012               	return		;funcret
  6374  005940                     __end_of_nanf:
  6375                           	opt callstack 0
  6376                           
  6377 ;; *************** function ___flge *****************
  6378 ;; Defined at:
  6379 ;;		line 4 in file "/opt/microchip/xc8/v2.10/pic/sources/c99/common/flge.c"
  6380 ;; Parameters:    Size  Location     Type
  6381 ;;  ff1             4   65[COMRAM] float 
  6382 ;;  ff2             4   69[COMRAM] float 
  6383 ;; Auto vars:     Size  Location     Type
  6384 ;;		None
  6385 ;; Return value:  Size  Location     Type
  6386 ;;		None               void
  6387 ;; Registers used:
  6388 ;;		wreg, status,2, status,0
  6389 ;; Tracked objects:
  6390 ;;		On entry : 0/0
  6391 ;;		On exit  : 0/0
  6392 ;;		Unchanged: 0/0
  6393 ;; Data sizes:     COMRAM   BANK0   BANK1   BANK2   BANK3   BANK4   BANK5   BANK6   BANK7   BANK8   BANK9  BANK10  BANK1
      +1  BANK12  BANK13  BANK14  BANK15
  6394 ;;      Params:         8       0       0       0       0       0       0       0       0       0       0       0       
      +0       0       0       0       0
  6395 ;;      Locals:         0       0       0       0       0       0       0       0       0       0       0       0       
      +0       0       0       0       0
  6396 ;;      Temps:          4       0       0       0       0       0       0       0       0       0       0       0       
      +0       0       0       0       0
  6397 ;;      Totals:        12       0       0       0       0       0       0       0       0       0       0       0       
      +0       0       0       0       0
  6398 ;;Total ram usage:       12 bytes
  6399 ;; Hardware stack levels used:    1
  6400 ;; Hardware stack levels required when called:    3
  6401 ;; This function calls:
  6402 ;;		Nothing
  6403 ;; This function is called by:
  6404 ;;		_powf
  6405 ;;		_sqrtf
  6406 ;; This function uses a non-reentrant model
  6407 ;;
  6408                           
  6409                           	psect	text10
  6410  00533E                     __ptext10:
  6411                           	opt callstack 0
  6412  00533E                     ___flge:
  6413                           	opt callstack 23
  6414  00533E  0E00               	movlw	0
  6415  005340  1442               	andwf	___flge@ff1^0,w,c
  6416  005342  6E4A               	movwf	??___flge^0,c
  6417  005344  0E00               	movlw	0
  6418  005346  1443               	andwf	(___flge@ff1+1)^0,w,c
  6419  005348  6E4B               	movwf	(??___flge+1)^0,c
  6420  00534A  0E80               	movlw	128
  6421  00534C  1444               	andwf	(___flge@ff1+2)^0,w,c
  6422  00534E  6E4C               	movwf	(??___flge+2)^0,c
  6423  005350  0E7F               	movlw	127
  6424  005352  1445               	andwf	(___flge@ff1+3)^0,w,c
  6425  005354  6E4D               	movwf	(??___flge+3)^0,c
  6426  005356  504A               	movf	??___flge^0,w,c
  6427  005358  104B               	iorwf	(??___flge+1)^0,w,c
  6428  00535A  104C               	iorwf	(??___flge+2)^0,w,c
  6429  00535C  104D               	iorwf	(??___flge+3)^0,w,c
  6430  00535E  A4D8               	btfss	status,2,c
  6431  005360  EFB4  F029         	goto	u2781
  6432  005364  EFB6  F029         	goto	u2780
  6433  005368                     u2781:
  6434  005368  EFBE  F029         	goto	l2987
  6435  00536C                     u2780:
  6436  00536C  0E00               	movlw	0
  6437  00536E  6E42               	movwf	___flge@ff1^0,c
  6438  005370  0E00               	movlw	0
  6439  005372  6E43               	movwf	(___flge@ff1+1)^0,c
  6440  005374  0E00               	movlw	0
  6441  005376  6E44               	movwf	(___flge@ff1+2)^0,c
  6442  005378  0E00               	movlw	0
  6443  00537A  6E45               	movwf	(___flge@ff1+3)^0,c
  6444  00537C                     l2987:
  6445  00537C  0E00               	movlw	0
  6446  00537E  1446               	andwf	___flge@ff2^0,w,c
  6447  005380  6E4A               	movwf	??___flge^0,c
  6448  005382  0E00               	movlw	0
  6449  005384  1447               	andwf	(___flge@ff2+1)^0,w,c
  6450  005386  6E4B               	movwf	(??___flge+1)^0,c
  6451  005388  0E80               	movlw	128
  6452  00538A  1448               	andwf	(___flge@ff2+2)^0,w,c
  6453  00538C  6E4C               	movwf	(??___flge+2)^0,c
  6454  00538E  0E7F               	movlw	127
  6455  005390  1449               	andwf	(___flge@ff2+3)^0,w,c
  6456  005392  6E4D               	movwf	(??___flge+3)^0,c
  6457  005394  504A               	movf	??___flge^0,w,c
  6458  005396  104B               	iorwf	(??___flge+1)^0,w,c
  6459  005398  104C               	iorwf	(??___flge+2)^0,w,c
  6460  00539A  104D               	iorwf	(??___flge+3)^0,w,c
  6461  00539C  A4D8               	btfss	status,2,c
  6462  00539E  EFD3  F029         	goto	u2791
  6463  0053A2  EFD5  F029         	goto	u2790
  6464  0053A6                     u2791:
  6465  0053A6  EFDD  F029         	goto	l2991
  6466  0053AA                     u2790:
  6467  0053AA  0E00               	movlw	0
  6468  0053AC  6E46               	movwf	___flge@ff2^0,c
  6469  0053AE  0E00               	movlw	0
  6470  0053B0  6E47               	movwf	(___flge@ff2+1)^0,c
  6471  0053B2  0E00               	movlw	0
  6472  0053B4  6E48               	movwf	(___flge@ff2+2)^0,c
  6473  0053B6  0E00               	movlw	0
  6474  0053B8  6E49               	movwf	(___flge@ff2+3)^0,c
  6475  0053BA                     l2991:
  6476  0053BA  AE45               	btfss	(___flge@ff1+3)^0,7,c
  6477  0053BC  EFE2  F029         	goto	u2801
  6478  0053C0  EFE4  F029         	goto	u2800
  6479  0053C4                     u2801:
  6480  0053C4  EFED  F029         	goto	l2995
  6481  0053C8                     u2800:
  6482  0053C8  6C42               	negf	___flge@ff1^0,c
  6483  0053CA  1E43               	comf	(___flge@ff1+1)^0,f,c
  6484  0053CC  B0D8               	btfsc	status,0,c
  6485  0053CE  2A43               	incf	(___flge@ff1+1)^0,f,c
  6486  0053D0  1E44               	comf	(___flge@ff1+2)^0,f,c
  6487  0053D2  B0D8               	btfsc	status,0,c
  6488  0053D4  2A44               	incf	(___flge@ff1+2)^0,f,c
  6489  0053D6  0E80               	movlw	128
  6490  0053D8  5645               	subfwb	(___flge@ff1+3)^0,f,c
  6491  0053DA                     l2995:
  6492  0053DA  AE49               	btfss	(___flge@ff2+3)^0,7,c
  6493  0053DC  EFF2  F029         	goto	u2811
  6494  0053E0  EFF4  F029         	goto	u2810
  6495  0053E4                     u2811:
  6496  0053E4  EFFD  F029         	goto	l578
  6497  0053E8                     u2810:
  6498  0053E8  6C46               	negf	___flge@ff2^0,c
  6499  0053EA  1E47               	comf	(___flge@ff2+1)^0,f,c
  6500  0053EC  B0D8               	btfsc	status,0,c
  6501  0053EE  2A47               	incf	(___flge@ff2+1)^0,f,c
  6502  0053F0  1E48               	comf	(___flge@ff2+2)^0,f,c
  6503  0053F2  B0D8               	btfsc	status,0,c
  6504  0053F4  2A48               	incf	(___flge@ff2+2)^0,f,c
  6505  0053F6  0E80               	movlw	128
  6506  0053F8  5649               	subfwb	(___flge@ff2+3)^0,f,c
  6507  0053FA                     l578:
  6508  0053FA  0E00               	movlw	0
  6509  0053FC  1A42               	xorwf	___flge@ff1^0,f,c
  6510  0053FE  0E00               	movlw	0
  6511  005400  1A43               	xorwf	(___flge@ff1+1)^0,f,c
  6512  005402  0E00               	movlw	0
  6513  005404  1A44               	xorwf	(___flge@ff1+2)^0,f,c
  6514  005406  0E80               	movlw	128
  6515  005408  1A45               	xorwf	(___flge@ff1+3)^0,f,c
  6516  00540A  0E00               	movlw	0
  6517  00540C  1A46               	xorwf	___flge@ff2^0,f,c
  6518  00540E  0E00               	movlw	0
  6519  005410  1A47               	xorwf	(___flge@ff2+1)^0,f,c
  6520  005412  0E00               	movlw	0
  6521  005414  1A48               	xorwf	(___flge@ff2+2)^0,f,c
  6522  005416  0E80               	movlw	128
  6523  005418  1A49               	xorwf	(___flge@ff2+3)^0,f,c
  6524  00541A  5046               	movf	___flge@ff2^0,w,c
  6525  00541C  5C42               	subwf	___flge@ff1^0,w,c
  6526  00541E  5047               	movf	(___flge@ff2+1)^0,w,c
  6527  005420  5843               	subwfb	(___flge@ff1+1)^0,w,c
  6528  005422  5048               	movf	(___flge@ff2+2)^0,w,c
  6529  005424  5844               	subwfb	(___flge@ff1+2)^0,w,c
  6530  005426  5049               	movf	(___flge@ff2+3)^0,w,c
  6531  005428  5845               	subwfb	(___flge@ff1+3)^0,w,c
  6532  00542A  B0D8               	btfsc	status,0,c
  6533  00542C  EF1A  F02A         	goto	u2821
  6534  005430  EF1C  F02A         	goto	u2820
  6535  005434                     u2821:
  6536  005434  EF1F  F02A         	goto	l3001
  6537  005438                     u2820:
  6538  005438  90D8               	bcf	status,0,c
  6539  00543A  EF20  F02A         	goto	l583
  6540  00543E                     l3001:
  6541  00543E  80D8               	bsf	status,0,c
  6542  005440                     l583:
  6543  005440  0012               	return		;funcret
  6544  005442                     __end_of___flge:
  6545                           	opt callstack 0
  6546                           
  6547 ;; *************** function _scalbnf *****************
  6548 ;; Defined at:
  6549 ;;		line 4 in file "/opt/microchip/xc8/v2.10/pic/sources/c99/common/scalbnf.c"
  6550 ;; Parameters:    Size  Location     Type
  6551 ;;  x               4   43[COMRAM] float 
  6552 ;;  n               2   47[COMRAM] int 
  6553 ;; Auto vars:     Size  Location     Type
  6554 ;;  y               4   57[COMRAM] float 
  6555 ;;  u               4   53[COMRAM] struct .
  6556 ;; Return value:  Size  Location     Type
  6557 ;;                  4   43[COMRAM] float 
  6558 ;; Registers used:
  6559 ;;		wreg, status,2, status,0, prodl, prodh, cstack
  6560 ;; Tracked objects:
  6561 ;;		On entry : 0/0
  6562 ;;		On exit  : 0/0
  6563 ;;		Unchanged: 0/0
  6564 ;; Data sizes:     COMRAM   BANK0   BANK1   BANK2   BANK3   BANK4   BANK5   BANK6   BANK7   BANK8   BANK9  BANK10  BANK1
      +1  BANK12  BANK13  BANK14  BANK15
  6565 ;;      Params:         6       0       0       0       0       0       0       0       0       0       0       0       
      +0       0       0       0       0
  6566 ;;      Locals:         8       0       0       0       0       0       0       0       0       0       0       0       
      +0       0       0       0       0
  6567 ;;      Temps:          4       0       0       0       0       0       0       0       0       0       0       0       
      +0       0       0       0       0
  6568 ;;      Totals:        18       0       0       0       0       0       0       0       0       0       0       0       
      +0       0       0       0       0
  6569 ;;Total ram usage:       18 bytes
  6570 ;; Hardware stack levels used:    1
  6571 ;; Hardware stack levels required when called:    4
  6572 ;; This function calls:
  6573 ;;		___flmul
  6574 ;; This function is called by:
  6575 ;;		_powf
  6576 ;; This function uses a non-reentrant model
  6577 ;;
  6578                           
  6579                           	psect	text11
  6580  004BF6                     __ptext11:
  6581                           	opt callstack 0
  6582  004BF6                     _scalbnf:
  6583                           	opt callstack 23
  6584  004BF6  C02C  F03A         	movff	scalbnf@x,scalbnf@y
  6585  004BFA  C02D  F03B         	movff	scalbnf@x+1,scalbnf@y+1
  6586  004BFE  C02E  F03C         	movff	scalbnf@x+2,scalbnf@y+2
  6587  004C02  C02F  F03D         	movff	scalbnf@x+3,scalbnf@y+3
  6588  004C06  BE31               	btfsc	(scalbnf@n+1)^0,7,c
  6589  004C08  EF0F  F026         	goto	u3311
  6590  004C0C  5031               	movf	(scalbnf@n+1)^0,w,c
  6591  004C0E  E109               	bnz	u3310
  6592  004C10  0E80               	movlw	128
  6593  004C12  5C30               	subwf	scalbnf@n^0,w,c
  6594  004C14  A0D8               	btfss	status,0,c
  6595  004C16  EF0F  F026         	goto	u3311
  6596  004C1A  EF11  F026         	goto	u3310
  6597  004C1E                     u3311:
  6598  004C1E  EF6F  F026         	goto	l3311
  6599  004C22                     u3310:
  6600  004C22  C03A  F013         	movff	scalbnf@y,___flmul@b
  6601  004C26  C03B  F014         	movff	scalbnf@y+1,___flmul@b+1
  6602  004C2A  C03C  F015         	movff	scalbnf@y+2,___flmul@b+2
  6603  004C2E  C03D  F016         	movff	scalbnf@y+3,___flmul@b+3
  6604  004C32  0E00               	movlw	0
  6605  004C34  6E17               	movwf	___flmul@a^0,c
  6606  004C36  0E00               	movlw	0
  6607  004C38  6E18               	movwf	(___flmul@a+1)^0,c
  6608  004C3A  0E00               	movlw	0
  6609  004C3C  6E19               	movwf	(___flmul@a+2)^0,c
  6610  004C3E  0E7F               	movlw	127
  6611  004C40  6E1A               	movwf	(___flmul@a+3)^0,c
  6612  004C42  EC19  F022         	call	___flmul	;wreg free
  6613  004C46  C013  F03A         	movff	?___flmul,scalbnf@y
  6614  004C4A  C014  F03B         	movff	?___flmul+1,scalbnf@y+1
  6615  004C4E  C015  F03C         	movff	?___flmul+2,scalbnf@y+2
  6616  004C52  C016  F03D         	movff	?___flmul+3,scalbnf@y+3
  6617  004C56  0E81               	movlw	129
  6618  004C58  2630               	addwf	scalbnf@n^0,f,c
  6619  004C5A  0EFF               	movlw	255
  6620  004C5C  2231               	addwfc	(scalbnf@n+1)^0,f,c
  6621  004C5E  BE31               	btfsc	(scalbnf@n+1)^0,7,c
  6622  004C60  EF3B  F026         	goto	u3321
  6623  004C64  5031               	movf	(scalbnf@n+1)^0,w,c
  6624  004C66  E109               	bnz	u3320
  6625  004C68  0E80               	movlw	128
  6626  004C6A  5C30               	subwf	scalbnf@n^0,w,c
  6627  004C6C  A0D8               	btfss	status,0,c
  6628  004C6E  EF3B  F026         	goto	u3321
  6629  004C72  EF3D  F026         	goto	u3320
  6630  004C76                     u3321:
  6631  004C76  EFD9  F026         	goto	l3327
  6632  004C7A                     u3320:
  6633  004C7A  C03A  F013         	movff	scalbnf@y,___flmul@b
  6634  004C7E  C03B  F014         	movff	scalbnf@y+1,___flmul@b+1
  6635  004C82  C03C  F015         	movff	scalbnf@y+2,___flmul@b+2
  6636  004C86  C03D  F016         	movff	scalbnf@y+3,___flmul@b+3
  6637  004C8A  0E00               	movlw	0
  6638  004C8C  6E17               	movwf	___flmul@a^0,c
  6639  004C8E  0E00               	movlw	0
  6640  004C90  6E18               	movwf	(___flmul@a+1)^0,c
  6641  004C92  0E00               	movlw	0
  6642  004C94  6E19               	movwf	(___flmul@a+2)^0,c
  6643  004C96  0E7F               	movlw	127
  6644  004C98  6E1A               	movwf	(___flmul@a+3)^0,c
  6645  004C9A  EC19  F022         	call	___flmul	;wreg free
  6646  004C9E  C013  F03A         	movff	?___flmul,scalbnf@y
  6647  004CA2  C014  F03B         	movff	?___flmul+1,scalbnf@y+1
  6648  004CA6  C015  F03C         	movff	?___flmul+2,scalbnf@y+2
  6649  004CAA  C016  F03D         	movff	?___flmul+3,scalbnf@y+3
  6650  004CAE  0E81               	movlw	129
  6651  004CB0  2630               	addwf	scalbnf@n^0,f,c
  6652  004CB2  0EFF               	movlw	255
  6653  004CB4  2231               	addwfc	(scalbnf@n+1)^0,f,c
  6654  004CB6  BE31               	btfsc	(scalbnf@n+1)^0,7,c
  6655  004CB8  EF67  F026         	goto	u3331
  6656  004CBC  5031               	movf	(scalbnf@n+1)^0,w,c
  6657  004CBE  E109               	bnz	u3330
  6658  004CC0  0E80               	movlw	128
  6659  004CC2  5C30               	subwf	scalbnf@n^0,w,c
  6660  004CC4  A0D8               	btfss	status,0,c
  6661  004CC6  EF67  F026         	goto	u3331
  6662  004CCA  EF69  F026         	goto	u3330
  6663  004CCE                     u3331:
  6664  004CCE  EFD9  F026         	goto	l3327
  6665  004CD2                     u3330:
  6666  004CD2  0E00               	movlw	0
  6667  004CD4  6E31               	movwf	(scalbnf@n+1)^0,c
  6668  004CD6  0E7F               	movlw	127
  6669  004CD8  6E30               	movwf	scalbnf@n^0,c
  6670  004CDA  EFD9  F026         	goto	l3327
  6671  004CDE                     l3311:
  6672  004CDE  AE31               	btfss	(scalbnf@n+1)^0,7,c
  6673  004CE0  EF7B  F026         	goto	u3341
  6674  004CE4  0E82               	movlw	130
  6675  004CE6  5C30               	subwf	scalbnf@n^0,w,c
  6676  004CE8  0EFF               	movlw	255
  6677  004CEA  5831               	subwfb	(scalbnf@n+1)^0,w,c
  6678  004CEC  B0D8               	btfsc	status,0,c
  6679  004CEE  EF7B  F026         	goto	u3341
  6680  004CF2  EF7D  F026         	goto	u3340
  6681  004CF6                     u3341:
  6682  004CF6  EFD9  F026         	goto	l3327
  6683  004CFA                     u3340:
  6684  004CFA  C03A  F013         	movff	scalbnf@y,___flmul@b
  6685  004CFE  C03B  F014         	movff	scalbnf@y+1,___flmul@b+1
  6686  004D02  C03C  F015         	movff	scalbnf@y+2,___flmul@b+2
  6687  004D06  C03D  F016         	movff	scalbnf@y+3,___flmul@b+3
  6688  004D0A  0E00               	movlw	0
  6689  004D0C  6E17               	movwf	___flmul@a^0,c
  6690  004D0E  0E00               	movlw	0
  6691  004D10  6E18               	movwf	(___flmul@a+1)^0,c
  6692  004D12  0E80               	movlw	128
  6693  004D14  6E19               	movwf	(___flmul@a+2)^0,c
  6694  004D16  0E0C               	movlw	12
  6695  004D18  6E1A               	movwf	(___flmul@a+3)^0,c
  6696  004D1A  EC19  F022         	call	___flmul	;wreg free
  6697  004D1E  C013  F03A         	movff	?___flmul,scalbnf@y
  6698  004D22  C014  F03B         	movff	?___flmul+1,scalbnf@y+1
  6699  004D26  C015  F03C         	movff	?___flmul+2,scalbnf@y+2
  6700  004D2A  C016  F03D         	movff	?___flmul+3,scalbnf@y+3
  6701  004D2E  0E66               	movlw	102
  6702  004D30  2630               	addwf	scalbnf@n^0,f,c
  6703  004D32  0E00               	movlw	0
  6704  004D34  2231               	addwfc	(scalbnf@n+1)^0,f,c
  6705  004D36  AE31               	btfss	(scalbnf@n+1)^0,7,c
  6706  004D38  EFA7  F026         	goto	u3351
  6707  004D3C  0E82               	movlw	130
  6708  004D3E  5C30               	subwf	scalbnf@n^0,w,c
  6709  004D40  0EFF               	movlw	255
  6710  004D42  5831               	subwfb	(scalbnf@n+1)^0,w,c
  6711  004D44  B0D8               	btfsc	status,0,c
  6712  004D46  EFA7  F026         	goto	u3351
  6713  004D4A  EFA9  F026         	goto	u3350
  6714  004D4E                     u3351:
  6715  004D4E  EFD9  F026         	goto	l3327
  6716  004D52                     u3350:
  6717  004D52  C03A  F013         	movff	scalbnf@y,___flmul@b
  6718  004D56  C03B  F014         	movff	scalbnf@y+1,___flmul@b+1
  6719  004D5A  C03C  F015         	movff	scalbnf@y+2,___flmul@b+2
  6720  004D5E  C03D  F016         	movff	scalbnf@y+3,___flmul@b+3
  6721  004D62  0E00               	movlw	0
  6722  004D64  6E17               	movwf	___flmul@a^0,c
  6723  004D66  0E00               	movlw	0
  6724  004D68  6E18               	movwf	(___flmul@a+1)^0,c
  6725  004D6A  0E80               	movlw	128
  6726  004D6C  6E19               	movwf	(___flmul@a+2)^0,c
  6727  004D6E  0E0C               	movlw	12
  6728  004D70  6E1A               	movwf	(___flmul@a+3)^0,c
  6729  004D72  EC19  F022         	call	___flmul	;wreg free
  6730  004D76  C013  F03A         	movff	?___flmul,scalbnf@y
  6731  004D7A  C014  F03B         	movff	?___flmul+1,scalbnf@y+1
  6732  004D7E  C015  F03C         	movff	?___flmul+2,scalbnf@y+2
  6733  004D82  C016  F03D         	movff	?___flmul+3,scalbnf@y+3
  6734  004D86  0E66               	movlw	102
  6735  004D88  2630               	addwf	scalbnf@n^0,f,c
  6736  004D8A  0E00               	movlw	0
  6737  004D8C  2231               	addwfc	(scalbnf@n+1)^0,f,c
  6738  004D8E  AE31               	btfss	(scalbnf@n+1)^0,7,c
  6739  004D90  EFD3  F026         	goto	u3361
  6740  004D94  0E82               	movlw	130
  6741  004D96  5C30               	subwf	scalbnf@n^0,w,c
  6742  004D98  0EFF               	movlw	255
  6743  004D9A  5831               	subwfb	(scalbnf@n+1)^0,w,c
  6744  004D9C  B0D8               	btfsc	status,0,c
  6745  004D9E  EFD3  F026         	goto	u3361
  6746  004DA2  EFD5  F026         	goto	u3360
  6747  004DA6                     u3361:
  6748  004DA6  EFD9  F026         	goto	l3327
  6749  004DAA                     u3360:
  6750  004DAA  0EFF               	movlw	255
  6751  004DAC  6E31               	movwf	(scalbnf@n+1)^0,c
  6752  004DAE  0E82               	movlw	130
  6753  004DB0  6E30               	movwf	scalbnf@n^0,c
  6754  004DB2                     l3327:
  6755  004DB2  0E7F               	movlw	127
  6756  004DB4  2430               	addwf	scalbnf@n^0,w,c
  6757  004DB6  6E32               	movwf	??_scalbnf^0,c
  6758  004DB8  0E00               	movlw	0
  6759  004DBA  2031               	addwfc	(scalbnf@n+1)^0,w,c
  6760  004DBC  6E33               	movwf	(??_scalbnf+1)^0,c
  6761  004DBE  6A34               	clrf	(??_scalbnf+2)^0,c
  6762  004DC0  6A35               	clrf	(??_scalbnf+3)^0,c
  6763  004DC2  0E17               	movlw	23
  6764  004DC4                     u3375:
  6765  004DC4  90D8               	bcf	status,0,c
  6766  004DC6  3632               	rlcf	??_scalbnf^0,f,c
  6767  004DC8  3633               	rlcf	(??_scalbnf+1)^0,f,c
  6768  004DCA  3634               	rlcf	(??_scalbnf+2)^0,f,c
  6769  004DCC  3635               	rlcf	(??_scalbnf+3)^0,f,c
  6770  004DCE  2EE8               	decfsz	wreg,f,c
  6771  004DD0  EFE2  F026         	goto	u3375
  6772  004DD4  C032  F036         	movff	??_scalbnf,scalbnf@u
  6773  004DD8  C033  F037         	movff	??_scalbnf+1,scalbnf@u+1
  6774  004DDC  C034  F038         	movff	??_scalbnf+2,scalbnf@u+2
  6775  004DE0  C035  F039         	movff	??_scalbnf+3,scalbnf@u+3
  6776  004DE4  C036  F013         	movff	scalbnf@u,___flmul@b
  6777  004DE8  C037  F014         	movff	scalbnf@u+1,___flmul@b+1
  6778  004DEC  C038  F015         	movff	scalbnf@u+2,___flmul@b+2
  6779  004DF0  C039  F016         	movff	scalbnf@u+3,___flmul@b+3
  6780  004DF4  C03A  F017         	movff	scalbnf@y,___flmul@a
  6781  004DF8  C03B  F018         	movff	scalbnf@y+1,___flmul@a+1
  6782  004DFC  C03C  F019         	movff	scalbnf@y+2,___flmul@a+2
  6783  004E00  C03D  F01A         	movff	scalbnf@y+3,___flmul@a+3
  6784  004E04  EC19  F022         	call	___flmul	;wreg free
  6785  004E08  C013  F02C         	movff	?___flmul,scalbnf@x
  6786  004E0C  C014  F02D         	movff	?___flmul+1,scalbnf@x+1
  6787  004E10  C015  F02E         	movff	?___flmul+2,scalbnf@x+2
  6788  004E14  C016  F02F         	movff	?___flmul+3,scalbnf@x+3
  6789  004E18  C02C  F02C         	movff	scalbnf@x,?_scalbnf
  6790  004E1C  C02D  F02D         	movff	scalbnf@x+1,?_scalbnf+1
  6791  004E20  C02E  F02E         	movff	scalbnf@x+2,?_scalbnf+2
  6792  004E24  C02F  F02F         	movff	scalbnf@x+3,?_scalbnf+3
  6793  004E28  0012               	return		;funcret
  6794  004E2A                     __end_of_scalbnf:
  6795                           	opt callstack 0
  6796                           
  6797 ;; *************** function ___flmul *****************
  6798 ;; Defined at:
  6799 ;;		line 8 in file "/opt/microchip/xc8/v2.10/pic/sources/c99/common/sprcmul.c"
  6800 ;; Parameters:    Size  Location     Type
  6801 ;;  b               4   18[COMRAM] float 
  6802 ;;  a               4   22[COMRAM] float 
  6803 ;; Auto vars:     Size  Location     Type
  6804 ;;  prod            4   37[COMRAM] struct .
  6805 ;;  grs             4   31[COMRAM] unsigned long 
  6806 ;;  temp            2   41[COMRAM] struct .
  6807 ;;  bexp            1   36[COMRAM] unsigned char 
  6808 ;;  aexp            1   35[COMRAM] unsigned char 
  6809 ;;  sign            1   30[COMRAM] unsigned char 
  6810 ;; Return value:  Size  Location     Type
  6811 ;;                  4   18[COMRAM] unsigned char 
  6812 ;; Registers used:
  6813 ;;		wreg, status,2, status,0, prodl, prodh
  6814 ;; Tracked objects:
  6815 ;;		On entry : 0/0
  6816 ;;		On exit  : 0/0
  6817 ;;		Unchanged: 0/0
  6818 ;; Data sizes:     COMRAM   BANK0   BANK1   BANK2   BANK3   BANK4   BANK5   BANK6   BANK7   BANK8   BANK9  BANK10  BANK1
      +1  BANK12  BANK13  BANK14  BANK15
  6819 ;;      Params:         8       0       0       0       0       0       0       0       0       0       0       0       
      +0       0       0       0       0
  6820 ;;      Locals:        13       0       0       0       0       0       0       0       0       0       0       0       
      +0       0       0       0       0
  6821 ;;      Temps:          4       0       0       0       0       0       0       0       0       0       0       0       
      +0       0       0       0       0
  6822 ;;      Totals:        25       0       0       0       0       0       0       0       0       0       0       0       
      +0       0       0       0       0
  6823 ;;Total ram usage:       25 bytes
  6824 ;; Hardware stack levels used:    1
  6825 ;; Hardware stack levels required when called:    3
  6826 ;; This function calls:
  6827 ;;		Nothing
  6828 ;; This function is called by:
  6829 ;;		_calculateTmr
  6830 ;;		_powf
  6831 ;;		_scalbnf
  6832 ;;		_sqrtf
  6833 ;; This function uses a non-reentrant model
  6834 ;;
  6835                           
  6836                           	psect	text12
  6837  004432                     __ptext12:
  6838                           	opt callstack 0
  6839  004432                     ___flmul:
  6840                           	opt callstack 23
  6841  004432  5016               	movf	(___flmul@b+3)^0,w,c
  6842  004434  0B80               	andlw	128
  6843  004436  6E1F               	movwf	___flmul@sign^0,c
  6844  004438  5016               	movf	(___flmul@b+3)^0,w,c
  6845  00443A  2416               	addwf	(___flmul@b+3)^0,w,c
  6846  00443C  6E25               	movwf	___flmul@bexp^0,c
  6847  00443E  AE15               	btfss	(___flmul@b+2)^0,7,c
  6848  004440  EF24  F022         	goto	u2591
  6849  004444  EF26  F022         	goto	u2590
  6850  004448                     u2591:
  6851  004448  EF27  F022         	goto	l2859
  6852  00444C                     u2590:
  6853  00444C  8025               	bsf	___flmul@bexp^0,0,c
  6854  00444E                     l2859:
  6855  00444E  5025               	movf	___flmul@bexp^0,w,c
  6856  004450  B4D8               	btfsc	status,2,c
  6857  004452  EF2D  F022         	goto	u2601
  6858  004456  EF2F  F022         	goto	u2600
  6859  00445A                     u2601:
  6860  00445A  EF42  F022         	goto	l2867
  6861  00445E                     u2600:
  6862  00445E  2825               	incf	___flmul@bexp^0,w,c
  6863  004460  A4D8               	btfss	status,2,c
  6864  004462  EF35  F022         	goto	u2611
  6865  004466  EF37  F022         	goto	u2610
  6866  00446A                     u2611:
  6867  00446A  EF3F  F022         	goto	l2865
  6868  00446E                     u2610:
  6869  00446E  0E00               	movlw	0
  6870  004470  6E13               	movwf	___flmul@b^0,c
  6871  004472  0E00               	movlw	0
  6872  004474  6E14               	movwf	(___flmul@b+1)^0,c
  6873  004476  0E00               	movlw	0
  6874  004478  6E15               	movwf	(___flmul@b+2)^0,c
  6875  00447A  0E00               	movlw	0
  6876  00447C  6E16               	movwf	(___flmul@b+3)^0,c
  6877  00447E                     l2865:
  6878  00447E  8E15               	bsf	(___flmul@b+2)^0,7,c
  6879  004480  EF4A  F022         	goto	l2869
  6880  004484                     l2867:
  6881  004484  0E00               	movlw	0
  6882  004486  6E13               	movwf	___flmul@b^0,c
  6883  004488  0E00               	movlw	0
  6884  00448A  6E14               	movwf	(___flmul@b+1)^0,c
  6885  00448C  0E00               	movlw	0
  6886  00448E  6E15               	movwf	(___flmul@b+2)^0,c
  6887  004490  0E00               	movlw	0
  6888  004492  6E16               	movwf	(___flmul@b+3)^0,c
  6889  004494                     l2869:
  6890  004494  501A               	movf	(___flmul@a+3)^0,w,c
  6891  004496  0B80               	andlw	128
  6892  004498  1A1F               	xorwf	___flmul@sign^0,f,c
  6893  00449A  501A               	movf	(___flmul@a+3)^0,w,c
  6894  00449C  241A               	addwf	(___flmul@a+3)^0,w,c
  6895  00449E  6E24               	movwf	___flmul@aexp^0,c
  6896  0044A0  AE19               	btfss	(___flmul@a+2)^0,7,c
  6897  0044A2  EF55  F022         	goto	u2621
  6898  0044A6  EF57  F022         	goto	u2620
  6899  0044AA                     u2621:
  6900  0044AA  EF58  F022         	goto	l2877
  6901  0044AE                     u2620:
  6902  0044AE  8024               	bsf	___flmul@aexp^0,0,c
  6903  0044B0                     l2877:
  6904  0044B0  5024               	movf	___flmul@aexp^0,w,c
  6905  0044B2  B4D8               	btfsc	status,2,c
  6906  0044B4  EF5E  F022         	goto	u2631
  6907  0044B8  EF60  F022         	goto	u2630
  6908  0044BC                     u2631:
  6909  0044BC  EF73  F022         	goto	l2885
  6910  0044C0                     u2630:
  6911  0044C0  2824               	incf	___flmul@aexp^0,w,c
  6912  0044C2  A4D8               	btfss	status,2,c
  6913  0044C4  EF66  F022         	goto	u2641
  6914  0044C8  EF68  F022         	goto	u2640
  6915  0044CC                     u2641:
  6916  0044CC  EF70  F022         	goto	l2883
  6917  0044D0                     u2640:
  6918  0044D0  0E00               	movlw	0
  6919  0044D2  6E17               	movwf	___flmul@a^0,c
  6920  0044D4  0E00               	movlw	0
  6921  0044D6  6E18               	movwf	(___flmul@a+1)^0,c
  6922  0044D8  0E00               	movlw	0
  6923  0044DA  6E19               	movwf	(___flmul@a+2)^0,c
  6924  0044DC  0E00               	movlw	0
  6925  0044DE  6E1A               	movwf	(___flmul@a+3)^0,c
  6926  0044E0                     l2883:
  6927  0044E0  8E19               	bsf	(___flmul@a+2)^0,7,c
  6928  0044E2  EF7B  F022         	goto	l927
  6929  0044E6                     l2885:
  6930  0044E6  0E00               	movlw	0
  6931  0044E8  6E17               	movwf	___flmul@a^0,c
  6932  0044EA  0E00               	movlw	0
  6933  0044EC  6E18               	movwf	(___flmul@a+1)^0,c
  6934  0044EE  0E00               	movlw	0
  6935  0044F0  6E19               	movwf	(___flmul@a+2)^0,c
  6936  0044F2  0E00               	movlw	0
  6937  0044F4  6E1A               	movwf	(___flmul@a+3)^0,c
  6938  0044F6                     l927:
  6939  0044F6  5024               	movf	___flmul@aexp^0,w,c
  6940  0044F8  B4D8               	btfsc	status,2,c
  6941  0044FA  EF81  F022         	goto	u2651
  6942  0044FE  EF83  F022         	goto	u2650
  6943  004502                     u2651:
  6944  004502  EF8B  F022         	goto	l2889
  6945  004506                     u2650:
  6946  004506  5025               	movf	___flmul@bexp^0,w,c
  6947  004508  A4D8               	btfss	status,2,c
  6948  00450A  EF89  F022         	goto	u2661
  6949  00450E  EF8B  F022         	goto	u2660
  6950  004512                     u2661:
  6951  004512  EF95  F022         	goto	l2893
  6952  004516                     u2660:
  6953  004516                     l2889:
  6954  004516  0E00               	movlw	0
  6955  004518  6E13               	movwf	?___flmul^0,c
  6956  00451A  0E00               	movlw	0
  6957  00451C  6E14               	movwf	(?___flmul+1)^0,c
  6958  00451E  0E00               	movlw	0
  6959  004520  6E15               	movwf	(?___flmul+2)^0,c
  6960  004522  0E00               	movlw	0
  6961  004524  6E16               	movwf	(?___flmul+3)^0,c
  6962  004526  EF2D  F024         	goto	l931
  6963  00452A                     l2893:
  6964  00452A  5019               	movf	(___flmul@a+2)^0,w,c
  6965  00452C  0213               	mulwf	___flmul@b^0,c
  6966  00452E  CFF3 F02A          	movff	prodl,___flmul@temp
  6967  004532  CFF4 F02B          	movff	prodh,___flmul@temp+1
  6968  004536  502A               	movf	___flmul@temp^0,w,c
  6969  004538  6E20               	movwf	___flmul@grs^0,c
  6970  00453A  6A21               	clrf	(___flmul@grs+1)^0,c
  6971  00453C  6A22               	clrf	(___flmul@grs+2)^0,c
  6972  00453E  6A23               	clrf	(___flmul@grs+3)^0,c
  6973  004540  502B               	movf	(___flmul@temp+1)^0,w,c
  6974  004542  6E26               	movwf	___flmul@prod^0,c
  6975  004544  6A27               	clrf	(___flmul@prod+1)^0,c
  6976  004546  6A28               	clrf	(___flmul@prod+2)^0,c
  6977  004548  6A29               	clrf	(___flmul@prod+3)^0,c
  6978  00454A  5018               	movf	(___flmul@a+1)^0,w,c
  6979  00454C  0214               	mulwf	(___flmul@b+1)^0,c
  6980  00454E  CFF3 F02A          	movff	prodl,___flmul@temp
  6981  004552  CFF4 F02B          	movff	prodh,___flmul@temp+1
  6982  004556  502A               	movf	___flmul@temp^0,w,c
  6983  004558  2620               	addwf	___flmul@grs^0,f,c
  6984  00455A  0E00               	movlw	0
  6985  00455C  2221               	addwfc	(___flmul@grs+1)^0,f,c
  6986  00455E  2222               	addwfc	(___flmul@grs+2)^0,f,c
  6987  004560  2223               	addwfc	(___flmul@grs+3)^0,f,c
  6988  004562  502B               	movf	(___flmul@temp+1)^0,w,c
  6989  004564  2626               	addwf	___flmul@prod^0,f,c
  6990  004566  0E00               	movlw	0
  6991  004568  2227               	addwfc	(___flmul@prod+1)^0,f,c
  6992  00456A  2228               	addwfc	(___flmul@prod+2)^0,f,c
  6993  00456C  2229               	addwfc	(___flmul@prod+3)^0,f,c
  6994  00456E  5017               	movf	___flmul@a^0,w,c
  6995  004570  0215               	mulwf	(___flmul@b+2)^0,c
  6996  004572  CFF3 F02A          	movff	prodl,___flmul@temp
  6997  004576  CFF4 F02B          	movff	prodh,___flmul@temp+1
  6998  00457A  502A               	movf	___flmul@temp^0,w,c
  6999  00457C  2620               	addwf	___flmul@grs^0,f,c
  7000  00457E  0E00               	movlw	0
  7001  004580  2221               	addwfc	(___flmul@grs+1)^0,f,c
  7002  004582  2222               	addwfc	(___flmul@grs+2)^0,f,c
  7003  004584  2223               	addwfc	(___flmul@grs+3)^0,f,c
  7004  004586  502B               	movf	(___flmul@temp+1)^0,w,c
  7005  004588  2626               	addwf	___flmul@prod^0,f,c
  7006  00458A  0E00               	movlw	0
  7007  00458C  2227               	addwfc	(___flmul@prod+1)^0,f,c
  7008  00458E  2228               	addwfc	(___flmul@prod+2)^0,f,c
  7009  004590  2229               	addwfc	(___flmul@prod+3)^0,f,c
  7010  004592  C022  F023         	movff	___flmul@grs+2,___flmul@grs+3
  7011  004596  C021  F022         	movff	___flmul@grs+1,___flmul@grs+2
  7012  00459A  C020  F021         	movff	___flmul@grs,___flmul@grs+1
  7013  00459E  6A20               	clrf	___flmul@grs^0,c
  7014  0045A0  5017               	movf	___flmul@a^0,w,c
  7015  0045A2  0214               	mulwf	(___flmul@b+1)^0,c
  7016  0045A4  CFF3 F02A          	movff	prodl,___flmul@temp
  7017  0045A8  CFF4 F02B          	movff	prodh,___flmul@temp+1
  7018  0045AC  502A               	movf	___flmul@temp^0,w,c
  7019  0045AE  2620               	addwf	___flmul@grs^0,f,c
  7020  0045B0  502B               	movf	(___flmul@temp+1)^0,w,c
  7021  0045B2  2221               	addwfc	(___flmul@grs+1)^0,f,c
  7022  0045B4  0E00               	movlw	0
  7023  0045B6  2222               	addwfc	(___flmul@grs+2)^0,f,c
  7024  0045B8  0E00               	movlw	0
  7025  0045BA  2223               	addwfc	(___flmul@grs+3)^0,f,c
  7026  0045BC  5018               	movf	(___flmul@a+1)^0,w,c
  7027  0045BE  0213               	mulwf	___flmul@b^0,c
  7028  0045C0  CFF3 F02A          	movff	prodl,___flmul@temp
  7029  0045C4  CFF4 F02B          	movff	prodh,___flmul@temp+1
  7030  0045C8  502A               	movf	___flmul@temp^0,w,c
  7031  0045CA  2620               	addwf	___flmul@grs^0,f,c
  7032  0045CC  502B               	movf	(___flmul@temp+1)^0,w,c
  7033  0045CE  2221               	addwfc	(___flmul@grs+1)^0,f,c
  7034  0045D0  0E00               	movlw	0
  7035  0045D2  2222               	addwfc	(___flmul@grs+2)^0,f,c
  7036  0045D4  0E00               	movlw	0
  7037  0045D6  2223               	addwfc	(___flmul@grs+3)^0,f,c
  7038  0045D8  C022  F023         	movff	___flmul@grs+2,___flmul@grs+3
  7039  0045DC  C021  F022         	movff	___flmul@grs+1,___flmul@grs+2
  7040  0045E0  C020  F021         	movff	___flmul@grs,___flmul@grs+1
  7041  0045E4  6A20               	clrf	___flmul@grs^0,c
  7042  0045E6  5017               	movf	___flmul@a^0,w,c
  7043  0045E8  0213               	mulwf	___flmul@b^0,c
  7044  0045EA  CFF3 F02A          	movff	prodl,___flmul@temp
  7045  0045EE  CFF4 F02B          	movff	prodh,___flmul@temp+1
  7046  0045F2  502A               	movf	___flmul@temp^0,w,c
  7047  0045F4  2620               	addwf	___flmul@grs^0,f,c
  7048  0045F6  502B               	movf	(___flmul@temp+1)^0,w,c
  7049  0045F8  2221               	addwfc	(___flmul@grs+1)^0,f,c
  7050  0045FA  0E00               	movlw	0
  7051  0045FC  2222               	addwfc	(___flmul@grs+2)^0,f,c
  7052  0045FE  0E00               	movlw	0
  7053  004600  2223               	addwfc	(___flmul@grs+3)^0,f,c
  7054  004602  5019               	movf	(___flmul@a+2)^0,w,c
  7055  004604  0214               	mulwf	(___flmul@b+1)^0,c
  7056  004606  CFF3 F02A          	movff	prodl,___flmul@temp
  7057  00460A  CFF4 F02B          	movff	prodh,___flmul@temp+1
  7058  00460E  502A               	movf	___flmul@temp^0,w,c
  7059  004610  2626               	addwf	___flmul@prod^0,f,c
  7060  004612  502B               	movf	(___flmul@temp+1)^0,w,c
  7061  004614  2227               	addwfc	(___flmul@prod+1)^0,f,c
  7062  004616  0E00               	movlw	0
  7063  004618  2228               	addwfc	(___flmul@prod+2)^0,f,c
  7064  00461A  0E00               	movlw	0
  7065  00461C  2229               	addwfc	(___flmul@prod+3)^0,f,c
  7066  00461E  5018               	movf	(___flmul@a+1)^0,w,c
  7067  004620  0215               	mulwf	(___flmul@b+2)^0,c
  7068  004622  CFF3 F02A          	movff	prodl,___flmul@temp
  7069  004626  CFF4 F02B          	movff	prodh,___flmul@temp+1
  7070  00462A  502A               	movf	___flmul@temp^0,w,c
  7071  00462C  2626               	addwf	___flmul@prod^0,f,c
  7072  00462E  502B               	movf	(___flmul@temp+1)^0,w,c
  7073  004630  2227               	addwfc	(___flmul@prod+1)^0,f,c
  7074  004632  0E00               	movlw	0
  7075  004634  2228               	addwfc	(___flmul@prod+2)^0,f,c
  7076  004636  0E00               	movlw	0
  7077  004638  2229               	addwfc	(___flmul@prod+3)^0,f,c
  7078  00463A  5019               	movf	(___flmul@a+2)^0,w,c
  7079  00463C  0215               	mulwf	(___flmul@b+2)^0,c
  7080  00463E  CFF3 F02A          	movff	prodl,___flmul@temp
  7081  004642  CFF4 F02B          	movff	prodh,___flmul@temp+1
  7082  004646  502A               	movf	___flmul@temp^0,w,c
  7083  004648  6E1B               	movwf	??___flmul^0,c
  7084  00464A  502B               	movf	(___flmul@temp+1)^0,w,c
  7085  00464C  6E1C               	movwf	(??___flmul+1)^0,c
  7086  00464E  6A1D               	clrf	(??___flmul+2)^0,c
  7087  004650  6A1E               	clrf	(??___flmul+3)^0,c
  7088  004652  C01D  F01E         	movff	??___flmul+2,??___flmul+3
  7089  004656  C01C  F01D         	movff	??___flmul+1,??___flmul+2
  7090  00465A  C01B  F01C         	movff	??___flmul,??___flmul+1
  7091  00465E  6A1B               	clrf	??___flmul^0,c
  7092  004660  501B               	movf	??___flmul^0,w,c
  7093  004662  2626               	addwf	___flmul@prod^0,f,c
  7094  004664  501C               	movf	(??___flmul+1)^0,w,c
  7095  004666  2227               	addwfc	(___flmul@prod+1)^0,f,c
  7096  004668  501D               	movf	(??___flmul+2)^0,w,c
  7097  00466A  2228               	addwfc	(___flmul@prod+2)^0,f,c
  7098  00466C  501E               	movf	(??___flmul+3)^0,w,c
  7099  00466E  2229               	addwfc	(___flmul@prod+3)^0,f,c
  7100  004670  C020  F01B         	movff	___flmul@grs,??___flmul
  7101  004674  C021  F01C         	movff	___flmul@grs+1,??___flmul+1
  7102  004678  C022  F01D         	movff	___flmul@grs+2,??___flmul+2
  7103  00467C  C023  F01E         	movff	___flmul@grs+3,??___flmul+3
  7104  004680  0E19               	movlw	25
  7105  004682  EF48  F023         	goto	u2670
  7106  004686                     u2675:
  7107  004686  90D8               	bcf	status,0,c
  7108  004688  321E               	rrcf	(??___flmul+3)^0,f,c
  7109  00468A  321D               	rrcf	(??___flmul+2)^0,f,c
  7110  00468C  321C               	rrcf	(??___flmul+1)^0,f,c
  7111  00468E  321B               	rrcf	??___flmul^0,f,c
  7112  004690                     u2670:
  7113  004690  2EE8               	decfsz	wreg,f,c
  7114  004692  EF43  F023         	goto	u2675
  7115  004696  501B               	movf	??___flmul^0,w,c
  7116  004698  2626               	addwf	___flmul@prod^0,f,c
  7117  00469A  501C               	movf	(??___flmul+1)^0,w,c
  7118  00469C  2227               	addwfc	(___flmul@prod+1)^0,f,c
  7119  00469E  501D               	movf	(??___flmul+2)^0,w,c
  7120  0046A0  2228               	addwfc	(___flmul@prod+2)^0,f,c
  7121  0046A2  501E               	movf	(??___flmul+3)^0,w,c
  7122  0046A4  2229               	addwfc	(___flmul@prod+3)^0,f,c
  7123  0046A6  C022  F023         	movff	___flmul@grs+2,___flmul@grs+3
  7124  0046AA  C021  F022         	movff	___flmul@grs+1,___flmul@grs+2
  7125  0046AE  C020  F021         	movff	___flmul@grs,___flmul@grs+1
  7126  0046B2  6A20               	clrf	___flmul@grs^0,c
  7127  0046B4  5024               	movf	___flmul@aexp^0,w,c
  7128  0046B6  C025  F01B         	movff	___flmul@bexp,??___flmul
  7129  0046BA  6A1C               	clrf	(??___flmul+1)^0,c
  7130  0046BC  261B               	addwf	??___flmul^0,f,c
  7131  0046BE  0E00               	movlw	0
  7132  0046C0  221C               	addwfc	(??___flmul+1)^0,f,c
  7133  0046C2  0E82               	movlw	130
  7134  0046C4  241B               	addwf	??___flmul^0,w,c
  7135  0046C6  6E2A               	movwf	___flmul@temp^0,c
  7136  0046C8  0EFF               	movlw	255
  7137  0046CA  201C               	addwfc	(??___flmul+1)^0,w,c
  7138  0046CC  6E2B               	movwf	(___flmul@temp+1)^0,c
  7139  0046CE  EF7E  F023         	goto	l2941
  7140  0046D2                     l2935:
  7141  0046D2  90D8               	bcf	status,0,c
  7142  0046D4  3626               	rlcf	___flmul@prod^0,f,c
  7143  0046D6  3627               	rlcf	(___flmul@prod+1)^0,f,c
  7144  0046D8  3628               	rlcf	(___flmul@prod+2)^0,f,c
  7145  0046DA  3629               	rlcf	(___flmul@prod+3)^0,f,c
  7146  0046DC  AE23               	btfss	(___flmul@grs+3)^0,7,c
  7147  0046DE  EF73  F023         	goto	u2681
  7148  0046E2  EF75  F023         	goto	u2680
  7149  0046E6                     u2681:
  7150  0046E6  EF76  F023         	goto	l934
  7151  0046EA                     u2680:
  7152  0046EA  8026               	bsf	___flmul@prod^0,0,c
  7153  0046EC                     l934:
  7154  0046EC  90D8               	bcf	status,0,c
  7155  0046EE  3620               	rlcf	___flmul@grs^0,f,c
  7156  0046F0  3621               	rlcf	(___flmul@grs+1)^0,f,c
  7157  0046F2  3622               	rlcf	(___flmul@grs+2)^0,f,c
  7158  0046F4  3623               	rlcf	(___flmul@grs+3)^0,f,c
  7159  0046F6  062A               	decf	___flmul@temp^0,f,c
  7160  0046F8  A0D8               	btfss	status,0,c
  7161  0046FA  062B               	decf	(___flmul@temp+1)^0,f,c
  7162  0046FC                     l2941:
  7163  0046FC  AE28               	btfss	(___flmul@prod+2)^0,7,c
  7164  0046FE  EF83  F023         	goto	u2691
  7165  004702  EF85  F023         	goto	u2690
  7166  004706                     u2691:
  7167  004706  EF69  F023         	goto	l2935
  7168  00470A                     u2690:
  7169  00470A  0E00               	movlw	0
  7170  00470C  6E24               	movwf	___flmul@aexp^0,c
  7171  00470E  AE23               	btfss	(___flmul@grs+3)^0,7,c
  7172  004710  EF8C  F023         	goto	u2701
  7173  004714  EF8E  F023         	goto	u2700
  7174  004718                     u2701:
  7175  004718  EFB2  F023         	goto	l936
  7176  00471C                     u2700:
  7177  00471C  0EFF               	movlw	255
  7178  00471E  1420               	andwf	___flmul@grs^0,w,c
  7179  004720  6E1B               	movwf	??___flmul^0,c
  7180  004722  0EFF               	movlw	255
  7181  004724  1421               	andwf	(___flmul@grs+1)^0,w,c
  7182  004726  6E1C               	movwf	(??___flmul+1)^0,c
  7183  004728  0EFF               	movlw	255
  7184  00472A  1422               	andwf	(___flmul@grs+2)^0,w,c
  7185  00472C  6E1D               	movwf	(??___flmul+2)^0,c
  7186  00472E  0E7F               	movlw	127
  7187  004730  1423               	andwf	(___flmul@grs+3)^0,w,c
  7188  004732  6E1E               	movwf	(??___flmul+3)^0,c
  7189  004734  501B               	movf	??___flmul^0,w,c
  7190  004736  101C               	iorwf	(??___flmul+1)^0,w,c
  7191  004738  101D               	iorwf	(??___flmul+2)^0,w,c
  7192  00473A  101E               	iorwf	(??___flmul+3)^0,w,c
  7193  00473C  B4D8               	btfsc	status,2,c
  7194  00473E  EFA3  F023         	goto	u2711
  7195  004742  EFA5  F023         	goto	u2710
  7196  004746                     u2711:
  7197  004746  EFA9  F023         	goto	l937
  7198  00474A                     u2710:
  7199  00474A                     l2949:
  7200  00474A  0E01               	movlw	1
  7201  00474C  6E24               	movwf	___flmul@aexp^0,c
  7202  00474E  EFB2  F023         	goto	l936
  7203  004752                     l937:
  7204  004752  A026               	btfss	___flmul@prod^0,0,c
  7205  004754  EFAE  F023         	goto	u2721
  7206  004758  EFB0  F023         	goto	u2720
  7207  00475C                     u2721:
  7208  00475C  EFB2  F023         	goto	l936
  7209  004760                     u2720:
  7210  004760  EFA5  F023         	goto	l2949
  7211  004764                     l936:
  7212  004764  5024               	movf	___flmul@aexp^0,w,c
  7213  004766  B4D8               	btfsc	status,2,c
  7214  004768  EFB8  F023         	goto	u2731
  7215  00476C  EFBA  F023         	goto	u2730
  7216  004770                     u2731:
  7217  004770  EFDE  F023         	goto	l2961
  7218  004774                     u2730:
  7219  004774  0E01               	movlw	1
  7220  004776  2626               	addwf	___flmul@prod^0,f,c
  7221  004778  0E00               	movlw	0
  7222  00477A  2227               	addwfc	(___flmul@prod+1)^0,f,c
  7223  00477C  2228               	addwfc	(___flmul@prod+2)^0,f,c
  7224  00477E  2229               	addwfc	(___flmul@prod+3)^0,f,c
  7225  004780  A029               	btfss	(___flmul@prod+3)^0,0,c
  7226  004782  EFC5  F023         	goto	u2741
  7227  004786  EFC7  F023         	goto	u2740
  7228  00478A                     u2741:
  7229  00478A  EFDE  F023         	goto	l2961
  7230  00478E                     u2740:
  7231  00478E  C026  F01B         	movff	___flmul@prod,??___flmul
  7232  004792  C027  F01C         	movff	___flmul@prod+1,??___flmul+1
  7233  004796  C028  F01D         	movff	___flmul@prod+2,??___flmul+2
  7234  00479A  C029  F01E         	movff	___flmul@prod+3,??___flmul+3
  7235  00479E  341E               	rlcf	(??___flmul+3)^0,w,c
  7236  0047A0  321E               	rrcf	(??___flmul+3)^0,f,c
  7237  0047A2  321D               	rrcf	(??___flmul+2)^0,f,c
  7238  0047A4  321C               	rrcf	(??___flmul+1)^0,f,c
  7239  0047A6  321B               	rrcf	??___flmul^0,f,c
  7240  0047A8  C01B  F026         	movff	??___flmul,___flmul@prod
  7241  0047AC  C01C  F027         	movff	??___flmul+1,___flmul@prod+1
  7242  0047B0  C01D  F028         	movff	??___flmul+2,___flmul@prod+2
  7243  0047B4  C01E  F029         	movff	??___flmul+3,___flmul@prod+3
  7244  0047B8  4A2A               	infsnz	___flmul@temp^0,f,c
  7245  0047BA  2A2B               	incf	(___flmul@temp+1)^0,f,c
  7246  0047BC                     l2961:
  7247  0047BC  BE2B               	btfsc	(___flmul@temp+1)^0,7,c
  7248  0047BE  EFE9  F023         	goto	u2751
  7249  0047C2  502B               	movf	(___flmul@temp+1)^0,w,c
  7250  0047C4  E108               	bnz	u2750
  7251  0047C6  282A               	incf	___flmul@temp^0,w,c
  7252  0047C8  A0D8               	btfss	status,0,c
  7253  0047CA  EFE9  F023         	goto	u2751
  7254  0047CE  EFEB  F023         	goto	u2750
  7255  0047D2                     u2751:
  7256  0047D2  EFF5  F023         	goto	l2965
  7257  0047D6                     u2750:
  7258  0047D6  0E00               	movlw	0
  7259  0047D8  6E26               	movwf	___flmul@prod^0,c
  7260  0047DA  0E00               	movlw	0
  7261  0047DC  6E27               	movwf	(___flmul@prod+1)^0,c
  7262  0047DE  0E80               	movlw	128
  7263  0047E0  6E28               	movwf	(___flmul@prod+2)^0,c
  7264  0047E2  0E7F               	movlw	127
  7265  0047E4  6E29               	movwf	(___flmul@prod+3)^0,c
  7266  0047E6  EF23  F024         	goto	l2977
  7267  0047EA                     l2965:
  7268  0047EA  BE2B               	btfsc	(___flmul@temp+1)^0,7,c
  7269  0047EC  EF02  F024         	goto	u2760
  7270  0047F0  502B               	movf	(___flmul@temp+1)^0,w,c
  7271  0047F2  E106               	bnz	u2761
  7272  0047F4  042A               	decf	___flmul@temp^0,w,c
  7273  0047F6  B0D8               	btfsc	status,0,c
  7274  0047F8  EF00  F024         	goto	u2761
  7275  0047FC  EF02  F024         	goto	u2760
  7276  004800                     u2761:
  7277  004800  EF0E  F024         	goto	l944
  7278  004804                     u2760:
  7279  004804  0E00               	movlw	0
  7280  004806  6E26               	movwf	___flmul@prod^0,c
  7281  004808  0E00               	movlw	0
  7282  00480A  6E27               	movwf	(___flmul@prod+1)^0,c
  7283  00480C  0E00               	movlw	0
  7284  00480E  6E28               	movwf	(___flmul@prod+2)^0,c
  7285  004810  0E00               	movlw	0
  7286  004812  6E29               	movwf	(___flmul@prod+3)^0,c
  7287  004814  0E00               	movlw	0
  7288  004816  6E1F               	movwf	___flmul@sign^0,c
  7289  004818  EF23  F024         	goto	l2977
  7290  00481C                     l944:
  7291  00481C  C02A  F025         	movff	___flmul@temp,___flmul@bexp
  7292  004820  0EFF               	movlw	255
  7293  004822  1626               	andwf	___flmul@prod^0,f,c
  7294  004824  0EFF               	movlw	255
  7295  004826  1627               	andwf	(___flmul@prod+1)^0,f,c
  7296  004828  0E7F               	movlw	127
  7297  00482A  1628               	andwf	(___flmul@prod+2)^0,f,c
  7298  00482C  0E00               	movlw	0
  7299  00482E  1629               	andwf	(___flmul@prod+3)^0,f,c
  7300  004830  A025               	btfss	___flmul@bexp^0,0,c
  7301  004832  EF1D  F024         	goto	u2771
  7302  004836  EF1F  F024         	goto	u2770
  7303  00483A                     u2771:
  7304  00483A  EF20  F024         	goto	l2975
  7305  00483E                     u2770:
  7306  00483E  8E28               	bsf	(___flmul@prod+2)^0,7,c
  7307  004840                     l2975:
  7308  004840  90D8               	bcf	status,0,c
  7309  004842  3025               	rrcf	___flmul@bexp^0,w,c
  7310  004844  6E29               	movwf	(___flmul@prod+3)^0,c
  7311  004846                     l2977:
  7312  004846  501F               	movf	___flmul@sign^0,w,c
  7313  004848  1229               	iorwf	(___flmul@prod+3)^0,f,c
  7314  00484A  C026  F013         	movff	___flmul@prod,?___flmul
  7315  00484E  C027  F014         	movff	___flmul@prod+1,?___flmul+1
  7316  004852  C028  F015         	movff	___flmul@prod+2,?___flmul+2
  7317  004856  C029  F016         	movff	___flmul@prod+3,?___flmul+3
  7318  00485A                     l931:
  7319  00485A  0012               	return		;funcret
  7320  00485C                     __end_of___flmul:
  7321                           	opt callstack 0
  7322                           
  7323 ;; *************** function _fabsf *****************
  7324 ;; Defined at:
  7325 ;;		line 4 in file "/opt/microchip/xc8/v2.10/pic/sources/c99/common/fabsf.c"
  7326 ;; Parameters:    Size  Location     Type
  7327 ;;  x               4    2[COMRAM] float 
  7328 ;; Auto vars:     Size  Location     Type
  7329 ;;  u               4    6[COMRAM] struct .
  7330 ;; Return value:  Size  Location     Type
  7331 ;;                  4    2[COMRAM] float 
  7332 ;; Registers used:
  7333 ;;		status,2, status,0
  7334 ;; Tracked objects:
  7335 ;;		On entry : 0/0
  7336 ;;		On exit  : 0/0
  7337 ;;		Unchanged: 0/0
  7338 ;; Data sizes:     COMRAM   BANK0   BANK1   BANK2   BANK3   BANK4   BANK5   BANK6   BANK7   BANK8   BANK9  BANK10  BANK1
      +1  BANK12  BANK13  BANK14  BANK15
  7339 ;;      Params:         4       0       0       0       0       0       0       0       0       0       0       0       
      +0       0       0       0       0
  7340 ;;      Locals:         4       0       0       0       0       0       0       0       0       0       0       0       
      +0       0       0       0       0
  7341 ;;      Temps:          0       0       0       0       0       0       0       0       0       0       0       0       
      +0       0       0       0       0
  7342 ;;      Totals:         8       0       0       0       0       0       0       0       0       0       0       0       
      +0       0       0       0       0
  7343 ;;Total ram usage:        8 bytes
  7344 ;; Hardware stack levels used:    1
  7345 ;; Hardware stack levels required when called:    3
  7346 ;; This function calls:
  7347 ;;		Nothing
  7348 ;; This function is called by:
  7349 ;;		_powf
  7350 ;; This function uses a non-reentrant model
  7351 ;;
  7352                           
  7353                           	psect	text13
  7354  0058EA                     __ptext13:
  7355                           	opt callstack 0
  7356  0058EA                     _fabsf:
  7357                           	opt callstack 24
  7358  0058EA  C0B5  F007         	movff	fabsf@F463,fabsf@u
  7359  0058EE  C0B6  F008         	movff	fabsf@F463+1,fabsf@u+1
  7360  0058F2  C0B7  F009         	movff	fabsf@F463+2,fabsf@u+2
  7361  0058F6  C0B8  F00A         	movff	fabsf@F463+3,fabsf@u+3
  7362  0058FA  C003  F007         	movff	fabsf@x,fabsf@u
  7363  0058FE  C004  F008         	movff	fabsf@x+1,fabsf@u+1
  7364  005902  C005  F009         	movff	fabsf@x+2,fabsf@u+2
  7365  005906  C006  F00A         	movff	fabsf@x+3,fabsf@u+3
  7366  00590A  9E0A               	bcf	(fabsf@u+3)^0,7,c
  7367  00590C  C007  F003         	movff	fabsf@u,?_fabsf
  7368  005910  C008  F004         	movff	fabsf@u+1,?_fabsf+1
  7369  005914  C009  F005         	movff	fabsf@u+2,?_fabsf+2
  7370  005918  C00A  F006         	movff	fabsf@u+3,?_fabsf+3
  7371  00591C  0012               	return		;funcret
  7372  00591E                     __end_of_fabsf:
  7373                           	opt callstack 0
  7374                           
  7375 ;; *************** function ___xxtofl *****************
  7376 ;; Defined at:
  7377 ;;		line 10 in file "/opt/microchip/xc8/v2.10/pic/sources/c99/common/xxtofl.c"
  7378 ;; Parameters:    Size  Location     Type
  7379 ;;  sign            1    wreg     unsigned char 
  7380 ;;  val             4   43[COMRAM] long 
  7381 ;; Auto vars:     Size  Location     Type
  7382 ;;  sign            1   51[COMRAM] unsigned char 
  7383 ;;  arg             4   53[COMRAM] unsigned long 
  7384 ;;  exp             1   52[COMRAM] unsigned char 
  7385 ;; Return value:  Size  Location     Type
  7386 ;;                  4   43[COMRAM] unsigned char 
  7387 ;; Registers used:
  7388 ;;		wreg, status,2, status,0
  7389 ;; Tracked objects:
  7390 ;;		On entry : 0/0
  7391 ;;		On exit  : 0/0
  7392 ;;		Unchanged: 0/0
  7393 ;; Data sizes:     COMRAM   BANK0   BANK1   BANK2   BANK3   BANK4   BANK5   BANK6   BANK7   BANK8   BANK9  BANK10  BANK1
      +1  BANK12  BANK13  BANK14  BANK15
  7394 ;;      Params:         4       0       0       0       0       0       0       0       0       0       0       0       
      +0       0       0       0       0
  7395 ;;      Locals:         6       0       0       0       0       0       0       0       0       0       0       0       
      +0       0       0       0       0
  7396 ;;      Temps:          4       0       0       0       0       0       0       0       0       0       0       0       
      +0       0       0       0       0
  7397 ;;      Totals:        14       0       0       0       0       0       0       0       0       0       0       0       
      +0       0       0       0       0
  7398 ;;Total ram usage:       14 bytes
  7399 ;; Hardware stack levels used:    1
  7400 ;; Hardware stack levels required when called:    3
  7401 ;; This function calls:
  7402 ;;		Nothing
  7403 ;; This function is called by:
  7404 ;;		_calculateTmr
  7405 ;;		_powf
  7406 ;; This function uses a non-reentrant model
  7407 ;;
  7408                           
  7409                           	psect	text14
  7410  004E2A                     __ptext14:
  7411                           	opt callstack 0
  7412  004E2A                     ___xxtofl:
  7413                           	opt callstack 24
  7414                           
  7415                           ;incstack = 0
  7416                           ;___xxtofl@sign stored from wreg
  7417  004E2A  6E34               	movwf	___xxtofl@sign^0,c
  7418  004E2C  5034               	movf	___xxtofl@sign^0,w,c
  7419  004E2E  B4D8               	btfsc	status,2,c
  7420  004E30  EF1C  F027         	goto	u3071
  7421  004E34  EF1E  F027         	goto	u3070
  7422  004E38                     u3071:
  7423  004E38  EF40  F027         	goto	l968
  7424  004E3C                     u3070:
  7425  004E3C  BE2F               	btfsc	(___xxtofl@val+3)^0,7,c
  7426  004E3E  EF25  F027         	goto	u3080
  7427  004E42  EF23  F027         	goto	u3081
  7428  004E46                     u3081:
  7429  004E46  EF40  F027         	goto	l968
  7430  004E4A                     u3080:
  7431  004E4A  C02C  F030         	movff	___xxtofl@val,??___xxtofl
  7432  004E4E  C02D  F031         	movff	___xxtofl@val+1,??___xxtofl+1
  7433  004E52  C02E  F032         	movff	___xxtofl@val+2,??___xxtofl+2
  7434  004E56  C02F  F033         	movff	___xxtofl@val+3,??___xxtofl+3
  7435  004E5A  1E30               	comf	??___xxtofl^0,f,c
  7436  004E5C  1E31               	comf	(??___xxtofl+1)^0,f,c
  7437  004E5E  1E32               	comf	(??___xxtofl+2)^0,f,c
  7438  004E60  1E33               	comf	(??___xxtofl+3)^0,f,c
  7439  004E62  2A30               	incf	??___xxtofl^0,f,c
  7440  004E64  0E00               	movlw	0
  7441  004E66  2231               	addwfc	(??___xxtofl+1)^0,f,c
  7442  004E68  2232               	addwfc	(??___xxtofl+2)^0,f,c
  7443  004E6A  2233               	addwfc	(??___xxtofl+3)^0,f,c
  7444  004E6C  C030  F036         	movff	??___xxtofl,___xxtofl@arg
  7445  004E70  C031  F037         	movff	??___xxtofl+1,___xxtofl@arg+1
  7446  004E74  C032  F038         	movff	??___xxtofl+2,___xxtofl@arg+2
  7447  004E78  C033  F039         	movff	??___xxtofl+3,___xxtofl@arg+3
  7448  004E7C  EF48  F027         	goto	l3169
  7449  004E80                     l968:
  7450  004E80  C02C  F036         	movff	___xxtofl@val,___xxtofl@arg
  7451  004E84  C02D  F037         	movff	___xxtofl@val+1,___xxtofl@arg+1
  7452  004E88  C02E  F038         	movff	___xxtofl@val+2,___xxtofl@arg+2
  7453  004E8C  C02F  F039         	movff	___xxtofl@val+3,___xxtofl@arg+3
  7454  004E90                     l3169:
  7455  004E90  502C               	movf	___xxtofl@val^0,w,c
  7456  004E92  102D               	iorwf	(___xxtofl@val+1)^0,w,c
  7457  004E94  102E               	iorwf	(___xxtofl@val+2)^0,w,c
  7458  004E96  102F               	iorwf	(___xxtofl@val+3)^0,w,c
  7459  004E98  A4D8               	btfss	status,2,c
  7460  004E9A  EF51  F027         	goto	u3091
  7461  004E9E  EF53  F027         	goto	u3090
  7462  004EA2                     u3091:
  7463  004EA2  EF5D  F027         	goto	l3175
  7464  004EA6                     u3090:
  7465  004EA6  0E00               	movlw	0
  7466  004EA8  6E2C               	movwf	?___xxtofl^0,c
  7467  004EAA  0E00               	movlw	0
  7468  004EAC  6E2D               	movwf	(?___xxtofl+1)^0,c
  7469  004EAE  0E00               	movlw	0
  7470  004EB0  6E2E               	movwf	(?___xxtofl+2)^0,c
  7471  004EB2  0E00               	movlw	0
  7472  004EB4  6E2F               	movwf	(?___xxtofl+3)^0,c
  7473  004EB6  EFEE  F027         	goto	l971
  7474  004EBA                     l3175:
  7475  004EBA  0E96               	movlw	150
  7476  004EBC  6E35               	movwf	___xxtofl@exp^0,c
  7477  004EBE  EF67  F027         	goto	l3179
  7478  004EC2                     l3177:
  7479  004EC2  2A35               	incf	___xxtofl@exp^0,f,c
  7480  004EC4  90D8               	bcf	status,0,c
  7481  004EC6  3239               	rrcf	(___xxtofl@arg+3)^0,f,c
  7482  004EC8  3238               	rrcf	(___xxtofl@arg+2)^0,f,c
  7483  004ECA  3237               	rrcf	(___xxtofl@arg+1)^0,f,c
  7484  004ECC  3236               	rrcf	___xxtofl@arg^0,f,c
  7485  004ECE                     l3179:
  7486  004ECE  0E00               	movlw	0
  7487  004ED0  1436               	andwf	___xxtofl@arg^0,w,c
  7488  004ED2  6E30               	movwf	??___xxtofl^0,c
  7489  004ED4  0E00               	movlw	0
  7490  004ED6  1437               	andwf	(___xxtofl@arg+1)^0,w,c
  7491  004ED8  6E31               	movwf	(??___xxtofl+1)^0,c
  7492  004EDA  0E00               	movlw	0
  7493  004EDC  1438               	andwf	(___xxtofl@arg+2)^0,w,c
  7494  004EDE  6E32               	movwf	(??___xxtofl+2)^0,c
  7495  004EE0  0EFE               	movlw	254
  7496  004EE2  1439               	andwf	(___xxtofl@arg+3)^0,w,c
  7497  004EE4  6E33               	movwf	(??___xxtofl+3)^0,c
  7498  004EE6  5030               	movf	??___xxtofl^0,w,c
  7499  004EE8  1031               	iorwf	(??___xxtofl+1)^0,w,c
  7500  004EEA  1032               	iorwf	(??___xxtofl+2)^0,w,c
  7501  004EEC  1033               	iorwf	(??___xxtofl+3)^0,w,c
  7502  004EEE  A4D8               	btfss	status,2,c
  7503  004EF0  EF7C  F027         	goto	u3101
  7504  004EF4  EF7E  F027         	goto	u3100
  7505  004EF8                     u3101:
  7506  004EF8  EF61  F027         	goto	l3177
  7507  004EFC                     u3100:
  7508  004EFC  EF8C  F027         	goto	l975
  7509  004F00                     l3181:
  7510  004F00  2A35               	incf	___xxtofl@exp^0,f,c
  7511  004F02  0E01               	movlw	1
  7512  004F04  2636               	addwf	___xxtofl@arg^0,f,c
  7513  004F06  0E00               	movlw	0
  7514  004F08  2237               	addwfc	(___xxtofl@arg+1)^0,f,c
  7515  004F0A  2238               	addwfc	(___xxtofl@arg+2)^0,f,c
  7516  004F0C  2239               	addwfc	(___xxtofl@arg+3)^0,f,c
  7517  004F0E  90D8               	bcf	status,0,c
  7518  004F10  3239               	rrcf	(___xxtofl@arg+3)^0,f,c
  7519  004F12  3238               	rrcf	(___xxtofl@arg+2)^0,f,c
  7520  004F14  3237               	rrcf	(___xxtofl@arg+1)^0,f,c
  7521  004F16  3236               	rrcf	___xxtofl@arg^0,f,c
  7522  004F18                     l975:
  7523  004F18  0E00               	movlw	0
  7524  004F1A  1436               	andwf	___xxtofl@arg^0,w,c
  7525  004F1C  6E30               	movwf	??___xxtofl^0,c
  7526  004F1E  0E00               	movlw	0
  7527  004F20  1437               	andwf	(___xxtofl@arg+1)^0,w,c
  7528  004F22  6E31               	movwf	(??___xxtofl+1)^0,c
  7529  004F24  0E00               	movlw	0
  7530  004F26  1438               	andwf	(___xxtofl@arg+2)^0,w,c
  7531  004F28  6E32               	movwf	(??___xxtofl+2)^0,c
  7532  004F2A  0EFF               	movlw	255
  7533  004F2C  1439               	andwf	(___xxtofl@arg+3)^0,w,c
  7534  004F2E  6E33               	movwf	(??___xxtofl+3)^0,c
  7535  004F30  5030               	movf	??___xxtofl^0,w,c
  7536  004F32  1031               	iorwf	(??___xxtofl+1)^0,w,c
  7537  004F34  1032               	iorwf	(??___xxtofl+2)^0,w,c
  7538  004F36  1033               	iorwf	(??___xxtofl+3)^0,w,c
  7539  004F38  A4D8               	btfss	status,2,c
  7540  004F3A  EFA1  F027         	goto	u3111
  7541  004F3E  EFA3  F027         	goto	u3110
  7542  004F42                     u3111:
  7543  004F42  EF80  F027         	goto	l3181
  7544  004F46                     u3110:
  7545  004F46  EFAB  F027         	goto	l3189
  7546  004F4A                     l3187:
  7547  004F4A  0635               	decf	___xxtofl@exp^0,f,c
  7548  004F4C  90D8               	bcf	status,0,c
  7549  004F4E  3636               	rlcf	___xxtofl@arg^0,f,c
  7550  004F50  3637               	rlcf	(___xxtofl@arg+1)^0,f,c
  7551  004F52  3638               	rlcf	(___xxtofl@arg+2)^0,f,c
  7552  004F54  3639               	rlcf	(___xxtofl@arg+3)^0,f,c
  7553  004F56                     l3189:
  7554  004F56  BE38               	btfsc	(___xxtofl@arg+2)^0,7,c
  7555  004F58  EFB0  F027         	goto	u3121
  7556  004F5C  EFB2  F027         	goto	u3120
  7557  004F60                     u3121:
  7558  004F60  EFBA  F027         	goto	l982
  7559  004F64                     u3120:
  7560  004F64  0E02               	movlw	2
  7561  004F66  6035               	cpfslt	___xxtofl@exp^0,c
  7562  004F68  EFB8  F027         	goto	u3131
  7563  004F6C  EFBA  F027         	goto	u3130
  7564  004F70                     u3131:
  7565  004F70  EFA5  F027         	goto	l3187
  7566  004F74                     u3130:
  7567  004F74                     l982:
  7568  004F74  B035               	btfsc	___xxtofl@exp^0,0,c
  7569  004F76  EFBF  F027         	goto	u3141
  7570  004F7A  EFC1  F027         	goto	u3140
  7571  004F7E                     u3141:
  7572  004F7E  EFC2  F027         	goto	l3195
  7573  004F82                     u3140:
  7574  004F82  9E38               	bcf	(___xxtofl@arg+2)^0,7,c
  7575  004F84                     l3195:
  7576  004F84  90D8               	bcf	status,0,c
  7577  004F86  3235               	rrcf	___xxtofl@exp^0,f,c
  7578  004F88  C035  F030         	movff	___xxtofl@exp,??___xxtofl
  7579  004F8C  6A31               	clrf	(??___xxtofl+1)^0,c
  7580  004F8E  6A32               	clrf	(??___xxtofl+2)^0,c
  7581  004F90  6A33               	clrf	(??___xxtofl+3)^0,c
  7582  004F92  C030  F033         	movff	??___xxtofl,??___xxtofl+3
  7583  004F96  6A32               	clrf	(??___xxtofl+2)^0,c
  7584  004F98  6A31               	clrf	(??___xxtofl+1)^0,c
  7585  004F9A  6A30               	clrf	??___xxtofl^0,c
  7586  004F9C  5030               	movf	??___xxtofl^0,w,c
  7587  004F9E  1236               	iorwf	___xxtofl@arg^0,f,c
  7588  004FA0  5031               	movf	(??___xxtofl+1)^0,w,c
  7589  004FA2  1237               	iorwf	(___xxtofl@arg+1)^0,f,c
  7590  004FA4  5032               	movf	(??___xxtofl+2)^0,w,c
  7591  004FA6  1238               	iorwf	(___xxtofl@arg+2)^0,f,c
  7592  004FA8  5033               	movf	(??___xxtofl+3)^0,w,c
  7593  004FAA  1239               	iorwf	(___xxtofl@arg+3)^0,f,c
  7594  004FAC  5034               	movf	___xxtofl@sign^0,w,c
  7595  004FAE  B4D8               	btfsc	status,2,c
  7596  004FB0  EFDC  F027         	goto	u3151
  7597  004FB4  EFDE  F027         	goto	u3150
  7598  004FB8                     u3151:
  7599  004FB8  EFE6  F027         	goto	l3205
  7600  004FBC                     u3150:
  7601  004FBC  BE2F               	btfsc	(___xxtofl@val+3)^0,7,c
  7602  004FBE  EFE5  F027         	goto	u3160
  7603  004FC2  EFE3  F027         	goto	u3161
  7604  004FC6                     u3161:
  7605  004FC6  EFE6  F027         	goto	l3205
  7606  004FCA                     u3160:
  7607  004FCA  8E39               	bsf	(___xxtofl@arg+3)^0,7,c
  7608  004FCC                     l3205:
  7609  004FCC  C036  F02C         	movff	___xxtofl@arg,?___xxtofl
  7610  004FD0  C037  F02D         	movff	___xxtofl@arg+1,?___xxtofl+1
  7611  004FD4  C038  F02E         	movff	___xxtofl@arg+2,?___xxtofl+2
  7612  004FD8  C039  F02F         	movff	___xxtofl@arg+3,?___xxtofl+3
  7613  004FDC                     l971:
  7614  004FDC  0012               	return		;funcret
  7615  004FDE                     __end_of___xxtofl:
  7616                           	opt callstack 0
  7617                           
  7618 ;; *************** function ___flsub *****************
  7619 ;; Defined at:
  7620 ;;		line 245 in file "/opt/microchip/xc8/v2.10/pic/sources/c99/common/sprcadd.c"
  7621 ;; Parameters:    Size  Location     Type
  7622 ;;  b               4   57[COMRAM] unsigned char 
  7623 ;;  a               4   61[COMRAM] unsigned char 
  7624 ;; Auto vars:     Size  Location     Type
  7625 ;;		None
  7626 ;; Return value:  Size  Location     Type
  7627 ;;                  4   57[COMRAM] unsigned char 
  7628 ;; Registers used:
  7629 ;;		wreg, status,2, status,0, cstack
  7630 ;; Tracked objects:
  7631 ;;		On entry : 0/0
  7632 ;;		On exit  : 0/0
  7633 ;;		Unchanged: 0/0
  7634 ;; Data sizes:     COMRAM   BANK0   BANK1   BANK2   BANK3   BANK4   BANK5   BANK6   BANK7   BANK8   BANK9  BANK10  BANK1
      +1  BANK12  BANK13  BANK14  BANK15
  7635 ;;      Params:         8       0       0       0       0       0       0       0       0       0       0       0       
      +0       0       0       0       0
  7636 ;;      Locals:         0       0       0       0       0       0       0       0       0       0       0       0       
      +0       0       0       0       0
  7637 ;;      Temps:          0       0       0       0       0       0       0       0       0       0       0       0       
      +0       0       0       0       0
  7638 ;;      Totals:         8       0       0       0       0       0       0       0       0       0       0       0       
      +0       0       0       0       0
  7639 ;;Total ram usage:        8 bytes
  7640 ;; Hardware stack levels used:    1
  7641 ;; Hardware stack levels required when called:    4
  7642 ;; This function calls:
  7643 ;;		___fladd
  7644 ;; This function is called by:
  7645 ;;		_calculateTmr
  7646 ;;		_powf
  7647 ;; This function uses a non-reentrant model
  7648 ;;
  7649                           
  7650                           	psect	text15
  7651  005734                     __ptext15:
  7652                           	opt callstack 0
  7653  005734                     ___flsub:
  7654                           	opt callstack 23
  7655  005734  0E00               	movlw	0
  7656  005736  1A3E               	xorwf	___flsub@a^0,f,c
  7657  005738  0E00               	movlw	0
  7658  00573A  1A3F               	xorwf	(___flsub@a+1)^0,f,c
  7659  00573C  0E00               	movlw	0
  7660  00573E  1A40               	xorwf	(___flsub@a+2)^0,f,c
  7661  005740  0E80               	movlw	128
  7662  005742  1A41               	xorwf	(___flsub@a+3)^0,f,c
  7663  005744  C03A  F003         	movff	___flsub@b,___fladd@b
  7664  005748  C03B  F004         	movff	___flsub@b+1,___fladd@b+1
  7665  00574C  C03C  F005         	movff	___flsub@b+2,___fladd@b+2
  7666  005750  C03D  F006         	movff	___flsub@b+3,___fladd@b+3
  7667  005754  C03E  F007         	movff	___flsub@a,___fladd@a
  7668  005758  C03F  F008         	movff	___flsub@a+1,___fladd@a+1
  7669  00575C  C040  F009         	movff	___flsub@a+2,___fladd@a+2
  7670  005760  C041  F00A         	movff	___flsub@a+3,___fladd@a+3
  7671  005764  ECB9  F01F         	call	___fladd	;wreg free
  7672  005768  C003  F03A         	movff	?___fladd,?___flsub
  7673  00576C  C004  F03B         	movff	?___fladd+1,?___flsub+1
  7674  005770  C005  F03C         	movff	?___fladd+2,?___flsub+2
  7675  005774  C006  F03D         	movff	?___fladd+3,?___flsub+3
  7676  005778  0012               	return		;funcret
  7677  00577A                     __end_of___flsub:
  7678                           	opt callstack 0
  7679                           
  7680 ;; *************** function ___fladd *****************
  7681 ;; Defined at:
  7682 ;;		line 10 in file "/opt/microchip/xc8/v2.10/pic/sources/c99/common/sprcadd.c"
  7683 ;; Parameters:    Size  Location     Type
  7684 ;;  b               4    2[COMRAM] unsigned char 
  7685 ;;  a               4    6[COMRAM] unsigned char 
  7686 ;; Auto vars:     Size  Location     Type
  7687 ;;  grs             1   17[COMRAM] unsigned char 
  7688 ;;  bexp            1   16[COMRAM] unsigned char 
  7689 ;;  aexp            1   15[COMRAM] unsigned char 
  7690 ;;  signs           1   14[COMRAM] unsigned char 
  7691 ;; Return value:  Size  Location     Type
  7692 ;;                  4    2[COMRAM] unsigned char 
  7693 ;; Registers used:
  7694 ;;		wreg, status,2, status,0
  7695 ;; Tracked objects:
  7696 ;;		On entry : 0/0
  7697 ;;		On exit  : 0/0
  7698 ;;		Unchanged: 0/0
  7699 ;; Data sizes:     COMRAM   BANK0   BANK1   BANK2   BANK3   BANK4   BANK5   BANK6   BANK7   BANK8   BANK9  BANK10  BANK1
      +1  BANK12  BANK13  BANK14  BANK15
  7700 ;;      Params:         8       0       0       0       0       0       0       0       0       0       0       0       
      +0       0       0       0       0
  7701 ;;      Locals:         4       0       0       0       0       0       0       0       0       0       0       0       
      +0       0       0       0       0
  7702 ;;      Temps:          4       0       0       0       0       0       0       0       0       0       0       0       
      +0       0       0       0       0
  7703 ;;      Totals:        16       0       0       0       0       0       0       0       0       0       0       0       
      +0       0       0       0       0
  7704 ;;Total ram usage:       16 bytes
  7705 ;; Hardware stack levels used:    1
  7706 ;; Hardware stack levels required when called:    3
  7707 ;; This function calls:
  7708 ;;		Nothing
  7709 ;; This function is called by:
  7710 ;;		___flsub
  7711 ;;		_powf
  7712 ;;		_sqrtf
  7713 ;; This function uses a non-reentrant model
  7714 ;;
  7715                           
  7716                           	psect	text16
  7717  003F72                     __ptext16:
  7718                           	opt callstack 0
  7719  003F72                     ___fladd:
  7720                           	opt callstack 23
  7721  003F72  5006               	movf	(___fladd@b+3)^0,w,c
  7722  003F74  0B80               	andlw	128
  7723  003F76  6E0F               	movwf	___fladd@signs^0,c
  7724  003F78  5006               	movf	(___fladd@b+3)^0,w,c
  7725  003F7A  2406               	addwf	(___fladd@b+3)^0,w,c
  7726  003F7C  6E11               	movwf	___fladd@bexp^0,c
  7727  003F7E  AE05               	btfss	(___fladd@b+2)^0,7,c
  7728  003F80  EFC4  F01F         	goto	u2201
  7729  003F84  EFC6  F01F         	goto	u2200
  7730  003F88                     u2201:
  7731  003F88  EFC7  F01F         	goto	l2657
  7732  003F8C                     u2200:
  7733  003F8C  8011               	bsf	___fladd@bexp^0,0,c
  7734  003F8E                     l2657:
  7735  003F8E  5011               	movf	___fladd@bexp^0,w,c
  7736  003F90  B4D8               	btfsc	status,2,c
  7737  003F92  EFCD  F01F         	goto	u2211
  7738  003F96  EFCF  F01F         	goto	u2210
  7739  003F9A                     u2211:
  7740  003F9A  EFE4  F01F         	goto	l2667
  7741  003F9E                     u2210:
  7742  003F9E  2811               	incf	___fladd@bexp^0,w,c
  7743  003FA0  A4D8               	btfss	status,2,c
  7744  003FA2  EFD5  F01F         	goto	u2221
  7745  003FA6  EFD7  F01F         	goto	u2220
  7746  003FAA                     u2221:
  7747  003FAA  EFDF  F01F         	goto	l2663
  7748  003FAE                     u2220:
  7749  003FAE  0E00               	movlw	0
  7750  003FB0  6E03               	movwf	___fladd@b^0,c
  7751  003FB2  0E00               	movlw	0
  7752  003FB4  6E04               	movwf	(___fladd@b+1)^0,c
  7753  003FB6  0E00               	movlw	0
  7754  003FB8  6E05               	movwf	(___fladd@b+2)^0,c
  7755  003FBA  0E00               	movlw	0
  7756  003FBC  6E06               	movwf	(___fladd@b+3)^0,c
  7757  003FBE                     l2663:
  7758  003FBE  8E05               	bsf	(___fladd@b+2)^0,7,c
  7759  003FC0  0E00               	movlw	0
  7760  003FC2  6E06               	movwf	(___fladd@b+3)^0,c
  7761  003FC4  EFEC  F01F         	goto	l2669
  7762  003FC8                     l2667:
  7763  003FC8  0E00               	movlw	0
  7764  003FCA  6E03               	movwf	___fladd@b^0,c
  7765  003FCC  0E00               	movlw	0
  7766  003FCE  6E04               	movwf	(___fladd@b+1)^0,c
  7767  003FD0  0E00               	movlw	0
  7768  003FD2  6E05               	movwf	(___fladd@b+2)^0,c
  7769  003FD4  0E00               	movlw	0
  7770  003FD6  6E06               	movwf	(___fladd@b+3)^0,c
  7771  003FD8                     l2669:
  7772  003FD8  500A               	movf	(___fladd@a+3)^0,w,c
  7773  003FDA  0B80               	andlw	128
  7774  003FDC  6E10               	movwf	___fladd@aexp^0,c
  7775  003FDE  500F               	movf	___fladd@signs^0,w,c
  7776  003FE0  1810               	xorwf	___fladd@aexp^0,w,c
  7777  003FE2  B4D8               	btfsc	status,2,c
  7778  003FE4  EFF6  F01F         	goto	u2231
  7779  003FE8  EFF8  F01F         	goto	u2230
  7780  003FEC                     u2231:
  7781  003FEC  EFF9  F01F         	goto	l2675
  7782  003FF0                     u2230:
  7783  003FF0  8C0F               	bsf	___fladd@signs^0,6,c
  7784  003FF2                     l2675:
  7785  003FF2  500A               	movf	(___fladd@a+3)^0,w,c
  7786  003FF4  240A               	addwf	(___fladd@a+3)^0,w,c
  7787  003FF6  6E10               	movwf	___fladd@aexp^0,c
  7788  003FF8  AE09               	btfss	(___fladd@a+2)^0,7,c
  7789  003FFA  EF01  F020         	goto	u2241
  7790  003FFE  EF03  F020         	goto	u2240
  7791  004002                     u2241:
  7792  004002  EF04  F020         	goto	l2681
  7793  004006                     u2240:
  7794  004006  8010               	bsf	___fladd@aexp^0,0,c
  7795  004008                     l2681:
  7796  004008  5010               	movf	___fladd@aexp^0,w,c
  7797  00400A  B4D8               	btfsc	status,2,c
  7798  00400C  EF0A  F020         	goto	u2251
  7799  004010  EF0C  F020         	goto	u2250
  7800  004014                     u2251:
  7801  004014  EF21  F020         	goto	l2691
  7802  004018                     u2250:
  7803  004018  2810               	incf	___fladd@aexp^0,w,c
  7804  00401A  A4D8               	btfss	status,2,c
  7805  00401C  EF12  F020         	goto	u2261
  7806  004020  EF14  F020         	goto	u2260
  7807  004024                     u2261:
  7808  004024  EF1C  F020         	goto	l2687
  7809  004028                     u2260:
  7810  004028  0E00               	movlw	0
  7811  00402A  6E07               	movwf	___fladd@a^0,c
  7812  00402C  0E00               	movlw	0
  7813  00402E  6E08               	movwf	(___fladd@a+1)^0,c
  7814  004030  0E00               	movlw	0
  7815  004032  6E09               	movwf	(___fladd@a+2)^0,c
  7816  004034  0E00               	movlw	0
  7817  004036  6E0A               	movwf	(___fladd@a+3)^0,c
  7818  004038                     l2687:
  7819  004038  8E09               	bsf	(___fladd@a+2)^0,7,c
  7820  00403A  0E00               	movlw	0
  7821  00403C  6E0A               	movwf	(___fladd@a+3)^0,c
  7822  00403E  EF29  F020         	goto	l2693
  7823  004042                     l2691:
  7824  004042  0E00               	movlw	0
  7825  004044  6E07               	movwf	___fladd@a^0,c
  7826  004046  0E00               	movlw	0
  7827  004048  6E08               	movwf	(___fladd@a+1)^0,c
  7828  00404A  0E00               	movlw	0
  7829  00404C  6E09               	movwf	(___fladd@a+2)^0,c
  7830  00404E  0E00               	movlw	0
  7831  004050  6E0A               	movwf	(___fladd@a+3)^0,c
  7832  004052                     l2693:
  7833  004052  5011               	movf	___fladd@bexp^0,w,c
  7834  004054  5C10               	subwf	___fladd@aexp^0,w,c
  7835  004056  B0D8               	btfsc	status,0,c
  7836  004058  EF30  F020         	goto	u2271
  7837  00405C  EF32  F020         	goto	u2270
  7838  004060                     u2271:
  7839  004060  EF59  F020         	goto	l2729
  7840  004064                     u2270:
  7841  004064  AC0F               	btfss	___fladd@signs^0,6,c
  7842  004066  EF37  F020         	goto	u2281
  7843  00406A  EF39  F020         	goto	u2280
  7844  00406E                     u2281:
  7845  00406E  EF3B  F020         	goto	l2699
  7846  004072                     u2280:
  7847  004072  0E80               	movlw	128
  7848  004074  1A0F               	xorwf	___fladd@signs^0,f,c
  7849  004076                     l2699:
  7850  004076  C011  F012         	movff	___fladd@bexp,___fladd@grs
  7851  00407A  C010  F011         	movff	___fladd@aexp,___fladd@bexp
  7852  00407E  C012  F010         	movff	___fladd@grs,___fladd@aexp
  7853  004082  C003  F012         	movff	___fladd@b,___fladd@grs
  7854  004086  C007  F003         	movff	___fladd@a,___fladd@b
  7855  00408A  C012  F007         	movff	___fladd@grs,___fladd@a
  7856  00408E  C004  F012         	movff	___fladd@b+1,___fladd@grs
  7857  004092  C008  F004         	movff	___fladd@a+1,___fladd@b+1
  7858  004096  C012  F008         	movff	___fladd@grs,___fladd@a+1
  7859  00409A  C005  F012         	movff	___fladd@b+2,___fladd@grs
  7860  00409E  C009  F005         	movff	___fladd@a+2,___fladd@b+2
  7861  0040A2  C012  F009         	movff	___fladd@grs,___fladd@a+2
  7862  0040A6  C006  F012         	movff	___fladd@b+3,___fladd@grs
  7863  0040AA  C00A  F006         	movff	___fladd@a+3,___fladd@b+3
  7864  0040AE  C012  F00A         	movff	___fladd@grs,___fladd@a+3
  7865  0040B2                     l2729:
  7866  0040B2  0E00               	movlw	0
  7867  0040B4  6E12               	movwf	___fladd@grs^0,c
  7868  0040B6  5011               	movf	___fladd@bexp^0,w,c
  7869  0040B8  C010  F00B         	movff	___fladd@aexp,??___fladd
  7870  0040BC  6A0C               	clrf	(??___fladd+1)^0,c
  7871  0040BE  5E0B               	subwf	??___fladd^0,f,c
  7872  0040C0  0E00               	movlw	0
  7873  0040C2  5A0C               	subwfb	(??___fladd+1)^0,f,c
  7874  0040C4  BE0C               	btfsc	(??___fladd+1)^0,7,c
  7875  0040C6  EF6E  F020         	goto	u2291
  7876  0040CA  500C               	movf	(??___fladd+1)^0,w,c
  7877  0040CC  E109               	bnz	u2290
  7878  0040CE  0E1A               	movlw	26
  7879  0040D0  5C0B               	subwf	??___fladd^0,w,c
  7880  0040D2  A0D8               	btfss	status,0,c
  7881  0040D4  EF6E  F020         	goto	u2291
  7882  0040D8  EF70  F020         	goto	u2290
  7883  0040DC                     u2291:
  7884  0040DC  EFA7  F020         	goto	l842
  7885  0040E0                     u2290:
  7886  0040E0  5003               	movf	___fladd@b^0,w,c
  7887  0040E2  1004               	iorwf	(___fladd@b+1)^0,w,c
  7888  0040E4  1005               	iorwf	(___fladd@b+2)^0,w,c
  7889  0040E6  1006               	iorwf	(___fladd@b+3)^0,w,c
  7890  0040E8  A4D8               	btfss	status,2,c
  7891  0040EA  EF79  F020         	goto	u2301
  7892  0040EE  EF7C  F020         	goto	u2300
  7893  0040F2                     u2301:
  7894  0040F2  0E01               	movlw	1
  7895  0040F4  EF7D  F020         	goto	u2310
  7896  0040F8                     u2300:
  7897  0040F8  0E00               	movlw	0
  7898  0040FA                     u2310:
  7899  0040FA  6E12               	movwf	___fladd@grs^0,c
  7900  0040FC  0E00               	movlw	0
  7901  0040FE  6E03               	movwf	___fladd@b^0,c
  7902  004100  0E00               	movlw	0
  7903  004102  6E04               	movwf	(___fladd@b+1)^0,c
  7904  004104  0E00               	movlw	0
  7905  004106  6E05               	movwf	(___fladd@b+2)^0,c
  7906  004108  0E00               	movlw	0
  7907  00410A  6E06               	movwf	(___fladd@b+3)^0,c
  7908  00410C  C010  F011         	movff	___fladd@aexp,___fladd@bexp
  7909  004110  EFB0  F020         	goto	l841
  7910  004114                     l843:
  7911  004114  A012               	btfss	___fladd@grs^0,0,c
  7912  004116  EF8F  F020         	goto	u2321
  7913  00411A  EF91  F020         	goto	u2320
  7914  00411E                     u2321:
  7915  00411E  EF97  F020         	goto	l2741
  7916  004122                     u2320:
  7917  004122  90D8               	bcf	status,0,c
  7918  004124  3012               	rrcf	___fladd@grs^0,w,c
  7919  004126  0901               	iorlw	1
  7920  004128  6E12               	movwf	___fladd@grs^0,c
  7921  00412A  EF99  F020         	goto	l2743
  7922  00412E                     l2741:
  7923  00412E  90D8               	bcf	status,0,c
  7924  004130  3212               	rrcf	___fladd@grs^0,f,c
  7925  004132                     l2743:
  7926  004132  A003               	btfss	___fladd@b^0,0,c
  7927  004134  EF9E  F020         	goto	u2331
  7928  004138  EFA0  F020         	goto	u2330
  7929  00413C                     u2331:
  7930  00413C  EFA1  F020         	goto	l2747
  7931  004140                     u2330:
  7932  004140  8E12               	bsf	___fladd@grs^0,7,c
  7933  004142                     l2747:
  7934  004142  3406               	rlcf	(___fladd@b+3)^0,w,c
  7935  004144  3206               	rrcf	(___fladd@b+3)^0,f,c
  7936  004146  3205               	rrcf	(___fladd@b+2)^0,f,c
  7937  004148  3204               	rrcf	(___fladd@b+1)^0,f,c
  7938  00414A  3203               	rrcf	___fladd@b^0,f,c
  7939  00414C  2A11               	incf	___fladd@bexp^0,f,c
  7940  00414E                     l842:
  7941  00414E  5010               	movf	___fladd@aexp^0,w,c
  7942  004150  5C11               	subwf	___fladd@bexp^0,w,c
  7943  004152  A0D8               	btfss	status,0,c
  7944  004154  EFAE  F020         	goto	u2341
  7945  004158  EFB0  F020         	goto	u2340
  7946  00415C                     u2341:
  7947  00415C  EF8A  F020         	goto	l843
  7948  004160                     u2340:
  7949  004160                     l841:
  7950  004160  BC0F               	btfsc	___fladd@signs^0,6,c
  7951  004162  EFB5  F020         	goto	u2351
  7952  004166  EFB7  F020         	goto	u2350
  7953  00416A                     u2351:
  7954  00416A  EFF7  F020         	goto	l2775
  7955  00416E                     u2350:
  7956  00416E  5011               	movf	___fladd@bexp^0,w,c
  7957  004170  A4D8               	btfss	status,2,c
  7958  004172  EFBD  F020         	goto	u2361
  7959  004176  EFBF  F020         	goto	u2360
  7960  00417A                     u2361:
  7961  00417A  EFC9  F020         	goto	l2757
  7962  00417E                     u2360:
  7963  00417E  0E00               	movlw	0
  7964  004180  6E03               	movwf	?___fladd^0,c
  7965  004182  0E00               	movlw	0
  7966  004184  6E04               	movwf	(?___fladd+1)^0,c
  7967  004186  0E00               	movlw	0
  7968  004188  6E05               	movwf	(?___fladd+2)^0,c
  7969  00418A  0E00               	movlw	0
  7970  00418C  6E06               	movwf	(?___fladd+3)^0,c
  7971  00418E  EF18  F022         	goto	l850
  7972  004192                     l2757:
  7973  004192  5007               	movf	___fladd@a^0,w,c
  7974  004194  2603               	addwf	___fladd@b^0,f,c
  7975  004196  5008               	movf	(___fladd@a+1)^0,w,c
  7976  004198  2204               	addwfc	(___fladd@b+1)^0,f,c
  7977  00419A  5009               	movf	(___fladd@a+2)^0,w,c
  7978  00419C  2205               	addwfc	(___fladd@b+2)^0,f,c
  7979  00419E  500A               	movf	(___fladd@a+3)^0,w,c
  7980  0041A0  2206               	addwfc	(___fladd@b+3)^0,f,c
  7981  0041A2  A006               	btfss	(___fladd@b+3)^0,0,c
  7982  0041A4  EFD6  F020         	goto	u2371
  7983  0041A8  EFD8  F020         	goto	u2370
  7984  0041AC                     u2371:
  7985  0041AC  EF84  F021         	goto	l2811
  7986  0041B0                     u2370:
  7987  0041B0  A012               	btfss	___fladd@grs^0,0,c
  7988  0041B2  EFDD  F020         	goto	u2381
  7989  0041B6  EFDF  F020         	goto	u2380
  7990  0041BA                     u2381:
  7991  0041BA  EFE5  F020         	goto	l2765
  7992  0041BE                     u2380:
  7993  0041BE  90D8               	bcf	status,0,c
  7994  0041C0  3012               	rrcf	___fladd@grs^0,w,c
  7995  0041C2  0901               	iorlw	1
  7996  0041C4  6E12               	movwf	___fladd@grs^0,c
  7997  0041C6  EFE7  F020         	goto	l2767
  7998  0041CA                     l2765:
  7999  0041CA  90D8               	bcf	status,0,c
  8000  0041CC  3212               	rrcf	___fladd@grs^0,f,c
  8001  0041CE                     l2767:
  8002  0041CE  A003               	btfss	___fladd@b^0,0,c
  8003  0041D0  EFEC  F020         	goto	u2391
  8004  0041D4  EFEE  F020         	goto	u2390
  8005  0041D8                     u2391:
  8006  0041D8  EFEF  F020         	goto	l2771
  8007  0041DC                     u2390:
  8008  0041DC  8E12               	bsf	___fladd@grs^0,7,c
  8009  0041DE                     l2771:
  8010  0041DE  3406               	rlcf	(___fladd@b+3)^0,w,c
  8011  0041E0  3206               	rrcf	(___fladd@b+3)^0,f,c
  8012  0041E2  3205               	rrcf	(___fladd@b+2)^0,f,c
  8013  0041E4  3204               	rrcf	(___fladd@b+1)^0,f,c
  8014  0041E6  3203               	rrcf	___fladd@b^0,f,c
  8015  0041E8  2A11               	incf	___fladd@bexp^0,f,c
  8016  0041EA  EF84  F021         	goto	l2811
  8017  0041EE                     l2775:
  8018  0041EE  5007               	movf	___fladd@a^0,w,c
  8019  0041F0  5C03               	subwf	___fladd@b^0,w,c
  8020  0041F2  5008               	movf	(___fladd@a+1)^0,w,c
  8021  0041F4  5804               	subwfb	(___fladd@b+1)^0,w,c
  8022  0041F6  5009               	movf	(___fladd@a+2)^0,w,c
  8023  0041F8  5805               	subwfb	(___fladd@b+2)^0,w,c
  8024  0041FA  5006               	movf	(___fladd@b+3)^0,w,c
  8025  0041FC  0A80               	xorlw	128
  8026  0041FE  6E0B               	movwf	??___fladd^0,c
  8027  004200  500A               	movf	(___fladd@a+3)^0,w,c
  8028  004202  0A80               	xorlw	128
  8029  004204  580B               	subwfb	??___fladd^0,w,c
  8030  004206  B0D8               	btfsc	status,0,c
  8031  004208  EF08  F021         	goto	u2401
  8032  00420C  EF0A  F021         	goto	u2400
  8033  004210                     u2401:
  8034  004210  EF35  F021         	goto	l2785
  8035  004214                     u2400:
  8036  004214  5003               	movf	___fladd@b^0,w,c
  8037  004216  5C07               	subwf	___fladd@a^0,w,c
  8038  004218  6E0B               	movwf	??___fladd^0,c
  8039  00421A  5004               	movf	(___fladd@b+1)^0,w,c
  8040  00421C  5808               	subwfb	(___fladd@a+1)^0,w,c
  8041  00421E  6E0C               	movwf	(??___fladd+1)^0,c
  8042  004220  5005               	movf	(___fladd@b+2)^0,w,c
  8043  004222  5809               	subwfb	(___fladd@a+2)^0,w,c
  8044  004224  6E0D               	movwf	(??___fladd+2)^0,c
  8045  004226  5006               	movf	(___fladd@b+3)^0,w,c
  8046  004228  580A               	subwfb	(___fladd@a+3)^0,w,c
  8047  00422A  6E0E               	movwf	(??___fladd+3)^0,c
  8048  00422C  0EFF               	movlw	255
  8049  00422E  240B               	addwf	??___fladd^0,w,c
  8050  004230  6E03               	movwf	___fladd@b^0,c
  8051  004232  0EFF               	movlw	255
  8052  004234  200C               	addwfc	(??___fladd+1)^0,w,c
  8053  004236  6E04               	movwf	(___fladd@b+1)^0,c
  8054  004238  0EFF               	movlw	255
  8055  00423A  200D               	addwfc	(??___fladd+2)^0,w,c
  8056  00423C  6E05               	movwf	(___fladd@b+2)^0,c
  8057  00423E  0EFF               	movlw	255
  8058  004240  200E               	addwfc	(??___fladd+3)^0,w,c
  8059  004242  6E06               	movwf	(___fladd@b+3)^0,c
  8060  004244  0E80               	movlw	128
  8061  004246  1A0F               	xorwf	___fladd@signs^0,f,c
  8062  004248  6C12               	negf	___fladd@grs^0,c
  8063  00424A  5012               	movf	___fladd@grs^0,w,c
  8064  00424C  A4D8               	btfss	status,2,c
  8065  00424E  EF2B  F021         	goto	u2411
  8066  004252  EF2D  F021         	goto	u2410
  8067  004256                     u2411:
  8068  004256  EF3D  F021         	goto	l858
  8069  00425A                     u2410:
  8070  00425A  0E01               	movlw	1
  8071  00425C  2603               	addwf	___fladd@b^0,f,c
  8072  00425E  0E00               	movlw	0
  8073  004260  2204               	addwfc	(___fladd@b+1)^0,f,c
  8074  004262  2205               	addwfc	(___fladd@b+2)^0,f,c
  8075  004264  2206               	addwfc	(___fladd@b+3)^0,f,c
  8076  004266  EF3D  F021         	goto	l858
  8077  00426A                     l2785:
  8078  00426A  5007               	movf	___fladd@a^0,w,c
  8079  00426C  5E03               	subwf	___fladd@b^0,f,c
  8080  00426E  5008               	movf	(___fladd@a+1)^0,w,c
  8081  004270  5A04               	subwfb	(___fladd@b+1)^0,f,c
  8082  004272  5009               	movf	(___fladd@a+2)^0,w,c
  8083  004274  5A05               	subwfb	(___fladd@b+2)^0,f,c
  8084  004276  500A               	movf	(___fladd@a+3)^0,w,c
  8085  004278  5A06               	subwfb	(___fladd@b+3)^0,f,c
  8086  00427A                     l858:
  8087  00427A  5003               	movf	___fladd@b^0,w,c
  8088  00427C  1004               	iorwf	(___fladd@b+1)^0,w,c
  8089  00427E  1005               	iorwf	(___fladd@b+2)^0,w,c
  8090  004280  1006               	iorwf	(___fladd@b+3)^0,w,c
  8091  004282  A4D8               	btfss	status,2,c
  8092  004284  EF46  F021         	goto	u2421
  8093  004288  EF48  F021         	goto	u2420
  8094  00428C                     u2421:
  8095  00428C  EF7D  F021         	goto	l2809
  8096  004290                     u2420:
  8097  004290  5012               	movf	___fladd@grs^0,w,c
  8098  004292  A4D8               	btfss	status,2,c
  8099  004294  EF4E  F021         	goto	u2431
  8100  004298  EF50  F021         	goto	u2430
  8101  00429C                     u2431:
  8102  00429C  EF7D  F021         	goto	l2809
  8103  0042A0                     u2430:
  8104  0042A0  0E00               	movlw	0
  8105  0042A2  6E03               	movwf	?___fladd^0,c
  8106  0042A4  0E00               	movlw	0
  8107  0042A6  6E04               	movwf	(?___fladd+1)^0,c
  8108  0042A8  0E00               	movlw	0
  8109  0042AA  6E05               	movwf	(?___fladd+2)^0,c
  8110  0042AC  0E00               	movlw	0
  8111  0042AE  6E06               	movwf	(?___fladd+3)^0,c
  8112  0042B0  EF18  F022         	goto	l850
  8113  0042B4                     l2793:
  8114  0042B4  90D8               	bcf	status,0,c
  8115  0042B6  3603               	rlcf	___fladd@b^0,f,c
  8116  0042B8  3604               	rlcf	(___fladd@b+1)^0,f,c
  8117  0042BA  3605               	rlcf	(___fladd@b+2)^0,f,c
  8118  0042BC  3606               	rlcf	(___fladd@b+3)^0,f,c
  8119  0042BE  AE12               	btfss	___fladd@grs^0,7,c
  8120  0042C0  EF64  F021         	goto	u2441
  8121  0042C4  EF66  F021         	goto	u2440
  8122  0042C8                     u2441:
  8123  0042C8  EF67  F021         	goto	l2799
  8124  0042CC                     u2440:
  8125  0042CC  8003               	bsf	___fladd@b^0,0,c
  8126  0042CE                     l2799:
  8127  0042CE  A012               	btfss	___fladd@grs^0,0,c
  8128  0042D0  EF6C  F021         	goto	u2451
  8129  0042D4  EF6E  F021         	goto	u2450
  8130  0042D8                     u2451:
  8131  0042D8  EF72  F021         	goto	l2803
  8132  0042DC                     u2450:
  8133  0042DC  80D8               	bsf	status,0,c
  8134  0042DE  3612               	rlcf	___fladd@grs^0,f,c
  8135  0042E0  EF74  F021         	goto	l2805
  8136  0042E4                     l2803:
  8137  0042E4  90D8               	bcf	status,0,c
  8138  0042E6  3612               	rlcf	___fladd@grs^0,f,c
  8139  0042E8                     l2805:
  8140  0042E8  5011               	movf	___fladd@bexp^0,w,c
  8141  0042EA  B4D8               	btfsc	status,2,c
  8142  0042EC  EF7A  F021         	goto	u2461
  8143  0042F0  EF7C  F021         	goto	u2460
  8144  0042F4                     u2461:
  8145  0042F4  EF7D  F021         	goto	l2809
  8146  0042F8                     u2460:
  8147  0042F8  0611               	decf	___fladd@bexp^0,f,c
  8148  0042FA                     l2809:
  8149  0042FA  AE05               	btfss	(___fladd@b+2)^0,7,c
  8150  0042FC  EF82  F021         	goto	u2471
  8151  004300  EF84  F021         	goto	u2470
  8152  004304                     u2471:
  8153  004304  EF5A  F021         	goto	l2793
  8154  004308                     u2470:
  8155  004308                     l2811:
  8156  004308  0E00               	movlw	0
  8157  00430A  6E10               	movwf	___fladd@aexp^0,c
  8158  00430C  AE12               	btfss	___fladd@grs^0,7,c
  8159  00430E  EF8B  F021         	goto	u2481
  8160  004312  EF8D  F021         	goto	u2480
  8161  004316                     u2481:
  8162  004316  EFA5  F021         	goto	l867
  8163  00431A                     u2480:
  8164  00431A  C012  F00B         	movff	___fladd@grs,??___fladd
  8165  00431E  0E7F               	movlw	127
  8166  004320  160B               	andwf	??___fladd^0,f,c
  8167  004322  B4D8               	btfsc	status,2,c
  8168  004324  EF96  F021         	goto	u2491
  8169  004328  EF98  F021         	goto	u2490
  8170  00432C                     u2491:
  8171  00432C  EF9C  F021         	goto	l868
  8172  004330                     u2490:
  8173  004330                     l2817:
  8174  004330  0E01               	movlw	1
  8175  004332  6E10               	movwf	___fladd@aexp^0,c
  8176  004334  EFA5  F021         	goto	l867
  8177  004338                     l868:
  8178  004338  A003               	btfss	___fladd@b^0,0,c
  8179  00433A  EFA1  F021         	goto	u2501
  8180  00433E  EFA3  F021         	goto	u2500
  8181  004342                     u2501:
  8182  004342  EFA5  F021         	goto	l867
  8183  004346                     u2500:
  8184  004346  EF98  F021         	goto	l2817
  8185  00434A                     l867:
  8186  00434A  5010               	movf	___fladd@aexp^0,w,c
  8187  00434C  B4D8               	btfsc	status,2,c
  8188  00434E  EFAB  F021         	goto	u2511
  8189  004352  EFAD  F021         	goto	u2510
  8190  004356                     u2511:
  8191  004356  EFD8  F021         	goto	l2829
  8192  00435A                     u2510:
  8193  00435A  0E01               	movlw	1
  8194  00435C  2603               	addwf	___fladd@b^0,f,c
  8195  00435E  0E00               	movlw	0
  8196  004360  2204               	addwfc	(___fladd@b+1)^0,f,c
  8197  004362  2205               	addwfc	(___fladd@b+2)^0,f,c
  8198  004364  2206               	addwfc	(___fladd@b+3)^0,f,c
  8199  004366  A006               	btfss	(___fladd@b+3)^0,0,c
  8200  004368  EFB8  F021         	goto	u2521
  8201  00436C  EFBA  F021         	goto	u2520
  8202  004370                     u2521:
  8203  004370  EFD8  F021         	goto	l2829
  8204  004374                     u2520:
  8205  004374  C003  F00B         	movff	___fladd@b,??___fladd
  8206  004378  C004  F00C         	movff	___fladd@b+1,??___fladd+1
  8207  00437C  C005  F00D         	movff	___fladd@b+2,??___fladd+2
  8208  004380  C006  F00E         	movff	___fladd@b+3,??___fladd+3
  8209  004384  340E               	rlcf	(??___fladd+3)^0,w,c
  8210  004386  320E               	rrcf	(??___fladd+3)^0,f,c
  8211  004388  320D               	rrcf	(??___fladd+2)^0,f,c
  8212  00438A  320C               	rrcf	(??___fladd+1)^0,f,c
  8213  00438C  320B               	rrcf	??___fladd^0,f,c
  8214  00438E  C00B  F003         	movff	??___fladd,___fladd@b
  8215  004392  C00C  F004         	movff	??___fladd+1,___fladd@b+1
  8216  004396  C00D  F005         	movff	??___fladd+2,___fladd@b+2
  8217  00439A  C00E  F006         	movff	??___fladd+3,___fladd@b+3
  8218  00439E  2811               	incf	___fladd@bexp^0,w,c
  8219  0043A0  B4D8               	btfsc	status,2,c
  8220  0043A2  EFD5  F021         	goto	u2531
  8221  0043A6  EFD7  F021         	goto	u2530
  8222  0043AA                     u2531:
  8223  0043AA  EFD8  F021         	goto	l2829
  8224  0043AE                     u2530:
  8225  0043AE  2A11               	incf	___fladd@bexp^0,f,c
  8226  0043B0                     l2829:
  8227  0043B0  2811               	incf	___fladd@bexp^0,w,c
  8228  0043B2  B4D8               	btfsc	status,2,c
  8229  0043B4  EFDE  F021         	goto	u2541
  8230  0043B8  EFE0  F021         	goto	u2540
  8231  0043BC                     u2541:
  8232  0043BC  EFE8  F021         	goto	l2833
  8233  0043C0                     u2540:
  8234  0043C0  5011               	movf	___fladd@bexp^0,w,c
  8235  0043C2  A4D8               	btfss	status,2,c
  8236  0043C4  EFE6  F021         	goto	u2551
  8237  0043C8  EFE8  F021         	goto	u2550
  8238  0043CC                     u2551:
  8239  0043CC  EFFA  F021         	goto	l2837
  8240  0043D0                     u2550:
  8241  0043D0                     l2833:
  8242  0043D0  0E00               	movlw	0
  8243  0043D2  6E03               	movwf	___fladd@b^0,c
  8244  0043D4  0E00               	movlw	0
  8245  0043D6  6E04               	movwf	(___fladd@b+1)^0,c
  8246  0043D8  0E00               	movlw	0
  8247  0043DA  6E05               	movwf	(___fladd@b+2)^0,c
  8248  0043DC  0E00               	movlw	0
  8249  0043DE  6E06               	movwf	(___fladd@b+3)^0,c
  8250  0043E0  5011               	movf	___fladd@bexp^0,w,c
  8251  0043E2  A4D8               	btfss	status,2,c
  8252  0043E4  EFF6  F021         	goto	u2561
  8253  0043E8  EFF8  F021         	goto	u2560
  8254  0043EC                     u2561:
  8255  0043EC  EFFA  F021         	goto	l2837
  8256  0043F0                     u2560:
  8257  0043F0  0E00               	movlw	0
  8258  0043F2  6E0F               	movwf	___fladd@signs^0,c
  8259  0043F4                     l2837:
  8260  0043F4  A011               	btfss	___fladd@bexp^0,0,c
  8261  0043F6  EFFF  F021         	goto	u2571
  8262  0043FA  EF01  F022         	goto	u2570
  8263  0043FE                     u2571:
  8264  0043FE  EF04  F022         	goto	l2841
  8265  004402                     u2570:
  8266  004402  8E05               	bsf	(___fladd@b+2)^0,7,c
  8267  004404  EF05  F022         	goto	l2843
  8268  004408                     l2841:
  8269  004408  9E05               	bcf	(___fladd@b+2)^0,7,c
  8270  00440A                     l2843:
  8271  00440A  90D8               	bcf	status,0,c
  8272  00440C  3011               	rrcf	___fladd@bexp^0,w,c
  8273  00440E  6E06               	movwf	(___fladd@b+3)^0,c
  8274  004410  AE0F               	btfss	___fladd@signs^0,7,c
  8275  004412  EF0D  F022         	goto	u2581
  8276  004416  EF0F  F022         	goto	u2580
  8277  00441A                     u2581:
  8278  00441A  EF10  F022         	goto	l2849
  8279  00441E                     u2580:
  8280  00441E  8E06               	bsf	(___fladd@b+3)^0,7,c
  8281  004420                     l2849:
  8282  004420  C003  F003         	movff	___fladd@b,?___fladd
  8283  004424  C004  F004         	movff	___fladd@b+1,?___fladd+1
  8284  004428  C005  F005         	movff	___fladd@b+2,?___fladd+2
  8285  00442C  C006  F006         	movff	___fladd@b+3,?___fladd+3
  8286  004430                     l850:
  8287  004430  0012               	return		;funcret
  8288  004432                     __end_of___fladd:
  8289                           	opt callstack 0
  8290                           
  8291 ;; *************** function ___flneg *****************
  8292 ;; Defined at:
  8293 ;;		line 15 in file "/opt/microchip/xc8/v2.10/pic/sources/c99/common/flneg.c"
  8294 ;; Parameters:    Size  Location     Type
  8295 ;;  f1              4    2[COMRAM] unsigned char 
  8296 ;; Auto vars:     Size  Location     Type
  8297 ;;		None
  8298 ;; Return value:  Size  Location     Type
  8299 ;;                  4    2[COMRAM] unsigned char 
  8300 ;; Registers used:
  8301 ;;		wreg, status,2, status,0
  8302 ;; Tracked objects:
  8303 ;;		On entry : 0/0
  8304 ;;		On exit  : 0/0
  8305 ;;		Unchanged: 0/0
  8306 ;; Data sizes:     COMRAM   BANK0   BANK1   BANK2   BANK3   BANK4   BANK5   BANK6   BANK7   BANK8   BANK9  BANK10  BANK1
      +1  BANK12  BANK13  BANK14  BANK15
  8307 ;;      Params:         4       0       0       0       0       0       0       0       0       0       0       0       
      +0       0       0       0       0
  8308 ;;      Locals:         0       0       0       0       0       0       0       0       0       0       0       0       
      +0       0       0       0       0
  8309 ;;      Temps:          0       0       0       0       0       0       0       0       0       0       0       0       
      +0       0       0       0       0
  8310 ;;      Totals:         4       0       0       0       0       0       0       0       0       0       0       0       
      +0       0       0       0       0
  8311 ;;Total ram usage:        4 bytes
  8312 ;; Hardware stack levels used:    1
  8313 ;; Hardware stack levels required when called:    3
  8314 ;; This function calls:
  8315 ;;		Nothing
  8316 ;; This function is called by:
  8317 ;;		_powf
  8318 ;; This function uses a non-reentrant model
  8319 ;;
  8320                           
  8321                           	psect	text17
  8322  0058B2                     __ptext17:
  8323                           	opt callstack 0
  8324  0058B2                     ___flneg:
  8325                           	opt callstack 24
  8326  0058B2  5003               	movf	___flneg@f1^0,w,c
  8327  0058B4  1004               	iorwf	(___flneg@f1+1)^0,w,c
  8328  0058B6  1005               	iorwf	(___flneg@f1+2)^0,w,c
  8329  0058B8  1006               	iorwf	(___flneg@f1+3)^0,w,c
  8330  0058BA  B4D8               	btfsc	status,2,c
  8331  0058BC  EF62  F02C         	goto	u3061
  8332  0058C0  EF64  F02C         	goto	u3060
  8333  0058C4                     u3061:
  8334  0058C4  EF6C  F02C         	goto	l3159
  8335  0058C8                     u3060:
  8336  0058C8  0E00               	movlw	0
  8337  0058CA  1A03               	xorwf	___flneg@f1^0,f,c
  8338  0058CC  0E00               	movlw	0
  8339  0058CE  1A04               	xorwf	(___flneg@f1+1)^0,f,c
  8340  0058D0  0E00               	movlw	0
  8341  0058D2  1A05               	xorwf	(___flneg@f1+2)^0,f,c
  8342  0058D4  0E80               	movlw	128
  8343  0058D6  1A06               	xorwf	(___flneg@f1+3)^0,f,c
  8344  0058D8                     l3159:
  8345  0058D8  C003  F003         	movff	___flneg@f1,?___flneg
  8346  0058DC  C004  F004         	movff	___flneg@f1+1,?___flneg+1
  8347  0058E0  C005  F005         	movff	___flneg@f1+2,?___flneg+2
  8348  0058E4  C006  F006         	movff	___flneg@f1+3,?___flneg+3
  8349  0058E8  0012               	return		;funcret
  8350  0058EA                     __end_of___flneg:
  8351                           	opt callstack 0
  8352                           
  8353 ;; *************** function ___fldiv *****************
  8354 ;; Defined at:
  8355 ;;		line 11 in file "/opt/microchip/xc8/v2.10/pic/sources/c99/common/sprcdiv.c"
  8356 ;; Parameters:    Size  Location     Type
  8357 ;;  b               4   65[COMRAM] unsigned char 
  8358 ;;  a               4   69[COMRAM] unsigned char 
  8359 ;; Auto vars:     Size  Location     Type
  8360 ;;  grs             4   84[COMRAM] unsigned long 
  8361 ;;  rem             4   77[COMRAM] unsigned long 
  8362 ;;  new_exp         2   82[COMRAM] short 
  8363 ;;  aexp            1   89[COMRAM] unsigned char 
  8364 ;;  bexp            1   88[COMRAM] unsigned char 
  8365 ;;  sign            1   81[COMRAM] unsigned char 
  8366 ;; Return value:  Size  Location     Type
  8367 ;;                  4   65[COMRAM] unsigned char 
  8368 ;; Registers used:
  8369 ;;		wreg, status,2, status,0
  8370 ;; Tracked objects:
  8371 ;;		On entry : 0/0
  8372 ;;		On exit  : 0/0
  8373 ;;		Unchanged: 0/0
  8374 ;; Data sizes:     COMRAM   BANK0   BANK1   BANK2   BANK3   BANK4   BANK5   BANK6   BANK7   BANK8   BANK9  BANK10  BANK1
      +1  BANK12  BANK13  BANK14  BANK15
  8375 ;;      Params:         8       0       0       0       0       0       0       0       0       0       0       0       
      +0       0       0       0       0
  8376 ;;      Locals:        13       0       0       0       0       0       0       0       0       0       0       0       
      +0       0       0       0       0
  8377 ;;      Temps:          4       0       0       0       0       0       0       0       0       0       0       0       
      +0       0       0       0       0
  8378 ;;      Totals:        25       0       0       0       0       0       0       0       0       0       0       0       
      +0       0       0       0       0
  8379 ;;Total ram usage:       25 bytes
  8380 ;; Hardware stack levels used:    1
  8381 ;; Hardware stack levels required when called:    3
  8382 ;; This function calls:
  8383 ;;		Nothing
  8384 ;; This function is called by:
  8385 ;;		_powf
  8386 ;; This function uses a non-reentrant model
  8387 ;;
  8388                           
  8389                           	psect	text18
  8390  00485C                     __ptext18:
  8391                           	opt callstack 0
  8392  00485C                     ___fldiv:
  8393                           	opt callstack 24
  8394  00485C  5045               	movf	(___fldiv@b+3)^0,w,c
  8395  00485E  0B80               	andlw	128
  8396  004860  6E52               	movwf	___fldiv@sign^0,c
  8397  004862  5045               	movf	(___fldiv@b+3)^0,w,c
  8398  004864  2445               	addwf	(___fldiv@b+3)^0,w,c
  8399  004866  6E59               	movwf	___fldiv@bexp^0,c
  8400  004868  AE44               	btfss	(___fldiv@b+2)^0,7,c
  8401  00486A  EF39  F024         	goto	u2831
  8402  00486E  EF3B  F024         	goto	u2830
  8403  004872                     u2831:
  8404  004872  EF3C  F024         	goto	l3017
  8405  004876                     u2830:
  8406  004876  8059               	bsf	___fldiv@bexp^0,0,c
  8407  004878                     l3017:
  8408  004878  5059               	movf	___fldiv@bexp^0,w,c
  8409  00487A  B4D8               	btfsc	status,2,c
  8410  00487C  EF42  F024         	goto	u2841
  8411  004880  EF44  F024         	goto	u2840
  8412  004884                     u2841:
  8413  004884  EF59  F024         	goto	l3027
  8414  004888                     u2840:
  8415  004888  2859               	incf	___fldiv@bexp^0,w,c
  8416  00488A  A4D8               	btfss	status,2,c
  8417  00488C  EF4A  F024         	goto	u2851
  8418  004890  EF4C  F024         	goto	u2850
  8419  004894                     u2851:
  8420  004894  EF54  F024         	goto	l3023
  8421  004898                     u2850:
  8422  004898  0E00               	movlw	0
  8423  00489A  6E42               	movwf	___fldiv@b^0,c
  8424  00489C  0E00               	movlw	0
  8425  00489E  6E43               	movwf	(___fldiv@b+1)^0,c
  8426  0048A0  0E00               	movlw	0
  8427  0048A2  6E44               	movwf	(___fldiv@b+2)^0,c
  8428  0048A4  0E00               	movlw	0
  8429  0048A6  6E45               	movwf	(___fldiv@b+3)^0,c
  8430  0048A8                     l3023:
  8431  0048A8  8E44               	bsf	(___fldiv@b+2)^0,7,c
  8432  0048AA  0E00               	movlw	0
  8433  0048AC  6E45               	movwf	(___fldiv@b+3)^0,c
  8434  0048AE  EF61  F024         	goto	l3029
  8435  0048B2                     l3027:
  8436  0048B2  0E00               	movlw	0
  8437  0048B4  6E42               	movwf	___fldiv@b^0,c
  8438  0048B6  0E00               	movlw	0
  8439  0048B8  6E43               	movwf	(___fldiv@b+1)^0,c
  8440  0048BA  0E00               	movlw	0
  8441  0048BC  6E44               	movwf	(___fldiv@b+2)^0,c
  8442  0048BE  0E00               	movlw	0
  8443  0048C0  6E45               	movwf	(___fldiv@b+3)^0,c
  8444  0048C2                     l3029:
  8445  0048C2  5049               	movf	(___fldiv@a+3)^0,w,c
  8446  0048C4  0B80               	andlw	128
  8447  0048C6  1A52               	xorwf	___fldiv@sign^0,f,c
  8448  0048C8  5049               	movf	(___fldiv@a+3)^0,w,c
  8449  0048CA  2449               	addwf	(___fldiv@a+3)^0,w,c
  8450  0048CC  6E5A               	movwf	___fldiv@aexp^0,c
  8451  0048CE  AE48               	btfss	(___fldiv@a+2)^0,7,c
  8452  0048D0  EF6C  F024         	goto	u2861
  8453  0048D4  EF6E  F024         	goto	u2860
  8454  0048D8                     u2861:
  8455  0048D8  EF6F  F024         	goto	l3037
  8456  0048DC                     u2860:
  8457  0048DC  805A               	bsf	___fldiv@aexp^0,0,c
  8458  0048DE                     l3037:
  8459  0048DE  505A               	movf	___fldiv@aexp^0,w,c
  8460  0048E0  B4D8               	btfsc	status,2,c
  8461  0048E2  EF75  F024         	goto	u2871
  8462  0048E6  EF77  F024         	goto	u2870
  8463  0048EA                     u2871:
  8464  0048EA  EF8C  F024         	goto	l3047
  8465  0048EE                     u2870:
  8466  0048EE  285A               	incf	___fldiv@aexp^0,w,c
  8467  0048F0  A4D8               	btfss	status,2,c
  8468  0048F2  EF7D  F024         	goto	u2881
  8469  0048F6  EF7F  F024         	goto	u2880
  8470  0048FA                     u2881:
  8471  0048FA  EF87  F024         	goto	l3043
  8472  0048FE                     u2880:
  8473  0048FE  0E00               	movlw	0
  8474  004900  6E46               	movwf	___fldiv@a^0,c
  8475  004902  0E00               	movlw	0
  8476  004904  6E47               	movwf	(___fldiv@a+1)^0,c
  8477  004906  0E00               	movlw	0
  8478  004908  6E48               	movwf	(___fldiv@a+2)^0,c
  8479  00490A  0E00               	movlw	0
  8480  00490C  6E49               	movwf	(___fldiv@a+3)^0,c
  8481  00490E                     l3043:
  8482  00490E  8E48               	bsf	(___fldiv@a+2)^0,7,c
  8483  004910  0E00               	movlw	0
  8484  004912  6E49               	movwf	(___fldiv@a+3)^0,c
  8485  004914  EF94  F024         	goto	l3049
  8486  004918                     l3047:
  8487  004918  0E00               	movlw	0
  8488  00491A  6E46               	movwf	___fldiv@a^0,c
  8489  00491C  0E00               	movlw	0
  8490  00491E  6E47               	movwf	(___fldiv@a+1)^0,c
  8491  004920  0E00               	movlw	0
  8492  004922  6E48               	movwf	(___fldiv@a+2)^0,c
  8493  004924  0E00               	movlw	0
  8494  004926  6E49               	movwf	(___fldiv@a+3)^0,c
  8495  004928                     l3049:
  8496  004928  5046               	movf	___fldiv@a^0,w,c
  8497  00492A  1047               	iorwf	(___fldiv@a+1)^0,w,c
  8498  00492C  1048               	iorwf	(___fldiv@a+2)^0,w,c
  8499  00492E  1049               	iorwf	(___fldiv@a+3)^0,w,c
  8500  004930  A4D8               	btfss	status,2,c
  8501  004932  EF9D  F024         	goto	u2891
  8502  004936  EF9F  F024         	goto	u2890
  8503  00493A                     u2891:
  8504  00493A  EFB7  F024         	goto	l3061
  8505  00493E                     u2890:
  8506  00493E  0E00               	movlw	0
  8507  004940  6E42               	movwf	___fldiv@b^0,c
  8508  004942  0E00               	movlw	0
  8509  004944  6E43               	movwf	(___fldiv@b+1)^0,c
  8510  004946  0E00               	movlw	0
  8511  004948  6E44               	movwf	(___fldiv@b+2)^0,c
  8512  00494A  0E00               	movlw	0
  8513  00494C  6E45               	movwf	(___fldiv@b+3)^0,c
  8514  00494E  0E80               	movlw	128
  8515  004950  1244               	iorwf	(___fldiv@b+2)^0,f,c
  8516  004952  0E7F               	movlw	127
  8517  004954  1245               	iorwf	(___fldiv@b+3)^0,f,c
  8518  004956                     l3055:
  8519  004956  5052               	movf	___fldiv@sign^0,w,c
  8520  004958  1245               	iorwf	(___fldiv@b+3)^0,f,c
  8521  00495A  C042  F042         	movff	___fldiv@b,?___fldiv
  8522  00495E  C043  F043         	movff	___fldiv@b+1,?___fldiv+1
  8523  004962  C044  F044         	movff	___fldiv@b+2,?___fldiv+2
  8524  004966  C045  F045         	movff	___fldiv@b+3,?___fldiv+3
  8525  00496A  EFFA  F025         	goto	l895
  8526  00496E                     l3061:
  8527  00496E  5059               	movf	___fldiv@bexp^0,w,c
  8528  004970  A4D8               	btfss	status,2,c
  8529  004972  EFBD  F024         	goto	u2901
  8530  004976  EFBF  F024         	goto	u2900
  8531  00497A                     u2901:
  8532  00497A  EFC9  F024         	goto	l3069
  8533  00497E                     u2900:
  8534  00497E  0E00               	movlw	0
  8535  004980  6E42               	movwf	?___fldiv^0,c
  8536  004982  0E00               	movlw	0
  8537  004984  6E43               	movwf	(?___fldiv+1)^0,c
  8538  004986  0E00               	movlw	0
  8539  004988  6E44               	movwf	(?___fldiv+2)^0,c
  8540  00498A  0E00               	movlw	0
  8541  00498C  6E45               	movwf	(?___fldiv+3)^0,c
  8542  00498E  EFFA  F025         	goto	l895
  8543  004992                     l3069:
  8544  004992  505A               	movf	___fldiv@aexp^0,w,c
  8545  004994  C059  F04A         	movff	___fldiv@bexp,??___fldiv
  8546  004998  6A4B               	clrf	(??___fldiv+1)^0,c
  8547  00499A  5E4A               	subwf	??___fldiv^0,f,c
  8548  00499C  0E00               	movlw	0
  8549  00499E  5A4B               	subwfb	(??___fldiv+1)^0,f,c
  8550  0049A0  0E7F               	movlw	127
  8551  0049A2  244A               	addwf	??___fldiv^0,w,c
  8552  0049A4  6E53               	movwf	___fldiv@new_exp^0,c
  8553  0049A6  0E00               	movlw	0
  8554  0049A8  204B               	addwfc	(??___fldiv+1)^0,w,c
  8555  0049AA  6E54               	movwf	(___fldiv@new_exp+1)^0,c
  8556  0049AC  C042  F04E         	movff	___fldiv@b,___fldiv@rem
  8557  0049B0  C043  F04F         	movff	___fldiv@b+1,___fldiv@rem+1
  8558  0049B4  C044  F050         	movff	___fldiv@b+2,___fldiv@rem+2
  8559  0049B8  C045  F051         	movff	___fldiv@b+3,___fldiv@rem+3
  8560  0049BC  0E00               	movlw	0
  8561  0049BE  6E42               	movwf	___fldiv@b^0,c
  8562  0049C0  0E00               	movlw	0
  8563  0049C2  6E43               	movwf	(___fldiv@b+1)^0,c
  8564  0049C4  0E00               	movlw	0
  8565  0049C6  6E44               	movwf	(___fldiv@b+2)^0,c
  8566  0049C8  0E00               	movlw	0
  8567  0049CA  6E45               	movwf	(___fldiv@b+3)^0,c
  8568  0049CC  0E00               	movlw	0
  8569  0049CE  6E55               	movwf	___fldiv@grs^0,c
  8570  0049D0  0E00               	movlw	0
  8571  0049D2  6E56               	movwf	(___fldiv@grs+1)^0,c
  8572  0049D4  0E00               	movlw	0
  8573  0049D6  6E57               	movwf	(___fldiv@grs+2)^0,c
  8574  0049D8  0E00               	movlw	0
  8575  0049DA  6E58               	movwf	(___fldiv@grs+3)^0,c
  8576  0049DC  0E00               	movlw	0
  8577  0049DE  6E5A               	movwf	___fldiv@aexp^0,c
  8578  0049E0  EF2A  F025         	goto	l897
  8579  0049E4                     l3079:
  8580  0049E4  505A               	movf	___fldiv@aexp^0,w,c
  8581  0049E6  B4D8               	btfsc	status,2,c
  8582  0049E8  EFF8  F024         	goto	u2911
  8583  0049EC  EFFA  F024         	goto	u2910
  8584  0049F0                     u2911:
  8585  0049F0  EF11  F025         	goto	l3087
  8586  0049F4                     u2910:
  8587  0049F4  90D8               	bcf	status,0,c
  8588  0049F6  364E               	rlcf	___fldiv@rem^0,f,c
  8589  0049F8  364F               	rlcf	(___fldiv@rem+1)^0,f,c
  8590  0049FA  3650               	rlcf	(___fldiv@rem+2)^0,f,c
  8591  0049FC  3651               	rlcf	(___fldiv@rem+3)^0,f,c
  8592  0049FE  90D8               	bcf	status,0,c
  8593  004A00  3642               	rlcf	___fldiv@b^0,f,c
  8594  004A02  3643               	rlcf	(___fldiv@b+1)^0,f,c
  8595  004A04  3644               	rlcf	(___fldiv@b+2)^0,f,c
  8596  004A06  3645               	rlcf	(___fldiv@b+3)^0,f,c
  8597  004A08  AE58               	btfss	(___fldiv@grs+3)^0,7,c
  8598  004A0A  EF09  F025         	goto	u2921
  8599  004A0E  EF0B  F025         	goto	u2920
  8600  004A12                     u2921:
  8601  004A12  EF0C  F025         	goto	l900
  8602  004A16                     u2920:
  8603  004A16  8042               	bsf	___fldiv@b^0,0,c
  8604  004A18                     l900:
  8605  004A18  90D8               	bcf	status,0,c
  8606  004A1A  3655               	rlcf	___fldiv@grs^0,f,c
  8607  004A1C  3656               	rlcf	(___fldiv@grs+1)^0,f,c
  8608  004A1E  3657               	rlcf	(___fldiv@grs+2)^0,f,c
  8609  004A20  3658               	rlcf	(___fldiv@grs+3)^0,f,c
  8610  004A22                     l3087:
  8611  004A22  5046               	movf	___fldiv@a^0,w,c
  8612  004A24  5C4E               	subwf	___fldiv@rem^0,w,c
  8613  004A26  5047               	movf	(___fldiv@a+1)^0,w,c
  8614  004A28  584F               	subwfb	(___fldiv@rem+1)^0,w,c
  8615  004A2A  5048               	movf	(___fldiv@a+2)^0,w,c
  8616  004A2C  5850               	subwfb	(___fldiv@rem+2)^0,w,c
  8617  004A2E  5049               	movf	(___fldiv@a+3)^0,w,c
  8618  004A30  5851               	subwfb	(___fldiv@rem+3)^0,w,c
  8619  004A32  A0D8               	btfss	status,0,c
  8620  004A34  EF1E  F025         	goto	u2931
  8621  004A38  EF20  F025         	goto	u2930
  8622  004A3C                     u2931:
  8623  004A3C  EF29  F025         	goto	l3093
  8624  004A40                     u2930:
  8625  004A40  8C58               	bsf	(___fldiv@grs+3)^0,6,c
  8626  004A42  5046               	movf	___fldiv@a^0,w,c
  8627  004A44  5E4E               	subwf	___fldiv@rem^0,f,c
  8628  004A46  5047               	movf	(___fldiv@a+1)^0,w,c
  8629  004A48  5A4F               	subwfb	(___fldiv@rem+1)^0,f,c
  8630  004A4A  5048               	movf	(___fldiv@a+2)^0,w,c
  8631  004A4C  5A50               	subwfb	(___fldiv@rem+2)^0,f,c
  8632  004A4E  5049               	movf	(___fldiv@a+3)^0,w,c
  8633  004A50  5A51               	subwfb	(___fldiv@rem+3)^0,f,c
  8634  004A52                     l3093:
  8635  004A52  2A5A               	incf	___fldiv@aexp^0,f,c
  8636  004A54                     l897:
  8637  004A54  0E19               	movlw	25
  8638  004A56  645A               	cpfsgt	___fldiv@aexp^0,c
  8639  004A58  EF30  F025         	goto	u2941
  8640  004A5C  EF32  F025         	goto	u2940
  8641  004A60                     u2941:
  8642  004A60  EFF2  F024         	goto	l3079
  8643  004A64                     u2940:
  8644  004A64  504E               	movf	___fldiv@rem^0,w,c
  8645  004A66  104F               	iorwf	(___fldiv@rem+1)^0,w,c
  8646  004A68  1050               	iorwf	(___fldiv@rem+2)^0,w,c
  8647  004A6A  1051               	iorwf	(___fldiv@rem+3)^0,w,c
  8648  004A6C  B4D8               	btfsc	status,2,c
  8649  004A6E  EF3B  F025         	goto	u2951
  8650  004A72  EF3D  F025         	goto	u2950
  8651  004A76                     u2951:
  8652  004A76  EF55  F025         	goto	l3105
  8653  004A7A                     u2950:
  8654  004A7A  8055               	bsf	___fldiv@grs^0,0,c
  8655  004A7C  EF55  F025         	goto	l3105
  8656  004A80                     l3099:
  8657  004A80  90D8               	bcf	status,0,c
  8658  004A82  3642               	rlcf	___fldiv@b^0,f,c
  8659  004A84  3643               	rlcf	(___fldiv@b+1)^0,f,c
  8660  004A86  3644               	rlcf	(___fldiv@b+2)^0,f,c
  8661  004A88  3645               	rlcf	(___fldiv@b+3)^0,f,c
  8662  004A8A  AE58               	btfss	(___fldiv@grs+3)^0,7,c
  8663  004A8C  EF4A  F025         	goto	u2961
  8664  004A90  EF4C  F025         	goto	u2960
  8665  004A94                     u2961:
  8666  004A94  EF4D  F025         	goto	l906
  8667  004A98                     u2960:
  8668  004A98  8042               	bsf	___fldiv@b^0,0,c
  8669  004A9A                     l906:
  8670  004A9A  90D8               	bcf	status,0,c
  8671  004A9C  3655               	rlcf	___fldiv@grs^0,f,c
  8672  004A9E  3656               	rlcf	(___fldiv@grs+1)^0,f,c
  8673  004AA0  3657               	rlcf	(___fldiv@grs+2)^0,f,c
  8674  004AA2  3658               	rlcf	(___fldiv@grs+3)^0,f,c
  8675  004AA4  0653               	decf	___fldiv@new_exp^0,f,c
  8676  004AA6  A0D8               	btfss	status,0,c
  8677  004AA8  0654               	decf	(___fldiv@new_exp+1)^0,f,c
  8678  004AAA                     l3105:
  8679  004AAA  AE44               	btfss	(___fldiv@b+2)^0,7,c
  8680  004AAC  EF5A  F025         	goto	u2971
  8681  004AB0  EF5C  F025         	goto	u2970
  8682  004AB4                     u2971:
  8683  004AB4  EF40  F025         	goto	l3099
  8684  004AB8                     u2970:
  8685  004AB8  0E00               	movlw	0
  8686  004ABA  6E5A               	movwf	___fldiv@aexp^0,c
  8687  004ABC  AE58               	btfss	(___fldiv@grs+3)^0,7,c
  8688  004ABE  EF63  F025         	goto	u2981
  8689  004AC2  EF65  F025         	goto	u2980
  8690  004AC6                     u2981:
  8691  004AC6  EF89  F025         	goto	l908
  8692  004ACA                     u2980:
  8693  004ACA  0EFF               	movlw	255
  8694  004ACC  1455               	andwf	___fldiv@grs^0,w,c
  8695  004ACE  6E4A               	movwf	??___fldiv^0,c
  8696  004AD0  0EFF               	movlw	255
  8697  004AD2  1456               	andwf	(___fldiv@grs+1)^0,w,c
  8698  004AD4  6E4B               	movwf	(??___fldiv+1)^0,c
  8699  004AD6  0EFF               	movlw	255
  8700  004AD8  1457               	andwf	(___fldiv@grs+2)^0,w,c
  8701  004ADA  6E4C               	movwf	(??___fldiv+2)^0,c
  8702  004ADC  0E7F               	movlw	127
  8703  004ADE  1458               	andwf	(___fldiv@grs+3)^0,w,c
  8704  004AE0  6E4D               	movwf	(??___fldiv+3)^0,c
  8705  004AE2  504A               	movf	??___fldiv^0,w,c
  8706  004AE4  104B               	iorwf	(??___fldiv+1)^0,w,c
  8707  004AE6  104C               	iorwf	(??___fldiv+2)^0,w,c
  8708  004AE8  104D               	iorwf	(??___fldiv+3)^0,w,c
  8709  004AEA  B4D8               	btfsc	status,2,c
  8710  004AEC  EF7A  F025         	goto	u2991
  8711  004AF0  EF7C  F025         	goto	u2990
  8712  004AF4                     u2991:
  8713  004AF4  EF80  F025         	goto	l909
  8714  004AF8                     u2990:
  8715  004AF8                     l3113:
  8716  004AF8  0E01               	movlw	1
  8717  004AFA  6E5A               	movwf	___fldiv@aexp^0,c
  8718  004AFC  EF89  F025         	goto	l908
  8719  004B00                     l909:
  8720  004B00  A042               	btfss	___fldiv@b^0,0,c
  8721  004B02  EF85  F025         	goto	u3001
  8722  004B06  EF87  F025         	goto	u3000
  8723  004B0A                     u3001:
  8724  004B0A  EF89  F025         	goto	l908
  8725  004B0E                     u3000:
  8726  004B0E  EF7C  F025         	goto	l3113
  8727  004B12                     l908:
  8728  004B12  505A               	movf	___fldiv@aexp^0,w,c
  8729  004B14  B4D8               	btfsc	status,2,c
  8730  004B16  EF8F  F025         	goto	u3011
  8731  004B1A  EF91  F025         	goto	u3010
  8732  004B1E                     u3011:
  8733  004B1E  EFB5  F025         	goto	l3125
  8734  004B22                     u3010:
  8735  004B22  0E01               	movlw	1
  8736  004B24  2642               	addwf	___fldiv@b^0,f,c
  8737  004B26  0E00               	movlw	0
  8738  004B28  2243               	addwfc	(___fldiv@b+1)^0,f,c
  8739  004B2A  2244               	addwfc	(___fldiv@b+2)^0,f,c
  8740  004B2C  2245               	addwfc	(___fldiv@b+3)^0,f,c
  8741  004B2E  A045               	btfss	(___fldiv@b+3)^0,0,c
  8742  004B30  EF9C  F025         	goto	u3021
  8743  004B34  EF9E  F025         	goto	u3020
  8744  004B38                     u3021:
  8745  004B38  EFB5  F025         	goto	l3125
  8746  004B3C                     u3020:
  8747  004B3C  C042  F04A         	movff	___fldiv@b,??___fldiv
  8748  004B40  C043  F04B         	movff	___fldiv@b+1,??___fldiv+1
  8749  004B44  C044  F04C         	movff	___fldiv@b+2,??___fldiv+2
  8750  004B48  C045  F04D         	movff	___fldiv@b+3,??___fldiv+3
  8751  004B4C  344D               	rlcf	(??___fldiv+3)^0,w,c
  8752  004B4E  324D               	rrcf	(??___fldiv+3)^0,f,c
  8753  004B50  324C               	rrcf	(??___fldiv+2)^0,f,c
  8754  004B52  324B               	rrcf	(??___fldiv+1)^0,f,c
  8755  004B54  324A               	rrcf	??___fldiv^0,f,c
  8756  004B56  C04A  F042         	movff	??___fldiv,___fldiv@b
  8757  004B5A  C04B  F043         	movff	??___fldiv+1,___fldiv@b+1
  8758  004B5E  C04C  F044         	movff	??___fldiv+2,___fldiv@b+2
  8759  004B62  C04D  F045         	movff	??___fldiv+3,___fldiv@b+3
  8760  004B66  4A53               	infsnz	___fldiv@new_exp^0,f,c
  8761  004B68  2A54               	incf	(___fldiv@new_exp+1)^0,f,c
  8762  004B6A                     l3125:
  8763  004B6A  BE54               	btfsc	(___fldiv@new_exp+1)^0,7,c
  8764  004B6C  EFC0  F025         	goto	u3031
  8765  004B70  5054               	movf	(___fldiv@new_exp+1)^0,w,c
  8766  004B72  E108               	bnz	u3030
  8767  004B74  2853               	incf	___fldiv@new_exp^0,w,c
  8768  004B76  A0D8               	btfss	status,0,c
  8769  004B78  EFC0  F025         	goto	u3031
  8770  004B7C  EFC2  F025         	goto	u3030
  8771  004B80                     u3031:
  8772  004B80  EFCD  F025         	goto	l3129
  8773  004B84                     u3030:
  8774  004B84  0E00               	movlw	0
  8775  004B86  6E54               	movwf	(___fldiv@new_exp+1)^0,c
  8776  004B88  6853               	setf	___fldiv@new_exp^0,c
  8777  004B8A  0E00               	movlw	0
  8778  004B8C  6E42               	movwf	___fldiv@b^0,c
  8779  004B8E  0E00               	movlw	0
  8780  004B90  6E43               	movwf	(___fldiv@b+1)^0,c
  8781  004B92  0E00               	movlw	0
  8782  004B94  6E44               	movwf	(___fldiv@b+2)^0,c
  8783  004B96  0E00               	movlw	0
  8784  004B98  6E45               	movwf	(___fldiv@b+3)^0,c
  8785  004B9A                     l3129:
  8786  004B9A  BE54               	btfsc	(___fldiv@new_exp+1)^0,7,c
  8787  004B9C  EFDA  F025         	goto	u3040
  8788  004BA0  5054               	movf	(___fldiv@new_exp+1)^0,w,c
  8789  004BA2  E106               	bnz	u3041
  8790  004BA4  0453               	decf	___fldiv@new_exp^0,w,c
  8791  004BA6  B0D8               	btfsc	status,0,c
  8792  004BA8  EFD8  F025         	goto	u3041
  8793  004BAC  EFDA  F025         	goto	u3040
  8794  004BB0                     u3041:
  8795  004BB0  EFE8  F025         	goto	l3133
  8796  004BB4                     u3040:
  8797  004BB4  0E00               	movlw	0
  8798  004BB6  6E54               	movwf	(___fldiv@new_exp+1)^0,c
  8799  004BB8  0E00               	movlw	0
  8800  004BBA  6E53               	movwf	___fldiv@new_exp^0,c
  8801  004BBC  0E00               	movlw	0
  8802  004BBE  6E42               	movwf	___fldiv@b^0,c
  8803  004BC0  0E00               	movlw	0
  8804  004BC2  6E43               	movwf	(___fldiv@b+1)^0,c
  8805  004BC4  0E00               	movlw	0
  8806  004BC6  6E44               	movwf	(___fldiv@b+2)^0,c
  8807  004BC8  0E00               	movlw	0
  8808  004BCA  6E45               	movwf	(___fldiv@b+3)^0,c
  8809  004BCC  0E00               	movlw	0
  8810  004BCE  6E52               	movwf	___fldiv@sign^0,c
  8811  004BD0                     l3133:
  8812  004BD0  C053  F059         	movff	___fldiv@new_exp,___fldiv@bexp
  8813  004BD4  A059               	btfss	___fldiv@bexp^0,0,c
  8814  004BD6  EFEF  F025         	goto	u3051
  8815  004BDA  EFF1  F025         	goto	u3050
  8816  004BDE                     u3051:
  8817  004BDE  EFF4  F025         	goto	l3139
  8818  004BE2                     u3050:
  8819  004BE2  8E44               	bsf	(___fldiv@b+2)^0,7,c
  8820  004BE4  EFF5  F025         	goto	l3141
  8821  004BE8                     l3139:
  8822  004BE8  9E44               	bcf	(___fldiv@b+2)^0,7,c
  8823  004BEA                     l3141:
  8824  004BEA  90D8               	bcf	status,0,c
  8825  004BEC  3059               	rrcf	___fldiv@bexp^0,w,c
  8826  004BEE  6E45               	movwf	(___fldiv@b+3)^0,c
  8827  004BF0  EFAB  F024         	goto	l3055
  8828  004BF4                     l895:
  8829  004BF4  0012               	return		;funcret
  8830  004BF6                     __end_of___fldiv:
  8831                           	opt callstack 0
  8832                           
  8833 ;; *************** function ___fltol *****************
  8834 ;; Defined at:
  8835 ;;		line 43 in file "/opt/microchip/xc8/v2.10/pic/sources/c99/common/fltol.c"
  8836 ;; Parameters:    Size  Location     Type
  8837 ;;  f1              4   57[BANK0 ] unsigned char 
  8838 ;; Auto vars:     Size  Location     Type
  8839 ;;  exp1            1   66[BANK0 ] unsigned char 
  8840 ;;  sign1           1   65[BANK0 ] unsigned char 
  8841 ;; Return value:  Size  Location     Type
  8842 ;;                  4   57[BANK0 ] long 
  8843 ;; Registers used:
  8844 ;;		wreg, status,2, status,0
  8845 ;; Tracked objects:
  8846 ;;		On entry : 0/0
  8847 ;;		On exit  : 0/0
  8848 ;;		Unchanged: 0/0
  8849 ;; Data sizes:     COMRAM   BANK0   BANK1   BANK2   BANK3   BANK4   BANK5   BANK6   BANK7   BANK8   BANK9  BANK10  BANK1
      +1  BANK12  BANK13  BANK14  BANK15
  8850 ;;      Params:         0       4       0       0       0       0       0       0       0       0       0       0       
      +0       0       0       0       0
  8851 ;;      Locals:         0       2       0       0       0       0       0       0       0       0       0       0       
      +0       0       0       0       0
  8852 ;;      Temps:          0       4       0       0       0       0       0       0       0       0       0       0       
      +0       0       0       0       0
  8853 ;;      Totals:         0      10       0       0       0       0       0       0       0       0       0       0       
      +0       0       0       0       0
  8854 ;;Total ram usage:       10 bytes
  8855 ;; Hardware stack levels used:    1
  8856 ;; Hardware stack levels required when called:    3
  8857 ;; This function calls:
  8858 ;;		Nothing
  8859 ;; This function is called by:
  8860 ;;		_calculateTmr
  8861 ;; This function uses a non-reentrant model
  8862 ;;
  8863                           
  8864                           	psect	text19
  8865  005236                     __ptext19:
  8866                           	opt callstack 0
  8867  005236                     ___fltol:
  8868                           	opt callstack 25
  8869  005236  0100               	movlb	0	; () banked
  8870  005238  359B               	rlcf	(___fltol@f1+2)& (0+255),w,b
  8871  00523A  359C               	rlcf	(___fltol@f1+3)& (0+255),w,b
  8872  00523C  6FA2               	movwf	___fltol@exp1& (0+255),b
  8873  00523E  51A2               	movf	___fltol@exp1& (0+255),w,b
  8874  005240  A4D8               	btfss	status,2,c
  8875  005242  EF25  F029         	goto	u5671
  8876  005246  EF27  F029         	goto	u5670
  8877  00524A                     u5671:
  8878  00524A  EF31  F029         	goto	l5215
  8879  00524E                     u5670:
  8880  00524E                     l5211:
  8881                           
  8882                           ; BSR set to: 0
  8883  00524E  0E00               	movlw	0
  8884  005250  6F99               	movwf	?___fltol& (0+255),b
  8885  005252  0E00               	movlw	0
  8886  005254  6F9A               	movwf	(?___fltol+1)& (0+255),b
  8887  005256  0E00               	movlw	0
  8888  005258  6F9B               	movwf	(?___fltol+2)& (0+255),b
  8889  00525A  0E00               	movlw	0
  8890  00525C  6F9C               	movwf	(?___fltol+3)& (0+255),b
  8891  00525E  EF9E  F029         	goto	l610
  8892  005262                     l5215:
  8893                           
  8894                           ; BSR set to: 0
  8895  005262  C099  F09D         	movff	___fltol@f1,??___fltol
  8896  005266  C09A  F09E         	movff	___fltol@f1+1,??___fltol+1
  8897  00526A  C09B  F09F         	movff	___fltol@f1+2,??___fltol+2
  8898  00526E  C09C  F0A0         	movff	___fltol@f1+3,??___fltol+3
  8899  005272  0E20               	movlw	32
  8900  005274  EF41  F029         	goto	u5680
  8901  005278                     u5685:
  8902  005278  90D8               	bcf	status,0,c
  8903  00527A  33A0               	rrcf	(??___fltol+3)& (0+255),f,b
  8904  00527C  339F               	rrcf	(??___fltol+2)& (0+255),f,b
  8905  00527E  339E               	rrcf	(??___fltol+1)& (0+255),f,b
  8906  005280  339D               	rrcf	??___fltol& (0+255),f,b
  8907  005282                     u5680:
  8908  005282  2EE8               	decfsz	wreg,f,c
  8909  005284  EF3C  F029         	goto	u5685
  8910  005288  519D               	movf	??___fltol& (0+255),w,b
  8911  00528A  6FA1               	movwf	___fltol@sign1& (0+255),b
  8912  00528C                     
  8913                           ; BSR set to: 0
  8914  00528C  8F9B               	bsf	(___fltol@f1+2)& (0+255),7,b
  8915  00528E                     
  8916                           ; BSR set to: 0
  8917  00528E  0EFF               	movlw	255
  8918  005290  1799               	andwf	___fltol@f1& (0+255),f,b
  8919  005292  0EFF               	movlw	255
  8920  005294  179A               	andwf	(___fltol@f1+1)& (0+255),f,b
  8921  005296  0EFF               	movlw	255
  8922  005298  179B               	andwf	(___fltol@f1+2)& (0+255),f,b
  8923  00529A  0E00               	movlw	0
  8924  00529C  179C               	andwf	(___fltol@f1+3)& (0+255),f,b
  8925  00529E                     
  8926                           ; BSR set to: 0
  8927  00529E  0E96               	movlw	150
  8928  0052A0  5FA2               	subwf	___fltol@exp1& (0+255),f,b
  8929  0052A2                     
  8930                           ; BSR set to: 0
  8931  0052A2  BFA2               	btfsc	___fltol@exp1& (0+255),7,b
  8932  0052A4  EF58  F029         	goto	u5690
  8933  0052A8  EF56  F029         	goto	u5691
  8934  0052AC                     u5691:
  8935  0052AC  EF6E  F029         	goto	l5235
  8936  0052B0                     u5690:
  8937  0052B0                     
  8938                           ; BSR set to: 0
  8939  0052B0  51A2               	movf	___fltol@exp1& (0+255),w,b
  8940  0052B2  0A80               	xorlw	128
  8941  0052B4  0F97               	addlw	151
  8942  0052B6  B0D8               	btfsc	status,0,c
  8943  0052B8  EF60  F029         	goto	u5701
  8944  0052BC  EF62  F029         	goto	u5700
  8945  0052C0                     u5701:
  8946  0052C0  EF64  F029         	goto	l5231
  8947  0052C4                     u5700:
  8948  0052C4  EF27  F029         	goto	l5211
  8949  0052C8                     l5231:
  8950                           
  8951                           ; BSR set to: 0
  8952  0052C8  90D8               	bcf	status,0,c
  8953  0052CA  339C               	rrcf	(___fltol@f1+3)& (0+255),f,b
  8954  0052CC  339B               	rrcf	(___fltol@f1+2)& (0+255),f,b
  8955  0052CE  339A               	rrcf	(___fltol@f1+1)& (0+255),f,b
  8956  0052D0  3399               	rrcf	___fltol@f1& (0+255),f,b
  8957  0052D2                     
  8958                           ; BSR set to: 0
  8959  0052D2  3FA2               	incfsz	___fltol@exp1& (0+255),f,b
  8960  0052D4  EF64  F029         	goto	l5231
  8961  0052D8  EF86  F029         	goto	l5245
  8962  0052DC                     l5235:
  8963                           
  8964                           ; BSR set to: 0
  8965  0052DC  0E1F               	movlw	31
  8966  0052DE  65A2               	cpfsgt	___fltol@exp1& (0+255),b
  8967  0052E0  EF74  F029         	goto	u5711
  8968  0052E4  EF76  F029         	goto	u5710
  8969  0052E8                     u5711:
  8970  0052E8  EF7E  F029         	goto	l5243
  8971  0052EC                     u5710:
  8972  0052EC  EF27  F029         	goto	l5211
  8973  0052F0                     l5241:
  8974                           
  8975                           ; BSR set to: 0
  8976  0052F0  90D8               	bcf	status,0,c
  8977  0052F2  3799               	rlcf	___fltol@f1& (0+255),f,b
  8978  0052F4  379A               	rlcf	(___fltol@f1+1)& (0+255),f,b
  8979  0052F6  379B               	rlcf	(___fltol@f1+2)& (0+255),f,b
  8980  0052F8  379C               	rlcf	(___fltol@f1+3)& (0+255),f,b
  8981  0052FA  07A2               	decf	___fltol@exp1& (0+255),f,b
  8982  0052FC                     l5243:
  8983                           
  8984                           ; BSR set to: 0
  8985  0052FC  51A2               	movf	___fltol@exp1& (0+255),w,b
  8986  0052FE  A4D8               	btfss	status,2,c
  8987  005300  EF84  F029         	goto	u5721
  8988  005304  EF86  F029         	goto	u5720
  8989  005308                     u5721:
  8990  005308  EF78  F029         	goto	l5241
  8991  00530C                     u5720:
  8992  00530C                     l5245:
  8993                           
  8994                           ; BSR set to: 0
  8995  00530C  51A1               	movf	___fltol@sign1& (0+255),w,b
  8996  00530E  B4D8               	btfsc	status,2,c
  8997  005310  EF8C  F029         	goto	u5731
  8998  005314  EF8E  F029         	goto	u5730
  8999  005318                     u5731:
  9000  005318  EF96  F029         	goto	l5249
  9001  00531C                     u5730:
  9002  00531C                     
  9003                           ; BSR set to: 0
  9004  00531C  1F9C               	comf	(___fltol@f1+3)& (0+255),f,b
  9005  00531E  1F9B               	comf	(___fltol@f1+2)& (0+255),f,b
  9006  005320  1F9A               	comf	(___fltol@f1+1)& (0+255),f,b
  9007  005322  6D99               	negf	___fltol@f1& (0+255),b
  9008  005324  0E00               	movlw	0
  9009  005326  239A               	addwfc	(___fltol@f1+1)& (0+255),f,b
  9010  005328  239B               	addwfc	(___fltol@f1+2)& (0+255),f,b
  9011  00532A  239C               	addwfc	(___fltol@f1+3)& (0+255),f,b
  9012  00532C                     l5249:
  9013                           
  9014                           ; BSR set to: 0
  9015  00532C  C099  F099         	movff	___fltol@f1,?___fltol
  9016  005330  C09A  F09A         	movff	___fltol@f1+1,?___fltol+1
  9017  005334  C09B  F09B         	movff	___fltol@f1+2,?___fltol+2
  9018  005338  C09C  F09C         	movff	___fltol@f1+3,?___fltol+3
  9019  00533C                     l610:
  9020                           
  9021                           ; BSR set to: 0
  9022  00533C  0012               	return		;funcret
  9023  00533E                     __end_of___fltol:
  9024                           	opt callstack 0
  9025                           
  9026 ;; *************** function _initOsc *****************
  9027 ;; Defined at:
  9028 ;;		line 22 in file "initialization.c"
  9029 ;; Parameters:    Size  Location     Type
  9030 ;;		None
  9031 ;; Auto vars:     Size  Location     Type
  9032 ;;		None
  9033 ;; Return value:  Size  Location     Type
  9034 ;;                  1    wreg      void 
  9035 ;; Registers used:
  9036 ;;		wreg, status,2
  9037 ;; Tracked objects:
  9038 ;;		On entry : 0/0
  9039 ;;		On exit  : 0/0
  9040 ;;		Unchanged: 0/0
  9041 ;; Data sizes:     COMRAM   BANK0   BANK1   BANK2   BANK3   BANK4   BANK5   BANK6   BANK7   BANK8   BANK9  BANK10  BANK1
      +1  BANK12  BANK13  BANK14  BANK15
  9042 ;;      Params:         0       0       0       0       0       0       0       0       0       0       0       0       
      +0       0       0       0       0
  9043 ;;      Locals:         0       0       0       0       0       0       0       0       0       0       0       0       
      +0       0       0       0       0
  9044 ;;      Temps:          0       0       0       0       0       0       0       0       0       0       0       0       
      +0       0       0       0       0
  9045 ;;      Totals:         0       0       0       0       0       0       0       0       0       0       0       0       
      +0       0       0       0       0
  9046 ;;Total ram usage:        0 bytes
  9047 ;; Hardware stack levels used:    1
  9048 ;; Hardware stack levels required when called:    3
  9049 ;; This function calls:
  9050 ;;		Nothing
  9051 ;; This function is called by:
  9052 ;;		_main
  9053 ;; This function uses a non-reentrant model
  9054 ;;
  9055                           
  9056                           	psect	text20
  9057  00598C                     __ptext20:
  9058                           	opt callstack 0
  9059  00598C                     _initOsc:
  9060                           	opt callstack 27
  9061  00598C                     
  9062                           ;initialization.c: 23:     OSCCON = 0b01110000;
  9063  00598C  0E70               	movlw	112
  9064  00598E  6ED3               	movwf	211,c	;volatile
  9065  005990  0012               	return		;funcret
  9066  005992                     __end_of_initOsc:
  9067                           	opt callstack 0
  9068                           
  9069 ;; *************** function _initLED *****************
  9070 ;; Defined at:
  9071 ;;		line 11 in file "initialization.c"
  9072 ;; Parameters:    Size  Location     Type
  9073 ;;		None
  9074 ;; Auto vars:     Size  Location     Type
  9075 ;;		None
  9076 ;; Return value:  Size  Location     Type
  9077 ;;                  1    wreg      void 
  9078 ;; Registers used:
  9079 ;;		wreg, status,2
  9080 ;; Tracked objects:
  9081 ;;		On entry : 0/0
  9082 ;;		On exit  : 0/0
  9083 ;;		Unchanged: 0/0
  9084 ;; Data sizes:     COMRAM   BANK0   BANK1   BANK2   BANK3   BANK4   BANK5   BANK6   BANK7   BANK8   BANK9  BANK10  BANK1
      +1  BANK12  BANK13  BANK14  BANK15
  9085 ;;      Params:         0       0       0       0       0       0       0       0       0       0       0       0       
      +0       0       0       0       0
  9086 ;;      Locals:         0       0       0       0       0       0       0       0       0       0       0       0       
      +0       0       0       0       0
  9087 ;;      Temps:          0       0       0       0       0       0       0       0       0       0       0       0       
      +0       0       0       0       0
  9088 ;;      Totals:         0       0       0       0       0       0       0       0       0       0       0       0       
      +0       0       0       0       0
  9089 ;;Total ram usage:        0 bytes
  9090 ;; Hardware stack levels used:    1
  9091 ;; Hardware stack levels required when called:    3
  9092 ;; This function calls:
  9093 ;;		Nothing
  9094 ;; This function is called by:
  9095 ;;		_main
  9096 ;; This function uses a non-reentrant model
  9097 ;;
  9098                           
  9099                           	psect	text21
  9100  005978                     __ptext21:
  9101                           	opt callstack 0
  9102  005978                     _initLED:
  9103                           	opt callstack 27
  9104  005978                     
  9105                           ;initialization.c: 12:     LATD = 0x00;
  9106  005978  0E00               	movlw	0
  9107  00597A  6E8C               	movwf	140,c	;volatile
  9108                           
  9109                           ;initialization.c: 13:     TRISD = 0x00;
  9110  00597C  0E00               	movlw	0
  9111  00597E  6E95               	movwf	149,c	;volatile
  9112  005980  0012               	return		;funcret
  9113  005982                     __end_of_initLED:
  9114                           	opt callstack 0
  9115                           
  9116 ;; *************** function _initButton *****************
  9117 ;; Defined at:
  9118 ;;		line 16 in file "initialization.c"
  9119 ;; Parameters:    Size  Location     Type
  9120 ;;		None
  9121 ;; Auto vars:     Size  Location     Type
  9122 ;;		None
  9123 ;; Return value:  Size  Location     Type
  9124 ;;                  1    wreg      void 
  9125 ;; Registers used:
  9126 ;;		wreg, status,2
  9127 ;; Tracked objects:
  9128 ;;		On entry : 0/0
  9129 ;;		On exit  : 0/0
  9130 ;;		Unchanged: 0/0
  9131 ;; Data sizes:     COMRAM   BANK0   BANK1   BANK2   BANK3   BANK4   BANK5   BANK6   BANK7   BANK8   BANK9  BANK10  BANK1
      +1  BANK12  BANK13  BANK14  BANK15
  9132 ;;      Params:         0       0       0       0       0       0       0       0       0       0       0       0       
      +0       0       0       0       0
  9133 ;;      Locals:         0       0       0       0       0       0       0       0       0       0       0       0       
      +0       0       0       0       0
  9134 ;;      Temps:          0       0       0       0       0       0       0       0       0       0       0       0       
      +0       0       0       0       0
  9135 ;;      Totals:         0       0       0       0       0       0       0       0       0       0       0       0       
      +0       0       0       0       0
  9136 ;;Total ram usage:        0 bytes
  9137 ;; Hardware stack levels used:    1
  9138 ;; Hardware stack levels required when called:    3
  9139 ;; This function calls:
  9140 ;;		Nothing
  9141 ;; This function is called by:
  9142 ;;		_main
  9143 ;; This function uses a non-reentrant model
  9144 ;;
  9145                           
  9146                           	psect	text22
  9147  005982                     __ptext22:
  9148                           	opt callstack 0
  9149  005982                     _initButton:
  9150                           	opt callstack 27
  9151  005982                     
  9152                           ;initialization.c: 17:     TRISAbits.TRISA5 = 1;
  9153  005982  8A92               	bsf	146,5,c	;volatile
  9154                           
  9155                           ;initialization.c: 18:     TRISBbits.TRISB0 = 1;
  9156  005984  8093               	bsf	147,0,c	;volatile
  9157  005986                     
  9158                           ;initialization.c: 19:     ADCON1 = 0b00001111;
  9159  005986  0E0F               	movlw	15
  9160  005988  6EC1               	movwf	193,c	;volatile
  9161  00598A  0012               	return		;funcret
  9162  00598C                     __end_of_initButton:
  9163                           	opt callstack 0
  9164                           
  9165 ;; *************** function _init *****************
  9166 ;; Defined at:
  9167 ;;		line 5 in file "LEDControl.c"
  9168 ;; Parameters:    Size  Location     Type
  9169 ;;		None
  9170 ;; Auto vars:     Size  Location     Type
  9171 ;;		None
  9172 ;; Return value:  Size  Location     Type
  9173 ;;                  1    wreg      void 
  9174 ;; Registers used:
  9175 ;;		wreg, status,2, status,0
  9176 ;; Tracked objects:
  9177 ;;		On entry : 0/0
  9178 ;;		On exit  : 0/0
  9179 ;;		Unchanged: 0/0
  9180 ;; Data sizes:     COMRAM   BANK0   BANK1   BANK2   BANK3   BANK4   BANK5   BANK6   BANK7   BANK8   BANK9  BANK10  BANK1
      +1  BANK12  BANK13  BANK14  BANK15
  9181 ;;      Params:         0       0       0       0       0       0       0       0       0       0       0       0       
      +0       0       0       0       0
  9182 ;;      Locals:         0       0       0       0       0       0       0       0       0       0       0       0       
      +0       0       0       0       0
  9183 ;;      Temps:          0       0       0       0       0       0       0       0       0       0       0       0       
      +0       0       0       0       0
  9184 ;;      Totals:         0       0       0       0       0       0       0       0       0       0       0       0       
      +0       0       0       0       0
  9185 ;;Total ram usage:        0 bytes
  9186 ;; Hardware stack levels used:    1
  9187 ;; Hardware stack levels required when called:    3
  9188 ;; This function calls:
  9189 ;;		Nothing
  9190 ;; This function is called by:
  9191 ;;		_main
  9192 ;; This function uses a non-reentrant model
  9193 ;;
  9194                           
  9195                           	psect	text23
  9196  005584                     __ptext23:
  9197                           	opt callstack 0
  9198  005584                     _init:
  9199                           	opt callstack 27
  9200  005584                     
  9201                           ;LEDControl.c: 6:     countI = 0;
  9202  005584  0E00               	movlw	0
  9203  005586  6E5C               	movwf	(_countI+1)^0,c
  9204  005588  0E00               	movlw	0
  9205  00558A  6E5B               	movwf	_countI^0,c
  9206                           
  9207                           ;LEDControl.c: 7:     countD = 0;
  9208  00558C  0E00               	movlw	0
  9209  00558E  0100               	movlb	0	; () banked
  9210  005590  6FC0               	movwf	(_countD+1)& (0+255),b
  9211  005592  0E00               	movlw	0
  9212  005594  6FBF               	movwf	_countD& (0+255),b
  9213                           
  9214                           ;LEDControl.c: 8:     slowCount = 0;
  9215  005596  0E00               	movlw	0
  9216  005598  6FBE               	movwf	(_slowCount+1)& (0+255),b
  9217  00559A  0E00               	movlw	0
  9218  00559C  6FBD               	movwf	_slowCount& (0+255),b
  9219                           
  9220                           ;LEDControl.c: 9:     fastCount = 0;
  9221  00559E  0E00               	movlw	0
  9222  0055A0  6FBC               	movwf	(_fastCount+1)& (0+255),b
  9223  0055A2  0E00               	movlw	0
  9224  0055A4  6FBB               	movwf	_fastCount& (0+255),b
  9225  0055A6                     
  9226                           ; BSR set to: 0
  9227                           ;LEDControl.c: 10:     if (countI > 0) {
  9228  0055A6  BE5C               	btfsc	(_countI+1)^0,7,c
  9229  0055A8  EFDE  F02A         	goto	u4061
  9230  0055AC  505C               	movf	(_countI+1)^0,w,c
  9231  0055AE  E108               	bnz	u4060
  9232  0055B0  045B               	decf	_countI^0,w,c
  9233  0055B2  A0D8               	btfss	status,0,c
  9234  0055B4  EFDE  F02A         	goto	u4061
  9235  0055B8  EFE0  F02A         	goto	u4060
  9236  0055BC                     u4061:
  9237  0055BC  EFE5  F02A         	goto	l3905
  9238  0055C0                     u4060:
  9239  0055C0                     
  9240                           ; BSR set to: 0
  9241                           ;LEDControl.c: 11:         LATD++;
  9242  0055C0  2A8C               	incf	140,f,c	;volatile
  9243  0055C2                     
  9244                           ; BSR set to: 0
  9245                           ;LEDControl.c: 12:         state = NORMAL_INCREASE;
  9246  0055C2  0E01               	movlw	1
  9247  0055C4  6FC1               	movwf	_state& (0+255),b
  9248                           
  9249                           ;LEDControl.c: 13:     }
  9250  0055C6  EFFE  F02A         	goto	l272
  9251  0055CA                     l3905:
  9252                           
  9253                           ; BSR set to: 0
  9254  0055CA  BFC0               	btfsc	(_countD+1)& (0+255),7,b
  9255  0055CC  EFF0  F02A         	goto	u4071
  9256  0055D0  51C0               	movf	(_countD+1)& (0+255),w,b
  9257  0055D2  E108               	bnz	u4070
  9258  0055D4  05BF               	decf	_countD& (0+255),w,b
  9259  0055D6  A0D8               	btfss	status,0,c
  9260  0055D8  EFF0  F02A         	goto	u4071
  9261  0055DC  EFF2  F02A         	goto	u4070
  9262  0055E0                     u4071:
  9263  0055E0  EFFE  F02A         	goto	l272
  9264  0055E4                     u4070:
  9265  0055E4                     
  9266                           ; BSR set to: 0
  9267  0055E4  505B               	movf	_countI^0,w,c
  9268  0055E6  105C               	iorwf	(_countI+1)^0,w,c
  9269  0055E8  A4D8               	btfss	status,2,c
  9270  0055EA  EFF9  F02A         	goto	u4081
  9271  0055EE  EFFB  F02A         	goto	u4080
  9272  0055F2                     u4081:
  9273  0055F2  EFFE  F02A         	goto	l272
  9274  0055F6                     u4080:
  9275  0055F6                     
  9276                           ; BSR set to: 0
  9277                           ;LEDControl.c: 15:         LATD--;
  9278  0055F6  068C               	decf	140,f,c	;volatile
  9279  0055F8                     
  9280                           ; BSR set to: 0
  9281                           ;LEDControl.c: 16:         state = NORMAL_DECREASE;
  9282  0055F8  0E04               	movlw	4
  9283  0055FA  6FC1               	movwf	_state& (0+255),b
  9284  0055FC                     l272:
  9285                           
  9286                           ; BSR set to: 0
  9287  0055FC  0012               	return		;funcret
  9288  0055FE                     __end_of_init:
  9289                           	opt callstack 0
  9290                           
  9291 ;; *************** function _fastIncrease *****************
  9292 ;; Defined at:
  9293 ;;		line 42 in file "LEDControl.c"
  9294 ;; Parameters:    Size  Location     Type
  9295 ;;		None
  9296 ;; Auto vars:     Size  Location     Type
  9297 ;;		None
  9298 ;; Return value:  Size  Location     Type
  9299 ;;                  1    wreg      void 
  9300 ;; Registers used:
  9301 ;;		wreg, status,2, status,0
  9302 ;; Tracked objects:
  9303 ;;		On entry : 0/0
  9304 ;;		On exit  : 0/0
  9305 ;;		Unchanged: 0/0
  9306 ;; Data sizes:     COMRAM   BANK0   BANK1   BANK2   BANK3   BANK4   BANK5   BANK6   BANK7   BANK8   BANK9  BANK10  BANK1
      +1  BANK12  BANK13  BANK14  BANK15
  9307 ;;      Params:         0       0       0       0       0       0       0       0       0       0       0       0       
      +0       0       0       0       0
  9308 ;;      Locals:         0       0       0       0       0       0       0       0       0       0       0       0       
      +0       0       0       0       0
  9309 ;;      Temps:          0       0       0       0       0       0       0       0       0       0       0       0       
      +0       0       0       0       0
  9310 ;;      Totals:         0       0       0       0       0       0       0       0       0       0       0       0       
      +0       0       0       0       0
  9311 ;;Total ram usage:        0 bytes
  9312 ;; Hardware stack levels used:    1
  9313 ;; Hardware stack levels required when called:    3
  9314 ;; This function calls:
  9315 ;;		Nothing
  9316 ;; This function is called by:
  9317 ;;		_main
  9318 ;; This function uses a non-reentrant model
  9319 ;;
  9320                           
  9321                           	psect	text24
  9322  00577A                     __ptext24:
  9323                           	opt callstack 0
  9324  00577A                     _fastIncrease:
  9325                           	opt callstack 27
  9326  00577A                     
  9327                           ;LEDControl.c: 43:     if (countI == 0) {
  9328  00577A  505B               	movf	_countI^0,w,c
  9329  00577C  105C               	iorwf	(_countI+1)^0,w,c
  9330  00577E  A4D8               	btfss	status,2,c
  9331  005780  EFC4  F02B         	goto	u4141
  9332  005784  EFC6  F02B         	goto	u4140
  9333  005788                     u4141:
  9334  005788  EFC9  F02B         	goto	l3939
  9335  00578C                     u4140:
  9336  00578C                     
  9337                           ;LEDControl.c: 44:         state = INIT;
  9338  00578C  0E00               	movlw	0
  9339  00578E  0100               	movlb	0	; () banked
  9340  005790  6FC1               	movwf	_state& (0+255),b
  9341  005792                     l3939:
  9342                           
  9343                           ;LEDControl.c: 46:     if (fastCount > 100/20) {
  9344  005792  0100               	movlb	0	; () banked
  9345  005794  BFBC               	btfsc	(_fastCount+1)& (0+255),7,b
  9346  005796  EFD6  F02B         	goto	u4151
  9347  00579A  51BC               	movf	(_fastCount+1)& (0+255),w,b
  9348  00579C  E109               	bnz	u4150
  9349  00579E  0E06               	movlw	6
  9350  0057A0  5DBB               	subwf	_fastCount& (0+255),w,b
  9351  0057A2  A0D8               	btfss	status,0,c
  9352  0057A4  EFD6  F02B         	goto	u4151
  9353  0057A8  EFD8  F02B         	goto	u4150
  9354  0057AC                     u4151:
  9355  0057AC  EFDD  F02B         	goto	l288
  9356  0057B0                     u4150:
  9357  0057B0                     
  9358                           ; BSR set to: 0
  9359                           ;LEDControl.c: 47:         LATD++;
  9360  0057B0  2A8C               	incf	140,f,c	;volatile
  9361  0057B2                     
  9362                           ; BSR set to: 0
  9363                           ;LEDControl.c: 48:         fastCount = 0;
  9364  0057B2  0E00               	movlw	0
  9365  0057B4  6FBC               	movwf	(_fastCount+1)& (0+255),b
  9366  0057B6  0E00               	movlw	0
  9367  0057B8  6FBB               	movwf	_fastCount& (0+255),b
  9368  0057BA                     l288:
  9369                           
  9370                           ; BSR set to: 0
  9371  0057BA  0012               	return		;funcret
  9372  0057BC                     __end_of_fastIncrease:
  9373                           	opt callstack 0
  9374                           
  9375 ;; *************** function _fastDecrease *****************
  9376 ;; Defined at:
  9377 ;;		line 74 in file "LEDControl.c"
  9378 ;; Parameters:    Size  Location     Type
  9379 ;;		None
  9380 ;; Auto vars:     Size  Location     Type
  9381 ;;		None
  9382 ;; Return value:  Size  Location     Type
  9383 ;;                  1    wreg      void 
  9384 ;; Registers used:
  9385 ;;		wreg, status,2, status,0
  9386 ;; Tracked objects:
  9387 ;;		On entry : 0/0
  9388 ;;		On exit  : 0/0
  9389 ;;		Unchanged: 0/0
  9390 ;; Data sizes:     COMRAM   BANK0   BANK1   BANK2   BANK3   BANK4   BANK5   BANK6   BANK7   BANK8   BANK9  BANK10  BANK1
      +1  BANK12  BANK13  BANK14  BANK15
  9391 ;;      Params:         0       0       0       0       0       0       0       0       0       0       0       0       
      +0       0       0       0       0
  9392 ;;      Locals:         0       0       0       0       0       0       0       0       0       0       0       0       
      +0       0       0       0       0
  9393 ;;      Temps:          0       0       0       0       0       0       0       0       0       0       0       0       
      +0       0       0       0       0
  9394 ;;      Totals:         0       0       0       0       0       0       0       0       0       0       0       0       
      +0       0       0       0       0
  9395 ;;Total ram usage:        0 bytes
  9396 ;; Hardware stack levels used:    1
  9397 ;; Hardware stack levels required when called:    3
  9398 ;; This function calls:
  9399 ;;		Nothing
  9400 ;; This function is called by:
  9401 ;;		_main
  9402 ;; This function uses a non-reentrant model
  9403 ;;
  9404                           
  9405                           	psect	text25
  9406  0055FE                     __ptext25:
  9407                           	opt callstack 0
  9408  0055FE                     _fastDecrease:
  9409                           	opt callstack 27
  9410  0055FE                     
  9411                           ;LEDControl.c: 75:     if (countD == 0 || countI > 0)
  9412  0055FE  0100               	movlb	0	; () banked
  9413  005600  51BF               	movf	_countD& (0+255),w,b
  9414  005602  11C0               	iorwf	(_countD+1)& (0+255),w,b
  9415  005604  B4D8               	btfsc	status,2,c
  9416  005606  EF07  F02B         	goto	u4261
  9417  00560A  EF09  F02B         	goto	u4260
  9418  00560E                     u4261:
  9419  00560E  EF16  F02B         	goto	l3981
  9420  005612                     u4260:
  9421  005612                     
  9422                           ; BSR set to: 0
  9423  005612  BE5C               	btfsc	(_countI+1)^0,7,c
  9424  005614  EF14  F02B         	goto	u4271
  9425  005618  505C               	movf	(_countI+1)^0,w,c
  9426  00561A  E108               	bnz	u4270
  9427  00561C  045B               	decf	_countI^0,w,c
  9428  00561E  A0D8               	btfss	status,0,c
  9429  005620  EF14  F02B         	goto	u4271
  9430  005624  EF16  F02B         	goto	u4270
  9431  005628                     u4271:
  9432  005628  EF18  F02B         	goto	l3983
  9433  00562C                     u4270:
  9434  00562C                     l3981:
  9435                           
  9436                           ; BSR set to: 0
  9437                           ;LEDControl.c: 76:         state = INIT;
  9438  00562C  0E00               	movlw	0
  9439  00562E  6FC1               	movwf	_state& (0+255),b
  9440  005630                     l3983:
  9441                           
  9442                           ; BSR set to: 0
  9443                           ;LEDControl.c: 77:     if (fastCount > 100/20 && countI == 0) {
  9444  005630  BFBC               	btfsc	(_fastCount+1)& (0+255),7,b
  9445  005632  EF24  F02B         	goto	u4281
  9446  005636  51BC               	movf	(_fastCount+1)& (0+255),w,b
  9447  005638  E109               	bnz	u4280
  9448  00563A  0E06               	movlw	6
  9449  00563C  5DBB               	subwf	_fastCount& (0+255),w,b
  9450  00563E  A0D8               	btfss	status,0,c
  9451  005640  EF24  F02B         	goto	u4281
  9452  005644  EF26  F02B         	goto	u4280
  9453  005648                     u4281:
  9454  005648  EF34  F02B         	goto	l310
  9455  00564C                     u4280:
  9456  00564C                     
  9457                           ; BSR set to: 0
  9458  00564C  505B               	movf	_countI^0,w,c
  9459  00564E  105C               	iorwf	(_countI+1)^0,w,c
  9460  005650  A4D8               	btfss	status,2,c
  9461  005652  EF2D  F02B         	goto	u4291
  9462  005656  EF2F  F02B         	goto	u4290
  9463  00565A                     u4291:
  9464  00565A  EF34  F02B         	goto	l310
  9465  00565E                     u4290:
  9466  00565E                     
  9467                           ; BSR set to: 0
  9468                           ;LEDControl.c: 78:         LATD--;
  9469  00565E  068C               	decf	140,f,c	;volatile
  9470  005660                     
  9471                           ; BSR set to: 0
  9472                           ;LEDControl.c: 79:         fastCount = 0;
  9473  005660  0E00               	movlw	0
  9474  005662  6FBC               	movwf	(_fastCount+1)& (0+255),b
  9475  005664  0E00               	movlw	0
  9476  005666  6FBB               	movwf	_fastCount& (0+255),b
  9477  005668                     l310:
  9478                           
  9479                           ; BSR set to: 0
  9480  005668  0012               	return		;funcret
  9481  00566A                     __end_of_fastDecrease:
  9482                           	opt callstack 0
  9483                           
  9484 ;; *************** function _ITR *****************
  9485 ;; Defined at:
  9486 ;;		line 4 in file "interruptTmr.c"
  9487 ;; Parameters:    Size  Location     Type
  9488 ;;		None
  9489 ;; Auto vars:     Size  Location     Type
  9490 ;;		None
  9491 ;; Return value:  Size  Location     Type
  9492 ;;                  1    wreg      void 
  9493 ;; Registers used:
  9494 ;;		wreg, status,2, status,0, cstack
  9495 ;; Tracked objects:
  9496 ;;		On entry : 0/0
  9497 ;;		On exit  : 0/0
  9498 ;;		Unchanged: 0/0
  9499 ;; Data sizes:     COMRAM   BANK0   BANK1   BANK2   BANK3   BANK4   BANK5   BANK6   BANK7   BANK8   BANK9  BANK10  BANK1
      +1  BANK12  BANK13  BANK14  BANK15
  9500 ;;      Params:         0       0       0       0       0       0       0       0       0       0       0       0       
      +0       0       0       0       0
  9501 ;;      Locals:         0       0       0       0       0       0       0       0       0       0       0       0       
      +0       0       0       0       0
  9502 ;;      Temps:          0       0       0       0       0       0       0       0       0       0       0       0       
      +0       0       0       0       0
  9503 ;;      Totals:         0       0       0       0       0       0       0       0       0       0       0       0       
      +0       0       0       0       0
  9504 ;;Total ram usage:        0 bytes
  9505 ;; Hardware stack levels used:    1
  9506 ;; Hardware stack levels required when called:    2
  9507 ;; This function calls:
  9508 ;;		_button
  9509 ;; This function is called by:
  9510 ;;		Interrupt level 2
  9511 ;; This function uses a non-reentrant model
  9512 ;;
  9513                           
  9514                           	psect	intcode
  9515  000008                     __pintcode:
  9516                           	opt callstack 0
  9517  000008                     _ITR:
  9518                           	opt callstack 23
  9519                           
  9520                           ; BSR set to: 0
  9521                           ;incstack = 0
  9522  000008  825D               	bsf	int$flags,1,c	;set compiler interrupt flag (level 2)
  9523  00000A  EDA0  F02C         	call	int_func,f	;refresh shadow registers
  9524                           
  9525                           	psect	intcode_body
  9526  005940                     __pintcode_body:
  9527                           	opt callstack 23
  9528  005940                     int_func:
  9529                           	opt callstack 23
  9530  005940  0006               	pop		; remove dummy address from shadow register refresh
  9531  005942                     
  9532                           ;interruptTmr.c: 5:     if (INTCONbits.TMR0IF) {
  9533  005942  A4F2               	btfss	242,2,c	;volatile
  9534  005944  EFA6  F02C         	goto	i2u438_41
  9535  005948  EFA8  F02C         	goto	i2u438_40
  9536  00594C                     i2u438_41:
  9537  00594C  EFAF  F02C         	goto	i2l192
  9538  005950                     i2u438_40:
  9539  005950                     
  9540                           ;interruptTmr.c: 6:         INTCONbits.TMR0IF = 0;
  9541  005950  94F2               	bcf	242,2,c	;volatile
  9542                           
  9543                           ;interruptTmr.c: 7:         TMR0 = timerCounter;
  9544  005952  C0C6  FFD6         	movff	_timerCounter,4054	;volatile
  9545  005956  C0C7  FFD7         	movff	_timerCounter+1,4055	;volatile
  9546  00595A                     
  9547                           ;interruptTmr.c: 8:         button();
  9548  00595A  EC91  F028         	call	_button	;wreg free
  9549  00595E                     i2l192:
  9550  00595E  925D               	bcf	int$flags,1,c	;clear compiler interrupt flag (level 2)
  9551  005960  0011               	retfie		f
  9552  005962                     __end_of_ITR:
  9553                           	opt callstack 0
  9554                           
  9555 ;; *************** function _button *****************
  9556 ;; Defined at:
  9557 ;;		line 3 in file "buttonProcess.c"
  9558 ;; Parameters:    Size  Location     Type
  9559 ;;		None
  9560 ;; Auto vars:     Size  Location     Type
  9561 ;;  checkD          1    1[COMRAM] unsigned char 
  9562 ;;  checkI          1    0[COMRAM] unsigned char 
  9563 ;; Return value:  Size  Location     Type
  9564 ;;                  1    wreg      void 
  9565 ;; Registers used:
  9566 ;;		wreg, status,2, status,0, cstack
  9567 ;; Tracked objects:
  9568 ;;		On entry : 0/0
  9569 ;;		On exit  : 0/0
  9570 ;;		Unchanged: 0/0
  9571 ;; Data sizes:     COMRAM   BANK0   BANK1   BANK2   BANK3   BANK4   BANK5   BANK6   BANK7   BANK8   BANK9  BANK10  BANK1
      +1  BANK12  BANK13  BANK14  BANK15
  9572 ;;      Params:         0       0       0       0       0       0       0       0       0       0       0       0       
      +0       0       0       0       0
  9573 ;;      Locals:         2       0       0       0       0       0       0       0       0       0       0       0       
      +0       0       0       0       0
  9574 ;;      Temps:          0       0       0       0       0       0       0       0       0       0       0       0       
      +0       0       0       0       0
  9575 ;;      Totals:         2       0       0       0       0       0       0       0       0       0       0       0       
      +0       0       0       0       0
  9576 ;;Total ram usage:        2 bytes
  9577 ;; Hardware stack levels used:    1
  9578 ;; Hardware stack levels required when called:    1
  9579 ;; This function calls:
  9580 ;;		_readButtonD
  9581 ;;		_readButtonI
  9582 ;; This function is called by:
  9583 ;;		_ITR
  9584 ;; This function uses a non-reentrant model
  9585 ;;
  9586                           
  9587                           	psect	text27
  9588  005122                     __ptext27:
  9589                           	opt callstack 0
  9590  005122                     _button:
  9591                           	opt callstack 23
  9592  005122                     
  9593                           ;buttonProcess.c: 4:     char checkI = readButtonI();
  9594  005122  ECDE  F02B         	call	_readButtonI	;wreg free
  9595  005126  6E01               	movwf	button@checkI^0,c
  9596                           
  9597                           ;buttonProcess.c: 5:     char checkD = readButtonD();
  9598  005128  ECFE  F02B         	call	_readButtonD	;wreg free
  9599  00512C  6E02               	movwf	button@checkD^0,c
  9600  00512E                     
  9601                           ;buttonProcess.c: 6:     if (checkI == 2) {
  9602  00512E  0E02               	movlw	2
  9603  005130  1801               	xorwf	button@checkI^0,w,c
  9604  005132  A4D8               	btfss	status,2,c
  9605  005134  EF9E  F028         	goto	i2u430_41
  9606  005138  EFA0  F028         	goto	i2u430_40
  9607  00513C                     i2u430_41:
  9608  00513C  EFC9  F028         	goto	i2l4007
  9609  005140                     i2u430_40:
  9610  005140                     
  9611                           ;buttonProcess.c: 7:         countD = 0;
  9612  005140  0E00               	movlw	0
  9613  005142  0100               	movlb	0	; () banked
  9614  005144  6FC0               	movwf	(_countD+1)& (0+255),b
  9615  005146  0E00               	movlw	0
  9616  005148  6FBF               	movwf	_countD& (0+255),b
  9617  00514A                     
  9618                           ; BSR set to: 0
  9619                           ;buttonProcess.c: 8:         countI++;
  9620  00514A  4A5B               	infsnz	_countI^0,f,c
  9621  00514C  2A5C               	incf	(_countI+1)^0,f,c
  9622  00514E                     
  9623                           ; BSR set to: 0
  9624                           ;buttonProcess.c: 9:         if (countI > 1000/20)
  9625  00514E  BE5C               	btfsc	(_countI+1)^0,7,c
  9626  005150  EFB3  F028         	goto	i2u431_41
  9627  005154  505C               	movf	(_countI+1)^0,w,c
  9628  005156  E109               	bnz	i2u431_40
  9629  005158  0E33               	movlw	51
  9630  00515A  5C5B               	subwf	_countI^0,w,c
  9631  00515C  A0D8               	btfss	status,0,c
  9632  00515E  EFB3  F028         	goto	i2u431_41
  9633  005162  EFB5  F028         	goto	i2u431_40
  9634  005166                     i2u431_41:
  9635  005166  EFB7  F028         	goto	i2l4003
  9636  00516A                     i2u431_40:
  9637  00516A                     
  9638                           ; BSR set to: 0
  9639                           ;buttonProcess.c: 10:             slowCount++;
  9640  00516A  4BBD               	infsnz	_slowCount& (0+255),f,b
  9641  00516C  2BBE               	incf	(_slowCount+1)& (0+255),f,b
  9642  00516E                     i2l4003:
  9643                           
  9644                           ; BSR set to: 0
  9645                           ;buttonProcess.c: 11:         if (countI > 3000/20)
  9646  00516E  BE5C               	btfsc	(_countI+1)^0,7,c
  9647  005170  EFC3  F028         	goto	i2u432_41
  9648  005174  505C               	movf	(_countI+1)^0,w,c
  9649  005176  E109               	bnz	i2u432_40
  9650  005178  0E97               	movlw	151
  9651  00517A  5C5B               	subwf	_countI^0,w,c
  9652  00517C  A0D8               	btfss	status,0,c
  9653  00517E  EFC3  F028         	goto	i2u432_41
  9654  005182  EFC5  F028         	goto	i2u432_40
  9655  005186                     i2u432_41:
  9656  005186  EF1A  F029         	goto	i2l160
  9657  00518A                     i2u432_40:
  9658  00518A                     i2l4005:
  9659                           
  9660                           ; BSR set to: 0
  9661                           ;buttonProcess.c: 12:             fastCount++;
  9662  00518A  4BBB               	infsnz	_fastCount& (0+255),f,b
  9663  00518C  2BBC               	incf	(_fastCount+1)& (0+255),f,b
  9664  00518E  EF1A  F029         	goto	i2l160
  9665  005192                     i2l4007:
  9666  005192  0E02               	movlw	2
  9667  005194  1802               	xorwf	button@checkD^0,w,c
  9668  005196  A4D8               	btfss	status,2,c
  9669  005198  EFD0  F028         	goto	i2u433_41
  9670  00519C  EFD2  F028         	goto	i2u433_40
  9671  0051A0                     i2u433_41:
  9672  0051A0  EFF9  F028         	goto	i2l4021
  9673  0051A4                     i2u433_40:
  9674  0051A4                     
  9675                           ;buttonProcess.c: 15:         countI = 0;
  9676  0051A4  0E00               	movlw	0
  9677  0051A6  6E5C               	movwf	(_countI+1)^0,c
  9678  0051A8  0E00               	movlw	0
  9679  0051AA  6E5B               	movwf	_countI^0,c
  9680  0051AC                     
  9681                           ;buttonProcess.c: 16:         countD++;
  9682  0051AC  0100               	movlb	0	; () banked
  9683  0051AE  4BBF               	infsnz	_countD& (0+255),f,b
  9684  0051B0  2BC0               	incf	(_countD+1)& (0+255),f,b
  9685  0051B2                     
  9686                           ; BSR set to: 0
  9687                           ;buttonProcess.c: 17:         if (countD > 1000/20)
  9688  0051B2  BFC0               	btfsc	(_countD+1)& (0+255),7,b
  9689  0051B4  EFE5  F028         	goto	i2u434_41
  9690  0051B8  51C0               	movf	(_countD+1)& (0+255),w,b
  9691  0051BA  E109               	bnz	i2u434_40
  9692  0051BC  0E33               	movlw	51
  9693  0051BE  5DBF               	subwf	_countD& (0+255),w,b
  9694  0051C0  A0D8               	btfss	status,0,c
  9695  0051C2  EFE5  F028         	goto	i2u434_41
  9696  0051C6  EFE7  F028         	goto	i2u434_40
  9697  0051CA                     i2u434_41:
  9698  0051CA  EFE9  F028         	goto	i2l4017
  9699  0051CE                     i2u434_40:
  9700  0051CE                     
  9701                           ; BSR set to: 0
  9702                           ;buttonProcess.c: 18:             slowCount++;
  9703  0051CE  4BBD               	infsnz	_slowCount& (0+255),f,b
  9704  0051D0  2BBE               	incf	(_slowCount+1)& (0+255),f,b
  9705  0051D2                     i2l4017:
  9706                           
  9707                           ; BSR set to: 0
  9708                           ;buttonProcess.c: 19:         if (countD > 3000/20)
  9709  0051D2  BFC0               	btfsc	(_countD+1)& (0+255),7,b
  9710  0051D4  EFF5  F028         	goto	i2u435_41
  9711  0051D8  51C0               	movf	(_countD+1)& (0+255),w,b
  9712  0051DA  E109               	bnz	i2u435_40
  9713  0051DC  0E97               	movlw	151
  9714  0051DE  5DBF               	subwf	_countD& (0+255),w,b
  9715  0051E0  A0D8               	btfss	status,0,c
  9716  0051E2  EFF5  F028         	goto	i2u435_41
  9717  0051E6  EFF7  F028         	goto	i2u435_40
  9718  0051EA                     i2u435_41:
  9719  0051EA  EF1A  F029         	goto	i2l160
  9720  0051EE                     i2u435_40:
  9721  0051EE  EFC5  F028         	goto	i2l4005
  9722  0051F2                     i2l4021:
  9723  0051F2  0401               	decf	button@checkI^0,w,c
  9724  0051F4  B4D8               	btfsc	status,2,c
  9725  0051F6  EFFF  F028         	goto	i2u436_41
  9726  0051FA  EF01  F029         	goto	i2u436_40
  9727  0051FE                     i2u436_41:
  9728  0051FE  EF09  F029         	goto	i2l4025
  9729  005202                     i2u436_40:
  9730  005202  0402               	decf	button@checkD^0,w,c
  9731  005204  A4D8               	btfss	status,2,c
  9732  005206  EF07  F029         	goto	i2u437_41
  9733  00520A  EF09  F029         	goto	i2u437_40
  9734  00520E                     i2u437_41:
  9735  00520E  EF1A  F029         	goto	i2l160
  9736  005212                     i2u437_40:
  9737  005212                     i2l4025:
  9738                           
  9739                           ;buttonProcess.c: 23:         countI = 0;
  9740  005212  0E00               	movlw	0
  9741  005214  6E5C               	movwf	(_countI+1)^0,c
  9742  005216  0E00               	movlw	0
  9743  005218  6E5B               	movwf	_countI^0,c
  9744                           
  9745                           ;buttonProcess.c: 24:         countD = 0;
  9746  00521A  0E00               	movlw	0
  9747  00521C  0100               	movlb	0	; () banked
  9748  00521E  6FC0               	movwf	(_countD+1)& (0+255),b
  9749  005220  0E00               	movlw	0
  9750  005222  6FBF               	movwf	_countD& (0+255),b
  9751                           
  9752                           ;buttonProcess.c: 25:         slowCount = 0;
  9753  005224  0E00               	movlw	0
  9754  005226  6FBE               	movwf	(_slowCount+1)& (0+255),b
  9755  005228  0E00               	movlw	0
  9756  00522A  6FBD               	movwf	_slowCount& (0+255),b
  9757                           
  9758                           ;buttonProcess.c: 26:         fastCount = 0;
  9759  00522C  0E00               	movlw	0
  9760  00522E  6FBC               	movwf	(_fastCount+1)& (0+255),b
  9761  005230  0E00               	movlw	0
  9762  005232  6FBB               	movwf	_fastCount& (0+255),b
  9763  005234                     i2l160:
  9764  005234  0012               	return		;funcret
  9765  005236                     __end_of_button:
  9766                           	opt callstack 0
  9767                           
  9768 ;; *************** function _readButtonI *****************
  9769 ;; Defined at:
  9770 ;;		line 17 in file "readButton.c"
  9771 ;; Parameters:    Size  Location     Type
  9772 ;;		None
  9773 ;; Auto vars:     Size  Location     Type
  9774 ;;		None
  9775 ;; Return value:  Size  Location     Type
  9776 ;;                  1    wreg      unsigned char 
  9777 ;; Registers used:
  9778 ;;		wreg, status,2, status,0
  9779 ;; Tracked objects:
  9780 ;;		On entry : 0/0
  9781 ;;		On exit  : 0/0
  9782 ;;		Unchanged: 0/0
  9783 ;; Data sizes:     COMRAM   BANK0   BANK1   BANK2   BANK3   BANK4   BANK5   BANK6   BANK7   BANK8   BANK9  BANK10  BANK1
      +1  BANK12  BANK13  BANK14  BANK15
  9784 ;;      Params:         0       0       0       0       0       0       0       0       0       0       0       0       
      +0       0       0       0       0
  9785 ;;      Locals:         0       0       0       0       0       0       0       0       0       0       0       0       
      +0       0       0       0       0
  9786 ;;      Temps:          0       0       0       0       0       0       0       0       0       0       0       0       
      +0       0       0       0       0
  9787 ;;      Totals:         0       0       0       0       0       0       0       0       0       0       0       0       
      +0       0       0       0       0
  9788 ;;Total ram usage:        0 bytes
  9789 ;; Hardware stack levels used:    1
  9790 ;; This function calls:
  9791 ;;		Nothing
  9792 ;; This function is called by:
  9793 ;;		_button
  9794 ;; This function uses a non-reentrant model
  9795 ;;
  9796                           
  9797                           	psect	text28
  9798  0057BC                     __ptext28:
  9799                           	opt callstack 0
  9800  0057BC                     _readButtonI:
  9801                           	opt callstack 23
  9802  0057BC                     
  9803                           ;readButton.c: 18:     firstReadRA5 = secondReadRA5;
  9804  0057BC  C0C4  F0C5         	movff	_secondReadRA5,_firstReadRA5
  9805  0057C0                     
  9806                           ;readButton.c: 19:     secondReadRA5 = PORTAbits.RA5;
  9807  0057C0  0E00               	movlw	0
  9808  0057C2  BA80               	btfsc	128,5,c	;volatile
  9809  0057C4  0E01               	movlw	1
  9810  0057C6  0100               	movlb	0	; () banked
  9811  0057C8  6FC4               	movwf	_secondReadRA5& (0+255),b
  9812  0057CA                     
  9813                           ; BSR set to: 0
  9814                           ;readButton.c: 20:     if(secondReadRA5 == firstReadRA5) {
  9815  0057CA  51C5               	movf	_firstReadRA5& (0+255),w,b
  9816  0057CC  19C4               	xorwf	_secondReadRA5& (0+255),w,b
  9817  0057CE  A4D8               	btfss	status,2,c
  9818  0057D0  EFEC  F02B         	goto	i2u404_41
  9819  0057D4  EFEE  F02B         	goto	i2u404_40
  9820  0057D8                     i2u404_41:
  9821  0057D8  EFFC  F02B         	goto	i2l3875
  9822  0057DC                     i2u404_40:
  9823  0057DC                     
  9824                           ; BSR set to: 0
  9825                           ;readButton.c: 21:         if (secondReadRA5 == 0)
  9826  0057DC  51C4               	movf	_secondReadRA5& (0+255),w,b
  9827  0057DE  A4D8               	btfss	status,2,c
  9828  0057E0  EFF4  F02B         	goto	i2u405_41
  9829  0057E4  EFF6  F02B         	goto	i2u405_40
  9830  0057E8                     i2u405_41:
  9831  0057E8  EFF9  F02B         	goto	i2l3871
  9832  0057EC                     i2u405_40:
  9833  0057EC                     
  9834                           ; BSR set to: 0
  9835                           ;readButton.c: 22:             return 2;
  9836  0057EC  0E02               	movlw	2
  9837  0057EE  EFFD  F02B         	goto	i2l121
  9838  0057F2                     i2l3871:
  9839                           
  9840                           ; BSR set to: 0
  9841                           ;readButton.c: 24:             return 1;
  9842  0057F2  0E01               	movlw	1
  9843  0057F4  EFFD  F02B         	goto	i2l121
  9844  0057F8                     i2l3875:
  9845                           
  9846                           ; BSR set to: 0
  9847                           ;readButton.c: 26:     return 0;
  9848  0057F8  0E00               	movlw	0
  9849  0057FA                     i2l121:
  9850                           
  9851                           ; BSR set to: 0
  9852  0057FA  0012               	return		;funcret
  9853  0057FC                     __end_of_readButtonI:
  9854                           	opt callstack 0
  9855                           
  9856 ;; *************** function _readButtonD *****************
  9857 ;; Defined at:
  9858 ;;		line 4 in file "readButton.c"
  9859 ;; Parameters:    Size  Location     Type
  9860 ;;		None
  9861 ;; Auto vars:     Size  Location     Type
  9862 ;;		None
  9863 ;; Return value:  Size  Location     Type
  9864 ;;                  1    wreg      unsigned char 
  9865 ;; Registers used:
  9866 ;;		wreg, status,2, status,0
  9867 ;; Tracked objects:
  9868 ;;		On entry : 0/0
  9869 ;;		On exit  : 0/0
  9870 ;;		Unchanged: 0/0
  9871 ;; Data sizes:     COMRAM   BANK0   BANK1   BANK2   BANK3   BANK4   BANK5   BANK6   BANK7   BANK8   BANK9  BANK10  BANK1
      +1  BANK12  BANK13  BANK14  BANK15
  9872 ;;      Params:         0       0       0       0       0       0       0       0       0       0       0       0       
      +0       0       0       0       0
  9873 ;;      Locals:         0       0       0       0       0       0       0       0       0       0       0       0       
      +0       0       0       0       0
  9874 ;;      Temps:          0       0       0       0       0       0       0       0       0       0       0       0       
      +0       0       0       0       0
  9875 ;;      Totals:         0       0       0       0       0       0       0       0       0       0       0       0       
      +0       0       0       0       0
  9876 ;;Total ram usage:        0 bytes
  9877 ;; Hardware stack levels used:    1
  9878 ;; This function calls:
  9879 ;;		Nothing
  9880 ;; This function is called by:
  9881 ;;		_button
  9882 ;; This function uses a non-reentrant model
  9883 ;;
  9884                           
  9885                           	psect	text29
  9886  0057FC                     __ptext29:
  9887                           	opt callstack 0
  9888  0057FC                     _readButtonD:
  9889                           	opt callstack 23
  9890  0057FC                     
  9891                           ;readButton.c: 5:     firstReadRB0 = secondReadRB0;
  9892  0057FC  C0C2  F0C3         	movff	_secondReadRB0,_firstReadRB0
  9893  005800                     
  9894                           ;readButton.c: 6:     secondReadRB0 = PORTBbits.RB0;
  9895  005800  0E00               	movlw	0
  9896  005802  B081               	btfsc	129,0,c	;volatile
  9897  005804  0E01               	movlw	1
  9898  005806  0100               	movlb	0	; () banked
  9899  005808  6FC2               	movwf	_secondReadRB0& (0+255),b
  9900  00580A                     
  9901                           ; BSR set to: 0
  9902                           ;readButton.c: 7:     if(secondReadRB0 == firstReadRB0) {
  9903  00580A  51C3               	movf	_firstReadRB0& (0+255),w,b
  9904  00580C  19C2               	xorwf	_secondReadRB0& (0+255),w,b
  9905  00580E  A4D8               	btfss	status,2,c
  9906  005810  EF0C  F02C         	goto	i2u402_41
  9907  005814  EF0E  F02C         	goto	i2u402_40
  9908  005818                     i2u402_41:
  9909  005818  EF1C  F02C         	goto	i2l3853
  9910  00581C                     i2u402_40:
  9911  00581C                     
  9912                           ; BSR set to: 0
  9913                           ;readButton.c: 8:         if (secondReadRB0 == 0)
  9914  00581C  51C2               	movf	_secondReadRB0& (0+255),w,b
  9915  00581E  A4D8               	btfss	status,2,c
  9916  005820  EF14  F02C         	goto	i2u403_41
  9917  005824  EF16  F02C         	goto	i2u403_40
  9918  005828                     i2u403_41:
  9919  005828  EF19  F02C         	goto	i2l3849
  9920  00582C                     i2u403_40:
  9921  00582C                     
  9922                           ; BSR set to: 0
  9923                           ;readButton.c: 9:             return 2;
  9924  00582C  0E02               	movlw	2
  9925  00582E  EF1D  F02C         	goto	i2l115
  9926  005832                     i2l3849:
  9927                           
  9928                           ; BSR set to: 0
  9929                           ;readButton.c: 11:             return 1;
  9930  005832  0E01               	movlw	1
  9931  005834  EF1D  F02C         	goto	i2l115
  9932  005838                     i2l3853:
  9933                           
  9934                           ; BSR set to: 0
  9935                           ;readButton.c: 13:     return 0;
  9936  005838  0E00               	movlw	0
  9937  00583A                     i2l115:
  9938                           
  9939                           ; BSR set to: 0
  9940  00583A  0012               	return		;funcret
  9941  00583C                     __end_of_readButtonD:
  9942                           	opt callstack 0
  9943                           
  9944                           	psect	rparam
  9945  0000                     
  9946                           	psect	temp
  9947  00005D                     btemp:
  9948                           	opt callstack 0
  9949  00005D                     	ds	1
  9950  0000                     int$flags	set	btemp
  9951  0000                     wtemp8	set	btemp+1
  9952  0000                     ttemp5	set	btemp+1
  9953  0000                     ttemp6	set	btemp+4
  9954  0000                     ttemp7	set	btemp+8
  9955                           tosu	equ	0xFFF
  9956                           tosh	equ	0xFFE
  9957                           tosl	equ	0xFFD
  9958                           stkptr	equ	0xFFC
  9959                           pclatu	equ	0xFFB
  9960                           pclath	equ	0xFFA
  9961                           pcl	equ	0xFF9
  9962                           tblptru	equ	0xFF8
  9963                           tblptrh	equ	0xFF7
  9964                           tblptrl	equ	0xFF6
  9965                           tablat	equ	0xFF5
  9966                           prodh	equ	0xFF4
  9967                           prodl	equ	0xFF3
  9968                           indf0	equ	0xFEF
  9969                           postinc0	equ	0xFEE
  9970                           postdec0	equ	0xFED
  9971                           preinc0	equ	0xFEC
  9972                           plusw0	equ	0xFEB
  9973                           fsr0h	equ	0xFEA
  9974                           fsr0l	equ	0xFE9
  9975                           wreg	equ	0xFE8
  9976                           indf1	equ	0xFE7
  9977                           postinc1	equ	0xFE6
  9978                           postdec1	equ	0xFE5
  9979                           preinc1	equ	0xFE4
  9980                           plusw1	equ	0xFE3
  9981                           fsr1h	equ	0xFE2
  9982                           fsr1l	equ	0xFE1
  9983                           bsr	equ	0xFE0
  9984                           indf2	equ	0xFDF
  9985                           postinc2	equ	0xFDE
  9986                           postdec2	equ	0xFDD
  9987                           preinc2	equ	0xFDC
  9988                           plusw2	equ	0xFDB
  9989                           fsr2h	equ	0xFDA
  9990                           fsr2l	equ	0xFD9
  9991                           status	equ	0xFD8


Data Sizes:
    Strings     1
    Constant    124
    Data        4
    BSS         15
    Persistent  2
    Stack       0

Auto Spaces:
    Space          Size  Autos    Used
    COMRAM           94     90      92
    BANK0           160     85     104
    BANK1           256    188     188
    BANK2           256      0       0
    BANK3           256      0       0
    BANK4           256      0       0
    BANK5           256      0       0
    BANK6           256      0       0
    BANK7           256      0       0
    BANK8           256      0       0
    BANK9           256      0       0
    BANK10          256      0       0
    BANK11          256      0       0
    BANK12          256      0       0
    BANK13          256      0       0
    BANK14          256      0       0
    BANK15           96      0       0

Pointer List with Targets:

    nanf@s	PTR const unsigned char  size(2) Largest target is 1
		 -> STR_1(CODE[1]), 


Critical Paths under _main in COMRAM

    _powf->___fldiv
    _sqrtf->___flge
    ___flge->___flsub
    _scalbnf->___flmul
    ___flmul->___fladd
    ___xxtofl->___flmul
    ___flsub->___xxtofl
    ___fldiv->___flsub

Critical Paths under _ITR in COMRAM

    _ITR->_button

Critical Paths under _main in BANK0

    _main->_calculateTmr
    _initTmr->_calculateTmr
    _calculateTmr->___fltol
    _powf->_sqrtf
    ___fltol->_powf

Critical Paths under _ITR in BANK0

    None.

Critical Paths under _main in BANK1

    _calculateTmr->_powf
    ___fltol->_powf

Critical Paths under _ITR in BANK1

    None.

Critical Paths under _main in BANK2

    None.

Critical Paths under _ITR in BANK2

    None.

Critical Paths under _main in BANK3

    None.

Critical Paths under _ITR in BANK3

    None.

Critical Paths under _main in BANK4

    None.

Critical Paths under _ITR in BANK4

    None.

Critical Paths under _main in BANK5

    None.

Critical Paths under _ITR in BANK5

    None.

Critical Paths under _main in BANK6

    None.

Critical Paths under _ITR in BANK6

    None.

Critical Paths under _main in BANK7

    None.

Critical Paths under _ITR in BANK7

    None.

Critical Paths under _main in BANK8

    None.

Critical Paths under _ITR in BANK8

    None.

Critical Paths under _main in BANK9

    None.

Critical Paths under _ITR in BANK9

    None.

Critical Paths under _main in BANK10

    None.

Critical Paths under _ITR in BANK10

    None.

Critical Paths under _main in BANK11

    None.

Critical Paths under _ITR in BANK11

    None.

Critical Paths under _main in BANK12

    None.

Critical Paths under _ITR in BANK12

    None.

Critical Paths under _main in BANK13

    None.

Critical Paths under _ITR in BANK13

    None.

Critical Paths under _main in BANK14

    None.

Critical Paths under _ITR in BANK14

    None.

Critical Paths under _main in BANK15

    None.

Critical Paths under _ITR in BANK15

    None.

Call Graph Tables:

 ---------------------------------------------------------------------------------
 (Depth) Function   	        Calls       Base Space   Used Autos Params    Refs
 ---------------------------------------------------------------------------------
 (0) _main                                                 2     2      0  221098
                                             83 BANK0      2     2      0
                       _calculateTmr
                       _fastDecrease
                       _fastIncrease
                               _init
                         _initButton
                            _initLED
                            _initOsc
                            _initTmr
                     _normalDecrease
                     _normalIncrease
                       _slowDecrease
                       _slowIncrease
 ---------------------------------------------------------------------------------
 (1) _slowIncrease                                         0     0      0       0
 ---------------------------------------------------------------------------------
 (1) _slowDecrease                                         0     0      0       0
 ---------------------------------------------------------------------------------
 (1) _normalIncrease                                       0     0      0       0
 ---------------------------------------------------------------------------------
 (1) _normalDecrease                                       0     0      0       0
 ---------------------------------------------------------------------------------
 (1) _initTmr                                              0     0      0  110549
                       _calculateTmr
 ---------------------------------------------------------------------------------
 (2) _calculateTmr                                        16    16      0  110549
                                             67 BANK0     16    16      0
                            ___flmul
                            ___flsub
                            ___fltol
                           ___xxtofl
                               _powf
 ---------------------------------------------------------------------------------
 (3) _powf                                               205   197      8   84078
                                             40 BANK0     17     9      8
                                              0 BANK1    188   188      0
                            ___fladd
                            ___fldiv
                             ___flge
                            ___flmul
                            ___flneg
                            ___flsub
                           ___xxtofl
                              _fabsf
                            _scalbnf
                              _sqrtf
 ---------------------------------------------------------------------------------
 (4) _sqrtf                                               49    45      4   21189
                                             77 COMRAM     9     5      4
                                              0 BANK0     40    40      0
                            ___fladd
                             ___flge
                            ___flmul
                               _nanf
 ---------------------------------------------------------------------------------
 (5) _nanf                                                 8     4      4      99
                                              2 COMRAM     8     4      4
 ---------------------------------------------------------------------------------
 (5) ___flge                                              12     4      8     790
                                             65 COMRAM    12     4      8
                            ___fladd (ARG)
                            ___flsub (ARG)
 ---------------------------------------------------------------------------------
 (4) _scalbnf                                             18    12      6   12423
                                             43 COMRAM    18    12      6
                            ___flmul
 ---------------------------------------------------------------------------------
 (5) ___flmul                                             25    17      8   11928
                                             18 COMRAM    25    17      8
                            ___fladd (ARG)
 ---------------------------------------------------------------------------------
 (4) _fabsf                                                8     4      4     123
                                              2 COMRAM     8     4      4
 ---------------------------------------------------------------------------------
 (4) ___xxtofl                                            14    10      4     474
                                             43 COMRAM    14    10      4
                            ___flmul (ARG)
 ---------------------------------------------------------------------------------
 (4) ___flsub                                              8     0      8   12921
                                             57 COMRAM     8     0      8
                            ___fladd
                            ___flmul (ARG)
                           ___xxtofl (ARG)
 ---------------------------------------------------------------------------------
 (5) ___fladd                                             16     8      8    7430
                                              2 COMRAM    16     8      8
 ---------------------------------------------------------------------------------
 (4) ___flneg                                              4     0      4     197
                                              2 COMRAM     4     0      4
 ---------------------------------------------------------------------------------
 (4) ___fldiv                                             25    17      8    2159
                                             65 COMRAM    25    17      8
                            ___fladd (ARG)
                            ___flmul (ARG)
                            ___flsub (ARG)
 ---------------------------------------------------------------------------------
 (3) ___fltol                                             10     6      4     888
                                             57 BANK0     10     6      4
                            ___flmul (ARG)
                            ___flsub (ARG)
                           ___xxtofl (ARG)
                               _powf (ARG)
 ---------------------------------------------------------------------------------
 (1) _initOsc                                              0     0      0       0
 ---------------------------------------------------------------------------------
 (1) _initLED                                              0     0      0       0
 ---------------------------------------------------------------------------------
 (1) _initButton                                           0     0      0       0
 ---------------------------------------------------------------------------------
 (1) _init                                                 0     0      0       0
 ---------------------------------------------------------------------------------
 (1) _fastIncrease                                         0     0      0       0
 ---------------------------------------------------------------------------------
 (1) _fastDecrease                                         0     0      0       0
 ---------------------------------------------------------------------------------
 Estimated maximum stack depth 5
 ---------------------------------------------------------------------------------
 (Depth) Function   	        Calls       Base Space   Used Autos Params    Refs
 ---------------------------------------------------------------------------------
 (6) _ITR                                                  0     0      0      90
                             _button
 ---------------------------------------------------------------------------------
 (7) _button                                               2     2      0      90
                                              0 COMRAM     2     2      0
                        _readButtonD
                        _readButtonI
 ---------------------------------------------------------------------------------
 (8) _readButtonI                                          0     0      0       0
 ---------------------------------------------------------------------------------
 (8) _readButtonD                                          0     0      0       0
 ---------------------------------------------------------------------------------
 Estimated maximum stack depth 8
 ---------------------------------------------------------------------------------

 Call Graph Graphs:

 _main (ROOT)
   _calculateTmr
     ___flmul
       ___fladd (ARG)
     ___flsub
       ___fladd
       ___flmul (ARG)
         ___fladd (ARG)
       ___xxtofl (ARG)
         ___flmul (ARG)
           ___fladd (ARG)
     ___fltol
       ___flmul (ARG)
         ___fladd (ARG)
       ___flsub (ARG)
         ___fladd
         ___flmul (ARG)
           ___fladd (ARG)
         ___xxtofl (ARG)
           ___flmul (ARG)
             ___fladd (ARG)
       ___xxtofl (ARG)
         ___flmul (ARG)
           ___fladd (ARG)
       _powf (ARG)
         ___fladd
         ___fldiv
           ___fladd (ARG)
           ___flmul (ARG)
             ___fladd (ARG)
           ___flsub (ARG)
             ___fladd
             ___flmul (ARG)
               ___fladd (ARG)
             ___xxtofl (ARG)
               ___flmul (ARG)
                 ___fladd (ARG)
         ___flge
           ___fladd (ARG)
           ___flsub (ARG)
             ___fladd
             ___flmul (ARG)
               ___fladd (ARG)
             ___xxtofl (ARG)
               ___flmul (ARG)
                 ___fladd (ARG)
         ___flmul
           ___fladd (ARG)
         ___flneg
         ___flsub
           ___fladd
           ___flmul (ARG)
             ___fladd (ARG)
           ___xxtofl (ARG)
             ___flmul (ARG)
               ___fladd (ARG)
         ___xxtofl
           ___flmul (ARG)
             ___fladd (ARG)
         _fabsf
         _scalbnf
           ___flmul
             ___fladd (ARG)
         _sqrtf
           ___fladd
           ___flge
             ___fladd (ARG)
             ___flsub (ARG)
               ___fladd
               ___flmul (ARG)
                 ___fladd (ARG)
               ___xxtofl (ARG)
                 ___flmul (ARG)
                   ___fladd (ARG)
           ___flmul
             ___fladd (ARG)
           _nanf
     ___xxtofl
       ___flmul (ARG)
         ___fladd (ARG)
     _powf
       ___fladd
       ___fldiv
         ___fladd (ARG)
         ___flmul (ARG)
           ___fladd (ARG)
         ___flsub (ARG)
           ___fladd
           ___flmul (ARG)
             ___fladd (ARG)
           ___xxtofl (ARG)
             ___flmul (ARG)
               ___fladd (ARG)
       ___flge
         ___fladd (ARG)
         ___flsub (ARG)
           ___fladd
           ___flmul (ARG)
             ___fladd (ARG)
           ___xxtofl (ARG)
             ___flmul (ARG)
               ___fladd (ARG)
       ___flmul
         ___fladd (ARG)
       ___flneg
       ___flsub
         ___fladd
         ___flmul (ARG)
           ___fladd (ARG)
         ___xxtofl (ARG)
           ___flmul (ARG)
             ___fladd (ARG)
       ___xxtofl
         ___flmul (ARG)
           ___fladd (ARG)
       _fabsf
       _scalbnf
         ___flmul
           ___fladd (ARG)
       _sqrtf
         ___fladd
         ___flge
           ___fladd (ARG)
           ___flsub (ARG)
             ___fladd
             ___flmul (ARG)
               ___fladd (ARG)
             ___xxtofl (ARG)
               ___flmul (ARG)
                 ___fladd (ARG)
         ___flmul
           ___fladd (ARG)
         _nanf
   _fastDecrease
   _fastIncrease
   _init
   _initButton
   _initLED
   _initOsc
   _initTmr
     _calculateTmr
       ___flmul
         ___fladd (ARG)
       ___flsub
         ___fladd
         ___flmul (ARG)
           ___fladd (ARG)
         ___xxtofl (ARG)
           ___flmul (ARG)
             ___fladd (ARG)
       ___fltol
         ___flmul (ARG)
           ___fladd (ARG)
         ___flsub (ARG)
           ___fladd
           ___flmul (ARG)
             ___fladd (ARG)
           ___xxtofl (ARG)
             ___flmul (ARG)
               ___fladd (ARG)
         ___xxtofl (ARG)
           ___flmul (ARG)
             ___fladd (ARG)
         _powf (ARG)
           ___fladd
           ___fldiv
             ___fladd (ARG)
             ___flmul (ARG)
               ___fladd (ARG)
             ___flsub (ARG)
               ___fladd
               ___flmul (ARG)
                 ___fladd (ARG)
               ___xxtofl (ARG)
                 ___flmul (ARG)
                   ___fladd (ARG)
           ___flge
             ___fladd (ARG)
             ___flsub (ARG)
               ___fladd
               ___flmul (ARG)
                 ___fladd (ARG)
               ___xxtofl (ARG)
                 ___flmul (ARG)
                   ___fladd (ARG)
           ___flmul
             ___fladd (ARG)
           ___flneg
           ___flsub
             ___fladd
             ___flmul (ARG)
               ___fladd (ARG)
             ___xxtofl (ARG)
               ___flmul (ARG)
                 ___fladd (ARG)
           ___xxtofl
             ___flmul (ARG)
               ___fladd (ARG)
           _fabsf
           _scalbnf
             ___flmul
               ___fladd (ARG)
           _sqrtf
             ___fladd
             ___flge
               ___fladd (ARG)
               ___flsub (ARG)
                 ___fladd
                 ___flmul (ARG)
                   ___fladd (ARG)
                 ___xxtofl (ARG)
                   ___flmul (ARG)
                     ___fladd (ARG)
             ___flmul
               ___fladd (ARG)
             _nanf
       ___xxtofl
         ___flmul (ARG)
           ___fladd (ARG)
       _powf
         ___fladd
         ___fldiv
           ___fladd (ARG)
           ___flmul (ARG)
             ___fladd (ARG)
           ___flsub (ARG)
             ___fladd
             ___flmul (ARG)
               ___fladd (ARG)
             ___xxtofl (ARG)
               ___flmul (ARG)
                 ___fladd (ARG)
         ___flge
           ___fladd (ARG)
           ___flsub (ARG)
             ___fladd
             ___flmul (ARG)
               ___fladd (ARG)
             ___xxtofl (ARG)
               ___flmul (ARG)
                 ___fladd (ARG)
         ___flmul
           ___fladd (ARG)
         ___flneg
         ___flsub
           ___fladd
           ___flmul (ARG)
             ___fladd (ARG)
           ___xxtofl (ARG)
             ___flmul (ARG)
               ___fladd (ARG)
         ___xxtofl
           ___flmul (ARG)
             ___fladd (ARG)
         _fabsf
         _scalbnf
           ___flmul
             ___fladd (ARG)
         _sqrtf
           ___fladd
           ___flge
             ___fladd (ARG)
             ___flsub (ARG)
               ___fladd
               ___flmul (ARG)
                 ___fladd (ARG)
               ___xxtofl (ARG)
                 ___flmul (ARG)
                   ___fladd (ARG)
           ___flmul
             ___fladd (ARG)
           _nanf
   _normalDecrease
   _normalIncrease
   _slowDecrease
   _slowIncrease

 _ITR (ROOT)
   _button
     _readButtonD
     _readButtonI

 Address spaces:
Name               Size   Autos  Total    Cost      Usage
BIGRAM             F5F      0       0      37        0.0%
EEDATA             400      0       0       0        0.0%
BITBANK14          100      0       0      33        0.0%
BANK14             100      0       0      34        0.0%
BITBANK13          100      0       0      30        0.0%
BANK13             100      0       0      31        0.0%
BITBANK12          100      0       0      28        0.0%
BANK12             100      0       0      29        0.0%
BITBANK11          100      0       0      26        0.0%
BANK11             100      0       0      27        0.0%
BITBANK10          100      0       0      24        0.0%
BANK10             100      0       0      25        0.0%
BITBANK9           100      0       0      22        0.0%
BANK9              100      0       0      23        0.0%
BITBANK8           100      0       0      20        0.0%
BANK8              100      0       0      21        0.0%
BITBANK7           100      0       0      18        0.0%
BANK7              100      0       0      19        0.0%
BITBANK6           100      0       0      16        0.0%
BANK6              100      0       0      17        0.0%
BITBANK5           100      0       0      14        0.0%
BANK5              100      0       0      15        0.0%
BITBANK4           100      0       0      12        0.0%
BANK4              100      0       0      13        0.0%
BITBANK3           100      0       0      10        0.0%
BANK3              100      0       0      11        0.0%
BITBANK2           100      0       0       8        0.0%
BANK2              100      0       0       9        0.0%
BITBANK1           100      0       0       6        0.0%
BANK1              100     BC      BC       7       73.4%
BITBANK0            A0      0       0       4        0.0%
BANK0               A0     55      68       5       65.0%
BITBANK15           60      0       0      35        0.0%
BANK15              60      0       0      36        0.0%
BITCOMRAM           5E      0       0       0        0.0%
COMRAM              5E     5A      5C       1       97.9%
BITSFR               0      0       0     200        0.0%
SFR                  0      0       0     200        0.0%
STACK                0      0       0       2        0.0%
NULL                 0      0       0       0        0.0%
ABS                  0      0     180      32        0.0%
DATA                 0      0     180       3        0.0%
CODE                 0      0       0       0        0.0%


Microchip Technology PIC18 Macro Assembler V2.10 build 88905656 
Symbol Table                                                                                   Fri Sep 27 17:06:13 2019

           ___fldiv@aexp 005A             ___fldiv@bexp 0059             ___fldiv@sign 0052  
                     _L1 1059                       _L2 1055                       _L3 1051  
                     _L4 104D                       _L5 1049                       _L6 1045  
                     _P1 1041                       _P2 103D                       _P3 1039  
                     _P4 1035                       _P5 1031                       l86 5120  
                     _bp 1069                       _cp 101D                      l310 5668  
                    l303 5582                      l241 598A                      l235 5976  
                    l244 5990                      l238 5980                      l272 55FC  
                    l610 533C                      l283 5732                      l277 5876  
                    l295 56CE                      l288 57BA                      l900 4A18  
                    l583 5440                      l841 4160                      l906 4A9A  
                    l850 4430                      l842 414E                      l578 53FA  
                    l587 58E8                      l843 4114                      l931 485A  
                    l908 4B12                      l909 4B00                      l934 46EC  
                    l927 44F6                      l944 481C                      l936 4764  
                    l937 4752                      l858 427A                      l867 434A  
                    l883 5778                      l971 4FDC                      l868 4338  
                    l982 4F74                      l895 4BF4                      l975 4F18  
                    l968 4E80                      l897 4A54                      _ITR 0008  
                    _lg2 102D                      _ovt 1021                      wreg 000FE8  
           ___flmul@aexp 0024             ___flmul@bexp 0025             ___flmul@sign 001F  
           ___flmul@temp 002A             ___flmul@prod 0026             __CFG_LVP$OFF 000000  
                   ?_ITR 0001             ___fltol@exp1 00A2             __CFG_WDT$OFF 000000  
                   l1200 3EDA                     l1212 591C                     l1052 3AB0  
                   l1215 593E                     l1047 1080                     l3001 543E  
                   l1153 32AA                     l1057 1382                     l1049 10A0  
                   l1154 3326                     l3011 485C                     l1067 1418  
                   l1164 3A5C                     l3101 4A8A                     l3021 4898  
                   l3013 4868                     l3005 591E                     l1085 1600  
                   l1077 14DA                     l3111 4ACA                     l3103 4A98  
                   l3031 48C8                     l3023 48A8                     l3015 4876  
                   l1175 4E28                     l3007 592E                     l1191 3CB0  
                   l3121 4B3C                     l3113 4AF8                     l3105 4AAA  
                   l3041 48FE                     l3033 48CE                     l3025 48AA  
                   l3017 4878                     l3201 4FBC                     l3131 4BB4  
                   l3123 4B66                     l3107 4AB8                     l3051 493E  
                   l3043 490E                     l3035 48DC                     l3019 4888  
                   l3027 48B2                     l3203 4FCA                     l1195 3D0E  
                   l1187 3F70                     l3211 3AB2                     l3141 4BEA  
                   l3133 4BD0                     l3117 4B22                     l3125 4B6A  
                   l3109 4ABC                     l3053 494E                     l3061 496E  
                   l3045 4910                     l3037 48DE                     l3029 48C2  
                   l3205 4FCC                     l3301 4C5E                     l3221 3B64  
                   l3213 3AC2                     l1198 3DD2                     l3135 4BD4  
                   l3127 4B84                     l3119 4B2E                     l3071 49AC  
                   l3063 497E                     l3055 4956                     l3039 48EE  
                   l3047 4918                     l3151 5744                     l3303 4C7A  
                   l3311 4CDE                     l3231 3BDA                     l3223 3B82  
                   l3215 3AD2                     l3137 4BE2                     l3129 4B9A  
                   l3081 49F4                     l3073 49BC                     l3065 497E  
                   l3057 495A                     l3049 4928                     l3321 4D86  
                   l3313 4CFA                     l3305 4CAE                     l3241 3C6E  
                   l3225 3BB0                     l3217 3B08                     l3209 3AB2  
                   l5001 2438                     l3139 4BE8                     l3091 4A42  
                   l3083 4A08                     l3075 49CC                     l3155 58B2  
                   l3171 4EA6                     l3163 4E2C                     l3331 4E18  
                   l3323 4D8E                     l3315 4D2E                     l3307 4CB6  
                   l3251 3D28                     l3243 3C7A                     l3227 3BC4  
                   l3235 3BFA                     l5011 25A8                     l5003 2490  
                   l3093 4A52                     l3085 4A16                     l3077 49DC  
                   l3069 4992                     l3157 58C8                     l2701 407A  
                   l3149 5734                     l3181 4F00                     l3165 4E3C  
                   l3325 4DAA                     l3317 4D36                     l3309 4CD2  
                   l3261 3DEC                     l3253 3D48                     l3245 3C88  
                   l3237 3C50                     l3229 3BD2                     l5101 2E0E  
                   l5021 26D0                     l5013 2600                     l5005 24E8  
                   l3095 4A64                     l3087 4A22                     l3079 49E4  
                   l3159 58D8                     l2711 408E                     l2703 407E  
                   l3191 4F64                     l3183 4F02                     l3175 4EBA  
                   l3167 4E4A                     l3319 4D52                     l3327 4DB2  
                   l3271 3E6C                     l3263 3E02                     l3255 3D5C  
                   l3247 3CF0                     l3239 3C64                     l5111 2EAE  
                   l5103 2E1E                     l5031 274E                     l5023 26E0  
                   l5015 2634                     l5007 2540                     l3097 4A7A  
                   l3089 4A40                     l2801 42DC                     l2721 40A2  
                   l2713 4092                     l2705 4082                     l3193 4F82  
                   l3185 4F0E                     l3177 4EC2                     l3169 4E90  
                   l3329 4DE4                     l3281 3F60                     l3273 3E9E  
                   l3265 3E18                     l3257 3D9A                     l3249 3CFE  
                   l5201 39DC                     l5121 2FF4                     l5113 2EC6  
                   l5105 2E42                     l5041 289A                     l5033 2782  
                   l5025 26F0                     l5017 2668                     l5009 2574  
                   l5211 524E                     l3099 4A80                     l2803 42E4  
                   l2811 4308                     l2731 40B6                     l2723 40A6  
                   l2715 4096                     l2707 4086                     l2651 3F72  
                   l3195 4F84                     l3187 4F4A                     l3179 4ECE  
                   l3275 3EB0                     l3267 3E28                     l3259 3DE2  
                   l5203 3A2C                     l5131 30D4                     l5115 2F40  
                   l5051 2918                     l5043 28AA                     l5035 27B6  
                   l5027 270A                     l5019 269C                     l5221 529E  
                   l2821 435A                     l2813 430C                     l2805 42E8  
                   l2741 412E                     l2733 40E0                     l2725 40AA  
                   l2717 409A                     l2709 408A                     l2661 3FAE  
                   l2653 3F7E                     l3197 4F88                     l3189 4F56  
                   l3285 58EA                     l2901 4562                     l3293 4BF6  
                   l3277 3F40                     l3269 3E5A                     l5205 3A7C  
                   l5141 31E4                     l5061 2A86                     l5053 294C  
                   l5045 28BA                     l5037 27EA                     l5029 271A  
                   l5231 52C8                     l5223 52A2                     l5215 5262  
                   l2831 43C0                     l2823 4366                     l2815 431A  
                   l2807 42F8                     l2751 416E                     l2743 4132  
                   l2735 40FC                     l2727 40AE                     l2719 409E  
                   l2671 3FDE                     l2663 3FBE                     l2655 3F8C  
                   l3199 4FAC                     l3287 590A                     l2911 45AC  
                   l2903 457A                     l3295 4C06                     l3279 3F50  
                   l5151 3420                     l5143 3316                     l5127 3060  
                   l5135 3140                     l5119 2FAC                     l5071 2B72  
                   l5063 2ABA                     l5055 2980                     l5047 28D4  
                   l5039 2866                     l5241 52F0                     l5233 52D2  
                   l5225 52B0                     l5217 528C                     l5209 5236  
                   l2841 4408                     l2833 43D0                     l2825 4374  
                   l2817 4330                     l2809 42FA                     l2761 41B0  
                   l2753 417E                     l2745 4140                     l2737 410C  
                   l2729 40B2                     l2681 4008                     l2673 3FF0  
                   l2665 3FC0                     l2657 3F8E                     l3289 590C  
                   l2921 4602                     l2913 45BC                     l2905 4586  
                   l3297 4C22                     l5161 349E                     l5153 3430  
                   l5145 33A8                     l5137 31B2                     l5129 307E  
                   l5081 2C68                     l5073 2B8C                     l5065 2B1E  
                   l5057 29FC                     l5049 28E4                     l5243 52FC  
                   l5235 52DC                     l5219 528E                     l2843 440A  
                   l2835 43F0                     l2827 43AE                     l2771 41DE  
                   l2763 41BE                     l2747 4142                     l2739 4122  
                   l2683 4018                     l2691 4042                     l2675 3FF2  
                   l2659 3F9E                     l2667 3FC8                     l2931 46A6  
                   l2923 461E                     l2915 45C8                     l2907 4592  
                   l3299 4C56                     l5171 35EA                     l5163 34D2  
                   l5155 3440                     l5147 33B8                     l5139 31C2  
                   l5091 2CE6                     l5075 2B9C                     l5067 2B52  
                   l5059 2A60                     l5083 2C9C                     l5323 54A4  
                   l3901 55C0                     l5245 530C                     l2845 4410  
                   l2837 43F4                     l2829 43B0                     l2781 424A  
                   l2773 41E8                     l2765 41CA                     l2757 4192  
                   l2749 414C                     l2693 4052                     l2685 4028  
                   l2677 3FF8                     l2669 3FD8                     l2941 46FC  
                   l2933 46B4                     l2925 462A                     l2917 45D8  
                   l2909 45A0                     l2861 445E                     l2853 4432  
                   l5181 375A                     l5173 361E                     l5165 352A  
                   l5157 345A                     l5149 33EC                     l5093 2D3E  
                   l5085 2CAC                     l5077 2BD0                     l5069 2B62  
                   l5253 4FDE                     l5261 5962                     l3911 55F8  
                   l3903 55C2                     l5247 531C                     l2847 441E  
                   l2839 4402                     l2783 425A                     l2767 41CE  
                   l2759 41A2                     l2775 41EE                     l2695 4064  
                   l2687 4038                     l2679 4006                     l2943 470A  
                   l2935 46D2                     l2927 4646                     l2919 45F2  
                   l2871 449A                     l2863 446E                     l2855 443E  
                   l5191 3912                     l5183 37B2                     l5175 3652  
                   l5167 3582                     l5159 346A                     l5095 2D96  
                   l5087 2CBC                     l5079 2C34                     l5255 5014  
                   l5263 5966                     l5271 5442                     l3905 55CA  
                   l5249 532C                     l2849 4420                     l2793 42B4  
                   l2777 4214                     l2785 426A                     l2769 41DC  
                   l2697 4072                     l2689 403A                     l2953 4774  
                   l2961 47BC                     l2945 470E                     l2937 46DC  
                   l2929 4670                     l2881 44D0                     l2873 44A0  
                   l2865 447E                     l2857 444C                     l5193 3946  
                   l5185 380A                     l5177 36AA                     l5169 35B6  
                   l5097 2DCA                     l5089 2CD6                     l5257 5048  
                   l5265 5968                     l3913 583C                     l3921 56D0  
                   l5281 545A                     l5273 5446                     l3907 55E4  
                   l2795 42BE                     l2787 4290                     l2779 4248  
                   l2699 4076                     l2971 4830                     l2963 47D6  
                   l2955 4780                     l2947 471C                     l2939 46EA  
                   l2883 44E0                     l2875 44AE                     l2867 4484  
                   l2859 444E                     l5195 397A                     l5187 3886  
                   l5179 3702                     l5099 2DFE                     l4811 142C  
                   l4803 13D2                     l5259 5104                     l5267 596A  
                   l3915 584E                     l3931 5728                     l3923 56E2  
                   l5291 5482                     l5283 5462                     l5275 544A  
                   l3941 57B0                     l3909 55F6                     l2797 42CC  
                   l2789 42A0                     l2973 483E                     l2965 47EA  
                   l2957 478E                     l2949 474A                     l2893 452A  
                   l2885 44E6                     l2877 44B0                     l2869 4494  
                   l5197 398A                     l5189 38DE                     l4901 1AB6  
                   l4821 1494                     l4813 143A                     l4805 13F4  
                   l5269 596E                     l3917 5854                     l3933 572A  
                   l3925 56E8                     l5293 548A                     l5285 546A  
                   l5277 544E                     l3943 57B2                     l3935 577A  
                   l2799 42CE                     l2975 4840                     l2967 4804  
                   l2959 47B8                     l2895 4536                     l2887 4506  
                   l2879 44C0                     l2991 53BA                     l2983 533E  
                   l5199 399A                     l4911 1C02                     l4903 1AEA  
                   l4831 153E                     l4823 14A2                     l4815 1462  
                   l4807 1402                     l3951 569C                     l3919 5870  
                   l3927 5704                     l5287 5472                     l5279 5452  
                   l3937 578C                     l2969 4820                     l2977 4846  
                   l2897 4540                     l2889 4516                     l2993 53C8  
                   l2985 536C                     l4921 1D20                     l4913 1C36  
                   l4905 1B42                     l4841 15B0                     l4833 1556  
                   l4825 14EE                     l4761 10C0                     l3953 56B8  
                   l3945 566A                     l3961 5514                     l3929 570A  
                   l5289 547A                     l5297 548E                     l3939 5792  
                   l3891 5982                     l2979 484A                     l2899 4556  
                   l2995 53DA                     l2987 537C                     l4931 1DC8  
                   l4923 1D30                     l4915 1CE6                     l4907 1B76  
                   l4851 1652                     l4843 15CE                     l4835 1564  
                   l4827 1506                     l4819 1478                     l4763 1108  
                   l3955 56CA                     l3947 567E                     l3971 5566  
                   l3963 5518                     l3981 562C                     l3893 5986  
                   l2997 53E8                     l2989 53AA                     l4941 1E96  
                   l4933 1DFC                     l4925 1D64                     l4917 1CF6  
                   l4909 1BCE                     l4853 1662                     l4861 1782  
                   l4845 15E4                     l4781 11CC                     l4773 1150  
                   l3949 5698                     l3973 5578                     l3965 5534  
                   l3957 54E6                     l3983 5630                     l3895 598C  
                   l2999 5438                     l4951 1F22                     l4943 1EAE  
                   l4935 1E0E                     l4919 1D06                     l4927 1D9C  
                   l4871 17CA                     l4855 16C6                     l4847 1610  
                   l4839 158C                     l4791 1236                     l4783 11DC  
                   l4775 1172                     l4767 111E                     l3975 557A  
                   l3967 5546                     l3959 54FA                     l3985 564C  
                   l3977 55FE                     l3897 5584                     l3889 5978  
                   l4961 1F72                     l4953 1F36                     l4945 1EC6  
                   l4937 1E1E                     l4929 1DAC                     l4881 1892  
                   l4857 1746                     l4849 161E                     l4865 1796  
                   l4793 1334                     l4785 11EA                     l4777 1194  
                   l4769 113A                     l3969 554A                     l3987 565E  
                   l3979 5612                     l3899 55A6                     l4971 20B2  
                   l4963 1F82                     l4955 1F46                     l4947 1EEA  
                   l4939 1E2E                     l4883 18B6                     l4891 199C  
                   l4875 184A                     l4867 17A6                     l4859 175E  
                   l4795 13A0                     l4787 1206                     l3989 5660  
                   l4981 2156                     l4973 20C2                     l4965 1FE6  
                   l4957 1F52                     l4949 1EFE                     l4893 19C0  
                   l4885 18C4                     l4877 1860                     l4869 17B4  
                   l4797 13BC                     l4789 121A                     l4991 22C8  
                   l4983 21C8                     l4975 20D2                     l4967 206E  
                   l4959 1F62                     l4895 19DE                     l4887 1930  
                   l4879 1870                     l4993 2320                     l4985 21D8  
                   l4977 20EC                     l4969 20A2                     l4897 1A4A  
                   l4995 2354                     l4987 223C                     l4979 20FC  
                   l4997 2388                     l4989 2270                     l4999 23E0  
                   STR_1 107D                     u3000 4B0E                     u2200 3F8C  
                   u3001 4B0A                     u2201 3F88                     u3010 4B22  
                   u2210 3F9E                     u3011 4B1E                     u2211 3F9A  
                   u3020 4B3C                     u2300 40F8                     u2220 3FAE  
                   u3100 4EFC                     u3021 4B38                     u2301 40F2  
                   u2221 3FAA                     u3101 4EF8                     u3030 4B84  
                   u2310 40FA                     u2230 3FF0                     u3110 4F46  
                   u3031 4B80                     u2231 3FEC                     u3111 4F42  
                   u3040 4BB4                     u2400 4214                     u2320 4122  
                   u2240 4006                     u3120 4F64                     u3200 3BD2  
                   _LATD 000F8C                     u3041 4BB0                     u2401 4210  
                   u2321 411E                     u2241 4002                     u3121 4F60  
                   u3201 3BCE                     u3050 4BE2                     u2410 425A  
                   u2330 4140                     u2250 4018                     u3130 4F74  
                   u3051 4BDE                     u2411 4256                     u2331 413C  
                   u2251 4014                     u3131 4F70                     u3060 58C8  
                   u2500 4346                     u2420 4290                     u2340 4160  
                   u2260 4028                     u3140 4F82                     u3220 3C50  
                   u4100 5870                     u3061 58C4                     u2501 4342  
                   u2421 428C                     u2341 415C                     u2261 4024  
                   u3141 4F7E                     u3221 3C4C                     u4101 586C  
                   u2510 435A                     u2430 42A0                     u2350 416E  
                   u2270 4064                     u3150 4FBC                     u3070 4E3C  
                   u3310 4C22                     u3230 3C88                     u4110 56E2  
                   u2511 4356                     u2431 429C                     u2351 416A  
                   u2271 4060                     u3151 4FB8                     u3071 4E38  
                   u3311 4C1E                     u3231 3C84                     u3215 3C0E  
                   u4111 56DE                     u2520 4374                     u2440 42CC  
                   u2360 417E                     u2280 4072                     u3160 4FCA  
                   u3080 4E4A                     u2600 445E                     u3320 4C7A  
                   u3240 3CFE                     u3216 3C18                     u4200 54FA  
                   u4120 5704                     u2521 4370                     u2441 42C8  
                   u2361 417A                     u2281 406E                     u3161 4FC6  
                   u3081 4E46                     u2601 445A                     u3321 4C76  
                   u3305 3F20                     u3241 3CFA                     u3217 3C28  
                   u4201 54F6                     u4121 5700                     u2530 43AE  
                   u2450 42DC                     u2370 41B0                     u2290 40E0  
                   u3090 4EA6                     u2610 446E                     u3330 4CD2  
                   u3250 3D9A                     u3170 3B08                     u4210 5514  
                   u4130 5728                     u2531 43AA                     u2451 42D8  
                   u2371 41AC                     u2291 40DC                     u3091 4EA2  
                   u2611 446A                     u3331 4CCE                     u3251 3D96  
                   u3171 3B04                     u4211 5510                     u4131 5724  
                   u4140 578C                     u4060 55C0                     u2540 43C0  
                   u2460 42F8                     u2380 41BE                     u2700 471C  
                   u2620 44AE                     u3340 4CFA                     u3260 3E02  
                   u3180 3B82                     u5100 1108                     u4220 5534  
                   u4141 5788                     u4061 55BC                     u2541 43BC  
                   u2461 42F4                     u2381 41BA                     u2701 4718  
                   u2621 44AA                     u3341 4CF6                     u3261 3DFE  
                   u3181 3B7E                     u5101 1104                     u4221 5530  
                   u4150 57B0                     u4070 55E4                     u2550 43D0  
                   u2470 4308                     u2390 41DC                     u2710 474A  
                   u2630 44C0                     u3350 4D52                     u3270 3E18  
                   u3190 3BB0                     u5110 113A                     u4230 5546  
                   u4151 57AC                     u4071 55E0                     u2551 43CC  
                   u2471 4304                     u2391 41D8                     u2711 4746  
                   u2631 44BC                     u3351 4D4E                     u3271 3E14  
                   u3191 3BAC                     u5111 1136                     u4231 5542  
                   u4080 55F6                     u2560 43F0                     u2480 431A  
                   u2720 4760                     u2640 44D0                     u3360 4DAA  
                   u2800 53C8                     u3280 3E5A                     u5200 1334  
                   u5120 1172                     u4160 567E                     u4240 5566  
                   u4081 55F2                     u2561 43EC                     u2481 4316  
                   u2721 475C                     u2641 44CC                     u3361 4DA6  
                   u2801 53C4                     u3281 3E56                     u5201 1330  
                   u5121 116E                     u4161 567A                     u4241 5562  
                   u2570 4402                     u2490 4330                     u2730 4774  
                   u2650 4506                     u2810 53E8                     u3290 3E9E  
                   u5210 13A0                     u5130 1194                     u4170 5698  
                   u4090 584E                     u4250 5578                     u2571 43FE  
                   u2491 432C                     u2731 4770                     u2651 4502  
                   u2811 53E4                     u3291 3E9A                     u5211 139C  
                   u5131 1190                     u4171 5694                     u4091 584A  
                   u4251 5574                     u4260 5612                     u2900 497E  
                   u2580 441E                     u2740 478E                     u2660 4516  
                   u2820 5438                     u5300 1564                     u5220 13BC  
                   u5140 11EA                     u4180 56B8                     u4261 560E  
                   u2901 497A                     u2581 441A                     u2741 478A  
                   u2661 4512                     u2821 5434                     u5301 1560  
                   u5221 13B8                     u5141 11E6                     u4181 56B4  
                   u4270 562C                     u2910 49F4                     u2830 4876  
                   u2750 47D6                     u2670 4690                     u2590 444C  
                   u5310 15CE                     u5230 13F4                     u5150 1206  
                   u4190 56CA                     u4271 5628                     u2911 49F0  
                   u2831 4872                     u2751 47D2                     u2591 4448  
                   u3375 4DC4                     u5311 15CA                     u5231 13F0  
                   u5151 1202                     u4191 56C6                     u4280 564C  
                   u2920 4A16                     u2840 4888                     u2760 4804  
                   u2680 46EA                     u5400 1860                     u5320 15E4  
                   u5240 1402                     u5160 1236                     u4281 5648  
                   u2921 4A12                     u2841 4884                     u2761 4800  
                   u2681 46E6                     u5401 185C                     u5321 15E0  
                   u5241 13FE                     u5161 1232                     u4290 565E  
                   u2930 4A40                     u2850 4898                     u2770 483E  
                   u2690 470A                     u5410 1892                     u5330 1600  
                   u5250 143A                     u4291 565A                     u2931 4A3C  
                   u2851 4894                     u2771 483A                     u2691 4706  
                   u2675 4686                     u5411 188E                     u5331 15FC  
                   u5251 1436                     u2940 4A64                     u2860 48DC  
                   u2780 536C                     u5420 18B6                     u5340 161E  
                   u5260 1494                     u2941 4A60                     u2861 48D8  
                   u2781 5368                     u5421 18B2                     u5341 161A  
                   u5261 1490                     u2950 4A7A                     u2870 48EE  
                   u2790 53AA                     u5510 2E42                     u5430 18C4  
                   u5350 1662                     u5270 14A2                     u5190 12FA  
                   u2951 4A76                     u2871 48EA                     u2791 53A6  
                   u5511 2E3E                     u5431 18C0                     u5351 165E  
                   u5271 149E                     u5175 124C                     u2960 4A98  
                   u2880 48FE                     u5520 2EC6                     u5440 19C0  
                   u5360 16C6                     u5280 1506                     u5176 1256  
                   u2961 4A94                     u2881 48FA                     u5521 2EC2  
                   u5505 2168                     u5441 19BC                     u5361 16C2  
                   u5281 1502                     u5185 12A6                     u5177 1266  
                   u2970 4AB8                     u2890 493E                     u5530 2F40  
                   u5450 19DE                     u5370 175E                     u5290 1556  
                   u5186 12B0                     u2971 4AB4                     u2891 493A  
                   u5531 2F3C                     u5451 19DA                     u5371 175A  
                   u5291 1552                     u5195 12F0                     u5187 12C0  
                   u5700 52C4                     u2980 4ACA                     u5540 2FF4  
                   u5460 1DC8                     u5380 17B4                     u5701 52C0  
                   u2981 4AC6                     u5605 3268                     u5541 2FF0  
                   u5461 1DC4                     u5381 17B0                     u5710 52EC  
                   u2990 4AF8                     u5630 33A8                     u5606 3272  
                   u5550 307E                     u5390 17CA                     u5711 52E8  
                   u2991 4AF4                     u5631 33A4                     u5615 32C0  
                   u5607 3282                     u5551 307A                     u5391 17C6  
                   u5720 530C                     u5616 32CA                     u5560 30D4  
                   u5480 1EEA                     u5721 5308                     u5625 336E  
                   u5617 32DA                     u5561 30D0                     u5481 1EE6  
                   u5730 531C                     u5626 3378                     u5490 1F22  
                   u5731 5318                     u5627 3388                     u5491 1F1E  
                   u5475 1E44                     u5660 3A2C                     u5580 31E4  
                   u5476 1E4E                     u5661 3A28                     u5645 39AC  
                   u5581 31E0                     u5477 1E5E                     u5670 524E  
                   u5671 524A                     u5655 39F2                     u5575 3170  
                   u5680 5282                     u5656 39FC                     u5576 317A  
                   u5657 3A0C                     u5577 318A                     u5690 52B0  
                   u5691 52AC                     u5595 31FE                     u5596 3208  
                   u5685 5278                     u5597 3218                     _TMR0 000FD6  
                   _cp_h 1079                     _cp_l 1075                     _dp_h 1009  
                   _dp_l 1001                     _main 5442                     _nanf 591E  
                   _init 5584                     _huge 1061                     _powf 1080  
                   _tiny 105D                     fsr1l 000FE1                     btemp 005D  
                   prodh 000FF4                     prodl 000FF3                     start 000E  
          __CFG_IESO$OFF 000000          ___fldiv@new_exp 0053            __CFG_MCLRE$ON 000000  
           ___param_bank 000000                    ??_ITR 0003             ?_readButtonD 0001  
           ?_readButtonI 0001            ___fltol@sign1 00A1          __end_of___fladd 4432  
                  ?_main 0001                    ?_nanf 0003                    ?_init 0001  
        __end_of___fldiv 4BF6          __end_of___flneg 58EA          __end_of___flmul 485C  
                  ?_powf 0088          __end_of___flsub 577A          __end_of___fltol 533E  
                  _T0CON 000FD5                    i2l121 57FA                    i2l115 583A  
                  i2l160 5234                    i2l192 595E                    _TRISD 000F95  
          __CFG_PWRT$OFF 000000           __CFG_FCMEN$OFF 000000                    _lg2_h 1029  
                  _lg2_l 1025          __end_of_initLED 5982                    _fabsf 58EA  
        __end_of_initOsc 5992          __end_of_initTmr 5978                    _errno 00B9  
                  _ivln2 1019          __end_of_ivln2_h 1075          __end_of_ivln2_l 1019  
                  _two24 1065          __end_of_scalbnf 4E2A                    _state 00C1  
                  _sqrtf 3AB2                    nanf@s 0003                    nanf@u 0007  
         __CFG_BOREN$OFF 000000                    tablat 000FF5                    powf@i 012C  
                  powf@j 01AC                    powf@k 01A0                    powf@n 0188  
   __end_of_fastDecrease 566A                    powf@r 014C                    powf@s 0154  
                  powf@t 01B0                    powf@u 0174                    powf@v 0178  
                  powf@w 0144                    powf@x 0088                    powf@y 008C  
                  powf@z 01B4                    ttemp5 005E                    ttemp6 0061  
                  ttemp7 0065                    status 000FD8                    wtemp8 005E  
        __initialization 5878     __end_of_fastIncrease 57BC             __end_of_cp_h 107D  
           __end_of_cp_l 1079             __end_of_dp_h 1011             __end_of_dp_l 1009  
           __end_of_main 54E6             __end_of_nanf 5940             __end_of_init 55FE  
           __end_of_huge 1065             __end_of_powf 3AB2             __end_of_tiny 1061  
                 ??_main 00B3                   ??_nanf 0007                   ??_init 0003  
                 ??_powf 0090            __activetblptr 000003                   ?_fabsf 0003  
                 _ADCON1 000FC1                   ?_sqrtf 004E    __size_of_calculateTmr 0144  
                 i2l4001 516A                   i2l4011 51AC                   i2l4003 516E  
                 i2l4013 51B2                   i2l4021 51F2                   i2l4005 518A  
                 i2l4023 5202                   i2l4015 51CE                   i2l4007 5192  
                 i2l4025 5212                   i2l4017 51D2                   i2l4009 51A4  
                 i2l4061 5950                   i2l4063 595A                   i2l4059 5942  
                 i2l3841 581C                   i2l3843 582C                   i2l3835 57FC  
                 i2l3853 5838                   i2l3837 5800                   i2l3861 57CA  
                 i2l3839 580A                   i2l3871 57F2                   i2l3863 57DC  
                 i2l3849 5832                   i2l3865 57EC                   i2l3857 57BC  
                 i2l3875 57F8                   i2l3859 57C0                   i2l3991 5122  
                 i2l3993 512E                   i2l3995 5140                   i2l3997 514A  
                 i2l3999 514E                   _OSCCON 000FD3         __end_of___xxtofl 4FDE  
         __CFG_XINST$OFF 000000                   ___flge 533E                ??___fladd 000B  
              ??___fldiv 004A                ??___flneg 0007                ??___flmul 001B  
              ??___flsub 0042                ??___fltol 009D                   _countD 00BF  
                 _countI 005B                   fabsf@u 0007                   fabsf@x 0003  
                 _button 5122                   clear_0 589E                ??_initLED 0003  
              ??_initOsc 0003                ??_initTmr 005B                ??_scalbnf 0032  
           _calculateTmr 4FDE             __mediumconst 0000                   powf@s2 018C  
                 powf@t1 0180                   powf@t2 011C                   tblptrh 000FF7  
                 tblptrl 000FF6                   powf@y1 0128                   tblptru 000FF8  
                 powf@ax 0170                   powf@is 0194                   powf@hx 0160  
                 powf@hy 017C                   powf@ix 01A8                   powf@iy 0190  
                 powf@sn 0184                   sqrtf@i 0068                   sqrtf@m 007C  
                 sqrtf@q 0070                   sqrtf@r 0080                   sqrtf@s 0064  
                 sqrtf@t 0074                   sqrtf@x 004E                   sqrtf@z 0078  
             ___flge@ff1 0042               ___flge@ff2 0046             ___xxtofl@arg 0036  
           ___xxtofl@exp 0035             ___xxtofl@val 002C               __accesstop 0060  
__end_of__initialization 58A8               ___flneg@f1 0003            ___rparam_used 000001  
             ___fltol@f1 0099           __pcstackCOMRAM 0001             __pidataBANK0 5992  
          __end_of_lg2_h 102D            __end_of_lg2_l 1029            __end_of_fabsf 591E  
          __end_of_ivln2 101D            __end_of_two24 1069            __end_of_sqrtf 3F72  
             __end_of_L1 105D               __end_of_L2 1059               __end_of_L3 1055  
             __end_of_L4 1051               __end_of_L5 104D               __end_of_L6 1049  
             __end_of_P1 1045               __end_of_P2 1041               __end_of_P3 103D  
             __end_of_P4 1039               __end_of_P5 1035               __end_of_bp 1071  
             __end_of_cp 1021  __size_of_normalDecrease 0066     __size_of_readButtonD 0040  
   __size_of_readButtonI 0040          __CFG_OSC$INTIO7 000000        _calculateTmr$1340 00A3  
      _calculateTmr$1341 00A7        _calculateTmr$1342 00AB        _calculateTmr$1343 00AF  
  __size_of_fastDecrease 006C                  ??_fabsf 0007  __size_of_normalIncrease 003C  
                ??_sqrtf 0052               __pbssBANK0 00B5    __size_of_fastIncrease 0042  
                ?___flge 0042                  ?_button 0001             _fastDecrease 55FE  
              ?___xxtofl 002C             _fastIncrease 577A                  __Hparam 0000  
                __Lparam 0000               _initButton 5982          __size_of___flge 0104  
                ___fladd 3F72                  ___fldiv 485C                  ___flneg 58B2  
                ___flmul 4432                  ___flsub 5734                  ___fltol 5236  
           __psmallconst 1000                  __pcinit 5878          __size_of_button 0114  
                __ramtop 1000             button@checkD 0002             button@checkI 0001  
                __ptext0 5442                  __ptext1 56D0                  __ptext2 54E6  
                __ptext3 583C                  __ptext4 566A                  __ptext5 5962  
                __ptext6 4FDE                  __ptext7 1080                  __ptext8 3AB2  
                __ptext9 591E             __size_of_ITR 595A                  _initLED 5978  
                _initOsc 598C                  _initTmr 5962                  _ivln2_h 1071  
                _ivln2_l 1015               ??___xxtofl 0030                  _scalbnf 4BF6  
         __pintcode_body 5940     end_of_initialization 58A8                  int_func 5940  
                powf@p_h 019C                  powf@p_l 0164                  powf@s_h 016C  
                powf@t_h 0168                  powf@s_l 0130                  powf@t_l 0134  
                powf@z_h 0120                  powf@z_l 0124                  postdec1 000FE5  
                postinc0 000FEE                  sqrtf@ix 0084           _normalDecrease 566A  
              _PORTAbits 000F80                _PORTBbits 000F81            ?_slowDecrease 0001  
            ___fladd@grs 0012            ___xxtofl@sign 0034                _TRISAbits 000F92  
              _TRISBbits 000F93              ___fldiv@grs 0055              ___fldiv@rem 004E  
         _normalIncrease 583C            ?_slowIncrease 0001              ___flmul@grs 0020  
            ?_initButton 0001           __end_of___flge 5442   __end_of_normalDecrease 56D0  
           _firstReadRB0 00C3             _firstReadRA5 00C5           ??_slowDecrease 0003  
          _secondReadRB0 00C2            _secondReadRA5 00C4           __end_of_button 5236  
    start_initialization 5878   __end_of_normalIncrease 5878              __end_of_ITR 5962  
            __end_of_lg2 1031              __end_of_ovt 1025           ??_slowIncrease 0003  
               ??___flge 004A          ?_normalDecrease 0001              __pdataBANK0 00C2  
          ??_readButtonD 0001            ??_readButtonI 0001                 ??_button 0001  
              ___fladd@a 0007                ___fladd@b 0003                ___fldiv@a 0046  
              ___fldiv@b 0042                ___flmul@a 0017                ___flmul@b 0013  
            __pbssCOMRAM 005B                ___flsub@a 003E                ___flsub@b 003A  
        ?_normalIncrease 0001            __pcstackBANK0 0060            __pcstackBANK1 0100  
      __end_ofsqrtf@tiny 1015        __size_of___xxtofl 01B4      __size_of_initButton 000A  
              __pnvBANK0 00C6                __pintcode 0008                _fastCount 00BB  
               ?___fladd 0003                 ?___fldiv 0042                 ?___flneg 0003  
               ?___flmul 0013                 ?___flsub 003A                 ?___fltol 0099  
               ?_initLED 0001                fabsf@F463 00B5              __smallconst 1000  
               ?_initOsc 0001                 ?_initTmr 0001                 ?_scalbnf 002C  
    __end_of_readButtonD 583C      __end_of_readButtonI 57FC           __size_of_fabsf 0034  
         __size_of_sqrtf 04C0                _powf$1350 0104                _powf$1351 015C  
              _powf$1344 01A4                _powf$1352 013C                _powf$1345 0158  
              _powf$1353 0140                _powf$1346 0148                _powf$1354 0108  
              _powf$1347 0198                _powf$1355 010C                _powf$1348 0138  
              _powf$1356 0110                _powf$1357 0114                _powf$1349 0100  
              _powf$1358 0118     __end_of_slowDecrease 5584                 i2u402_40 581C  
               i2u402_41 5818                 i2u403_40 582C                 i2u403_41 5828  
               i2u404_40 57DC                 i2u404_41 57D8                 i2u405_40 57EC  
               i2u405_41 57E8                 i2u430_40 5140                 i2u430_41 513C  
               i2u431_40 516A                 i2u431_41 5166                 i2u432_40 518A  
               i2u432_41 5186                 i2u433_40 51A4                 i2u433_41 51A0  
               i2u434_40 51CE                 i2u434_41 51CA                 i2u435_40 51EE  
               i2u435_41 51EA                 i2u436_40 5202                 i2u436_41 51FE  
               i2u437_40 5212                 i2u437_41 520E                 i2u438_40 5950  
               i2u438_41 594C     __end_of_slowIncrease 5734               powf@yisint 0150  
              _slowCount 00BD            ?_calculateTmr 0001                copy_data0 588C  
               __Hrparam 0000                 __Lrparam 0000             ??_initButton 0003  
       __size_of___fladd 04C0         __size_of___fldiv 039A         __size_of___flneg 0038  
       __size_of___flmul 042A         __size_of___flsub 0046         __size_of___fltol 0108  
            _readButtonD 57FC              _readButtonI 57BC           ??_calculateTmr 005B  
       __size_of_initLED 000A                 ___xxtofl 4E2A         __size_of_initOsc 0006  
       __size_of_initTmr 0016         __size_of_scalbnf 0234                 __ptext10 533E  
               __ptext11 4BF6                 __ptext20 598C                 __ptext12 4432  
               __ptext21 5978                 __ptext13 58EA                 __ptext22 5982  
               __ptext14 4E2A                 __ptext23 5584                 __ptext15 5734  
               __ptext24 577A                 __ptext16 3F72                 __ptext25 55FE  
               __ptext17 58B2                 __ptext18 485C                 __ptext27 5122  
               __ptext19 5236                 __ptext28 57BC                 __ptext29 57FC  
     __end_of_initButton 598C            __size_of_main 00A4            __size_of_nanf 0022  
          __size_of_init 007A            __size_of_powf 2A32         ??_normalDecrease 0003  
   powf@__xc8_float_word 01B8                 int$flags 005D         ??_normalIncrease 0003  
          ?_fastDecrease 0001               _INTCONbits 000FF2            ?_fastIncrease 0001  
  __size_of_slowDecrease 009E                 scalbnf@n 0030                 scalbnf@u 0036  
               scalbnf@x 002C                 scalbnf@y 003A                 intlevel2 0000  
              sqrtf@tiny 1011             _timerCounter 00C6    __size_of_slowIncrease 0064  
         ??_fastDecrease 0003             _slowDecrease 54E6           ??_fastIncrease 0003  
          ___fladd@signs 000F             _slowIncrease 56D0    sqrtf@__xc8_float_word 006C  
           ___fladd@aexp 0010             ___fladd@bexp 0011     __end_of_calculateTmr 5122  
