

Microchip MPLAB XC8 Assembler V2.10 build 88905656 
                                                                                               Mon Nov 25 01:35:13 2019

Microchip MPLAB XC8 C Compiler v2.10 (Free license) build 20190730164152 Og1 
     1                           	processor	18F8722
     2                           	fnconf	rparam,??,?,0
     3                           	opt	pw 120
     4                           	opt	flic
     5                           	psect	smallconst,global,reloc=2,class=SMALLCONST,delta=1,noexec
     6                           	psect	nvCOMRAM,global,class=COMRAM,space=1,delta=1,noexec
     7                           	psect	nvBANK0,global,class=BANK0,space=1,delta=1,lowdata,noexec
     8                           	psect	cinit,global,reloc=2,class=CODE,delta=1
     9                           	psect	bssCOMRAM,global,class=COMRAM,space=1,delta=1,noexec
    10                           	psect	bssBANK0,global,class=BANK0,space=1,delta=1,lowdata,noexec
    11                           	psect	bssBIGRAM,global,class=BIGRAM,space=1,delta=1,lowdata,noexec
    12                           	psect	cstackBANK1,global,class=BANK1,space=1,delta=1,noexec
    13                           	psect	cstackBANK0,global,class=BANK0,space=1,delta=1,noexec
    14                           	psect	cstackCOMRAM,global,class=COMRAM,space=1,delta=1,noexec
    15                           	psect	text0,global,reloc=2,class=CODE,delta=1
    16                           	psect	text1,global,reloc=2,class=CODE,delta=1
    17                           	psect	text2,global,reloc=2,class=CODE,delta=1
    18                           	psect	text3,global,reloc=2,class=CODE,delta=1
    19                           	psect	text4,global,reloc=2,class=CODE,delta=1
    20                           	psect	text5,global,reloc=2,class=CODE,delta=1
    21                           	psect	text6,global,reloc=2,class=CODE,delta=1
    22                           	psect	text7,global,reloc=2,class=CODE,delta=1
    23                           	psect	text8,global,reloc=2,class=CODE,delta=1
    24                           	psect	text9,global,reloc=2,class=CODE,delta=1
    25                           	psect	text10,global,reloc=2,class=CODE,delta=1
    26                           	psect	text11,global,reloc=2,class=CODE,delta=1
    27                           	psect	text12,global,reloc=2,class=CODE,delta=1
    28                           	psect	text13,global,reloc=2,class=CODE,delta=1
    29                           	psect	text14,global,reloc=2,class=CODE,delta=1
    30                           	psect	text15,global,reloc=2,class=CODE,delta=1,group=1
    31                           	psect	text16,global,reloc=2,class=CODE,delta=1
    32                           	psect	text17,global,reloc=2,class=CODE,delta=1
    33                           	psect	text18,global,reloc=2,class=CODE,delta=1
    34                           	psect	text19,global,reloc=2,class=CODE,delta=1,group=2
    35                           	psect	text20,global,reloc=2,class=CODE,delta=1,group=2
    36                           	psect	text21,global,reloc=2,class=CODE,delta=1,group=2
    37                           	psect	text22,global,reloc=2,class=CODE,delta=1,group=1
    38                           	psect	text23,global,reloc=2,class=CODE,delta=1,group=2
    39                           	psect	text24,global,reloc=2,class=CODE,delta=1,group=1
    40                           	psect	text25,global,reloc=2,class=CODE,delta=1,group=2
    41                           	psect	text26,global,reloc=2,class=CODE,delta=1,group=1
    42                           	psect	text27,global,reloc=2,class=CODE,delta=1,group=1
    43                           	psect	text28,global,reloc=2,class=CODE,delta=1,group=1
    44                           	psect	text29,global,reloc=2,class=CODE,delta=1,group=1
    45                           	psect	text30,global,reloc=2,class=CODE,delta=1,group=1
    46                           	psect	text31,global,reloc=2,class=CODE,delta=1,group=1
    47                           	psect	intcode,global,reloc=2,class=CODE,delta=1
    48                           	psect	intcode_body,global,reloc=2,class=CODE,delta=1
    49                           	psect	text33,global,reloc=2,class=CODE,delta=1
    50                           	psect	text34,global,reloc=2,class=CODE,delta=1
    51                           	psect	text35,global,reloc=2,class=CODE,delta=1
    52                           	psect	intsave_regs,global,class=BIGRAM,space=1,delta=1,noexec
    53                           	psect	text36,global,reloc=2,class=CODE,delta=1
    54                           	psect	rparam,global,class=COMRAM,space=1,delta=1,noexec
    55                           	psect	temp,global,ovrld,common,class=COMRAM,space=1,delta=1
    56  0000                     
    57                           ; Version 2.10
    58                           ; Generated 31/07/2019 GMT
    59                           ; 
    60                           ; Copyright © 2019, Microchip Technology Inc. and its subsidiaries ("Microchip")
    61                           ; All rights reserved.
    62                           ; 
    63                           ; This software is developed by Microchip Technology Inc. and its subsidiaries ("Microch
      +                          ip").
    64                           ; 
    65                           ; Redistribution and use in source and binary forms, with or without modification, are
    66                           ; permitted provided that the following conditions are met:
    67                           ; 
    68                           ;     1. Redistributions of source code must retain the above copyright notice, this lis
      +                          t of
    69                           ;        conditions and the following disclaimer.
    70                           ; 
    71                           ;     2. Redistributions in binary form must reproduce the above copyright notice, this 
      +                          list
    72                           ;        of conditions and the following disclaimer in the documentation and/or other
    73                           ;        materials provided with the distribution.
    74                           ; 
    75                           ;     3. Microchip's name may not be used to endorse or promote products derived from th
      +                          is
    76                           ;        software without specific prior written permission.
    77                           ; 
    78                           ; THIS SOFTWARE IS PROVIDED BY MICROCHIP "AS IS" AND ANY EXPRESS OR IMPLIED WARRANTIES,
    79                           ; INCLUDING, BUT NOT LIMITED TO, THE IMPLIED WARRANTIES OF MERCHANTABILITY AND FITNESS F
      +                          OR
    80                           ; PURPOSE ARE DISCLAIMED.  IN NO EVENT SHALL MICROCHIP BE LIABLE FOR ANY DIRECT, INDIREC
      +                          T,
    81                           ; INCIDENTAL, SPECIAL, EXEMPLARY, OR CONSEQUENTIAL DAMAGES (INCLUDING BUT NOT LIMITED TO
    82                           ; PROCUREMENT OF SUBSTITUTE GOODS OR SERVICES; LOSS OF USE, DATA OR PROFITS; OR BUSINESS
    83                           ; INTERRUPTION) HOWSOEVER CAUSED AND ON ANY THEORY OF LIABILITY, WHETHER IN CONTRACT, ST
      +                          RICT
    84                           ; LIABILITY, OR TORT (INCLUDING NEGLIGENCE OR OTHERWISE) ARISING IN ANY WAY OUT OF THE U
      +                          SE OF
    85                           ; THIS SOFTWARE, EVEN IF ADVISED OF THE POSSIBILITY OF SUCH DAMAGE.
    86                           ; 
    87                           ; 
    88                           ; Code-generator required, PIC18F8722 Definitions
    89                           ; 
    90                           ; SFR Addresses
    91  0000                     
    92                           	psect	smallconst
    93  001000                     __psmallconst:
    94                           	opt callstack 0
    95  001000  00                 	db	0
    96  001001                     _dp_l:
    97                           	opt callstack 0
    98  001001  0000               	dw	0
    99  001003  0000               	dw	0
   100  001005  CFDC               	dw	53212
   101  001007  35D1               	dw	13777
   102  001009                     __end_of_dp_l:
   103                           	opt callstack 0
   104  001009                     _dp_h:
   105                           	opt callstack 0
   106  001009  0000               	dw	0
   107  00100B  0000               	dw	0
   108  00100D  C000               	dw	49152
   109  00100F  3F15               	dw	16149
   110  001011                     __end_of_dp_h:
   111                           	opt callstack 0
   112  001011  4260               	dw	16992
   113  001013  0DA2               	dw	3490
   114  001015                     __end_ofsqrtf@tiny:
   115                           	opt callstack 0
   116  001015  A570               	dw	42352
   117  001017  36EC               	dw	14060
   118  001019                     __end_of_ivln2_l:
   119                           	opt callstack 0
   120  001019  AA3B               	dw	43579
   121  00101B  3FB8               	dw	16312
   122  00101D                     __end_of_ivln2:
   123                           	opt callstack 0
   124  00101D  384F               	dw	14415
   125  00101F  3F76               	dw	16246
   126  001021                     __end_of_cp:
   127                           	opt callstack 0
   128  001021  AA3C               	dw	43580
   129  001023  3338               	dw	13112
   130  001025                     __end_of_ovt:
   131                           	opt callstack 0
   132  001025  BE8C               	dw	48780
   133  001027  35BF               	dw	13759
   134  001029                     __end_of_lg2_l:
   135                           	opt callstack 0
   136  001029  7200               	dw	29184
   137  00102B  3F31               	dw	16177
   138  00102D                     __end_of_lg2_h:
   139                           	opt callstack 0
   140  00102D  7218               	dw	29208
   141  00102F  3F31               	dw	16177
   142  001031                     __end_of_lg2:
   143                           	opt callstack 0
   144  001031  BB4C               	dw	47948
   145  001033  3331               	dw	13105
   146  001035                     __end_of_P5:
   147                           	opt callstack 0
   148  001035  EA0E               	dw	59918
   149  001037  B5DD               	dw	46557
   150  001039                     __end_of_P4:
   151                           	opt callstack 0
   152  001039  B355               	dw	45909
   153  00103B  388A               	dw	14474
   154  00103D                     __end_of_P3:
   155                           	opt callstack 0
   156  00103D  0B61               	dw	2913
   157  00103F  BB36               	dw	47926
   158  001041                     __end_of_P2:
   159                           	opt callstack 0
   160  001041  AAAB               	dw	43691
   161  001043  3E2A               	dw	15914
   162  001045                     __end_of_P1:
   163                           	opt callstack 0
   164  001045  F142               	dw	61762
   165  001047  3E53               	dw	15955
   166  001049                     __end_of_L6:
   167                           	opt callstack 0
   168  001049  3255               	dw	12885
   169  00104B  3E6C               	dw	15980
   170  00104D                     __end_of_L5:
   171                           	opt callstack 0
   172  00104D  A305               	dw	41733
   173  00104F  3E8B               	dw	16011
   174  001051                     __end_of_L4:
   175                           	opt callstack 0
   176  001051  AAAB               	dw	43691
   177  001053  3EAA               	dw	16042
   178  001055                     __end_of_L3:
   179                           	opt callstack 0
   180  001055  6DB7               	dw	28087
   181  001057  3EDB               	dw	16091
   182  001059                     __end_of_L2:
   183                           	opt callstack 0
   184  001059  999A               	dw	39322
   185  00105B  3F19               	dw	16153
   186  00105D                     __end_of_L1:
   187                           	opt callstack 0
   188  00105D  4260               	dw	16992
   189  00105F  0DA2               	dw	3490
   190  001061                     __end_of_tiny:
   191                           	opt callstack 0
   192  001061  F2CA               	dw	62154
   193  001063  7149               	dw	29001
   194  001065                     __end_of_huge:
   195                           	opt callstack 0
   196  001065  0000               	dw	0
   197  001067  4B80               	dw	19328
   198  001069                     __end_of_two24:
   199                           	opt callstack 0
   200  001069                     _bp:
   201                           	opt callstack 0
   202  001069  0000               	dw	0
   203  00106B  3F80               	dw	16256
   204  00106D  0000               	dw	0
   205  00106F  3FC0               	dw	16320
   206  001071                     __end_of_bp:
   207                           	opt callstack 0
   208  001071  AA00               	dw	43520
   209  001073  3FB8               	dw	16312
   210  001075                     __end_of_ivln2_h:
   211                           	opt callstack 0
   212  001075  23C6               	dw	9158
   213  001077  B8F6               	dw	47350
   214  001079                     __end_of_cp_l:
   215                           	opt callstack 0
   216  001079  4000               	dw	16384
   217  00107B  3F76               	dw	16246
   218  00107D                     __end_of_cp_h:
   219                           	opt callstack 0
   220  00107D                     STR_1:
   221  00107D  00                 	db	0
   222                           
   223                           ; #config settings
   224  00107E  00                 	db	0	; dummy byte at the end
   225  0000                     
   226                           	psect	nvCOMRAM
   227  000046                     __pnvCOMRAM:
   228                           	opt callstack 0
   229  000046                     _timer0Counter:
   230                           	opt callstack 0
   231  000046                     	ds	4
   232                           
   233                           	psect	nvBANK0
   234  0000F1                     __pnvBANK0:
   235                           	opt callstack 0
   236  0000F1                     _timer1Counter:
   237                           	opt callstack 0
   238  0000F1                     	ds	2
   239  0000                     _TMR1	set	4046
   240  0000                     _TMR0	set	4054
   241  0000                     _T1CON	set	4045
   242  0000                     _PIR1bits	set	3998
   243  0000                     _PIE1bits	set	3997
   244  0000                     _T0CON	set	4053
   245  0000                     _TMR1L	set	4046
   246  0000                     _TMR1H	set	4047
   247  0000                     _INTCONbits	set	4082
   248  0000                     _LATD	set	3980
   249  0000                     _TRISD	set	3989
   250  0000                     _OSCCON	set	4051
   251  0000                     _LATD7	set	31847
   252  0000                     _LATD6	set	31846
   253  0000                     _LATD5	set	31845
   254  0000                     _LATD4	set	31844
   255  0000                     _LATD3	set	31843
   256  0000                     _LATD2	set	31842
   257  0000                     _LATD1	set	31841
   258  0000                     _LATD0	set	31840
   259                           
   260                           	psect	cinit
   261  0062FE                     __pcinit:
   262                           	opt callstack 0
   263  0062FE                     start_initialization:
   264                           	opt callstack 0
   265  0062FE                     __initialization:
   266                           	opt callstack 0
   267                           
   268                           ; Clear objects allocated to BIGRAM (500 bytes)
   269  0062FE  EE01  F0CC         	lfsr	0,__pbssBIGRAM
   270  006302  EE11 F0F4          	lfsr	1,500
   271  006306                     clear_0:
   272  006306  6AEE               	clrf	postinc0,c
   273  006308  50E5               	movf	postdec1,w,c
   274  00630A  50E1               	movf	fsr1l,w,c
   275  00630C  E1FC               	bnz	clear_0
   276  00630E  50E2               	movf	fsr1h,w,c
   277  006310  E1FA               	bnz	clear_0
   278                           
   279                           ; Clear objects allocated to BANK0 (27 bytes)
   280  006312  EE00  F0D6         	lfsr	0,__pbssBANK0
   281  006316  0E1B               	movlw	27
   282  006318                     clear_1:
   283  006318  6AEE               	clrf	postinc0,c
   284  00631A  06E8               	decf	wreg,f,c
   285  00631C  E1FD               	bnz	clear_1
   286                           
   287                           ; Clear objects allocated to COMRAM (14 bytes)
   288  00631E  EE00  F038         	lfsr	0,__pbssCOMRAM
   289  006322  0E0E               	movlw	14
   290  006324                     clear_2:
   291  006324  6AEE               	clrf	postinc0,c
   292  006326  06E8               	decf	wreg,f,c
   293  006328  E1FD               	bnz	clear_2
   294  00632A                     end_of_initialization:
   295                           	opt callstack 0
   296  00632A                     __end_of__initialization:
   297                           	opt callstack 0
   298  00632A  904A               	bcf	int$flags,0,c	;clear compiler interrupt flag (level 1)
   299  00632C  924A               	bcf	int$flags,1,c	;clear compiler interrupt flag (level 2)
   300  00632E  0100               	movlb	0
   301  006330  EF3D  F032         	goto	_main	;jump to C main() function
   302                           
   303                           	psect	bssCOMRAM
   304  000038                     __pbssCOMRAM:
   305                           	opt callstack 0
   306  000038                     fabsf@F463:
   307                           	opt callstack 0
   308  000038                     	ds	4
   309  00003C                     _count:
   310                           	opt callstack 0
   311  00003C                     	ds	2
   312  00003E                     _size:
   313                           	opt callstack 0
   314  00003E                     	ds	2
   315  000040                     _list_head:
   316                           	opt callstack 0
   317  000040                     	ds	2
   318  000042                     _test:
   319                           	opt callstack 0
   320  000042                     	ds	2
   321  000044                     _current_time:
   322                           	opt callstack 0
   323  000044                     	ds	2
   324                           
   325                           	psect	bssBANK0
   326  0000D6                     __pbssBANK0:
   327                           	opt callstack 0
   328  0000D6                     _tempNode:
   329                           	opt callstack 0
   330  0000D6                     	ds	25
   331  0000EF                     _errno:
   332                           	opt callstack 0
   333  0000EF                     	ds	2
   334                           
   335                           	psect	bssBIGRAM
   336  0001CC                     __pbssBIGRAM:
   337                           	opt callstack 0
   338  0001CC                     _arr_task:
   339                           	opt callstack 0
   340  0001CC                     	ds	500
   341                           
   342                           	psect	cstackBANK1
   343  000100                     __pcstackBANK1:
   344                           	opt callstack 0
   345  000100                     _powf$1307:
   346                           	opt callstack 0
   347                           
   348                           ; 4 bytes @ 0x0
   349  000100                     	ds	4
   350  000104                     _powf$1308:
   351                           	opt callstack 0
   352                           
   353                           ; 4 bytes @ 0x4
   354  000104                     	ds	4
   355  000108                     _powf$1312:
   356                           	opt callstack 0
   357                           
   358                           ; 4 bytes @ 0x8
   359  000108                     	ds	4
   360  00010C                     _powf$1313:
   361                           	opt callstack 0
   362                           
   363                           ; 4 bytes @ 0xC
   364  00010C                     	ds	4
   365  000110                     _powf$1314:
   366                           	opt callstack 0
   367                           
   368                           ; 4 bytes @ 0x10
   369  000110                     	ds	4
   370  000114                     _powf$1315:
   371                           	opt callstack 0
   372                           
   373                           ; 4 bytes @ 0x14
   374  000114                     	ds	4
   375  000118                     _powf$1316:
   376                           	opt callstack 0
   377                           
   378                           ; 4 bytes @ 0x18
   379  000118                     	ds	4
   380  00011C                     powf@t2:
   381                           	opt callstack 0
   382                           
   383                           ; 4 bytes @ 0x1C
   384  00011C                     	ds	4
   385  000120                     powf@z_h:
   386                           	opt callstack 0
   387                           
   388                           ; 4 bytes @ 0x20
   389  000120                     	ds	4
   390  000124                     powf@z_l:
   391                           	opt callstack 0
   392                           
   393                           ; 4 bytes @ 0x24
   394  000124                     	ds	4
   395  000128                     powf@y1:
   396                           	opt callstack 0
   397                           
   398                           ; 4 bytes @ 0x28
   399  000128                     	ds	4
   400  00012C                     powf@i:
   401                           	opt callstack 0
   402                           
   403                           ; 4 bytes @ 0x2C
   404  00012C                     	ds	4
   405  000130                     powf@s_l:
   406                           	opt callstack 0
   407                           
   408                           ; 4 bytes @ 0x30
   409  000130                     	ds	4
   410  000134                     powf@t_l:
   411                           	opt callstack 0
   412                           
   413                           ; 4 bytes @ 0x34
   414  000134                     	ds	4
   415  000138                     _powf$1306:
   416                           	opt callstack 0
   417                           
   418                           ; 4 bytes @ 0x38
   419  000138                     	ds	4
   420  00013C                     _powf$1310:
   421                           	opt callstack 0
   422                           
   423                           ; 4 bytes @ 0x3C
   424  00013C                     	ds	4
   425  000140                     _powf$1311:
   426                           	opt callstack 0
   427                           
   428                           ; 4 bytes @ 0x40
   429  000140                     	ds	4
   430  000144                     powf@w:
   431                           	opt callstack 0
   432                           
   433                           ; 4 bytes @ 0x44
   434  000144                     	ds	4
   435  000148                     _powf$1304:
   436                           	opt callstack 0
   437                           
   438                           ; 4 bytes @ 0x48
   439  000148                     	ds	4
   440  00014C                     powf@r:
   441                           	opt callstack 0
   442                           
   443                           ; 4 bytes @ 0x4C
   444  00014C                     	ds	4
   445  000150                     powf@yisint:
   446                           	opt callstack 0
   447                           
   448                           ; 4 bytes @ 0x50
   449  000150                     	ds	4
   450  000154                     _powf$1303:
   451                           	opt callstack 0
   452                           
   453                           ; 4 bytes @ 0x54
   454  000154                     	ds	4
   455  000158                     _powf$1309:
   456                           	opt callstack 0
   457                           
   458                           ; 4 bytes @ 0x58
   459  000158                     	ds	4
   460  00015C                     powf@s:
   461                           	opt callstack 0
   462                           
   463                           ; 4 bytes @ 0x5C
   464  00015C                     	ds	4
   465  000160                     powf@hx:
   466                           	opt callstack 0
   467                           
   468                           ; 4 bytes @ 0x60
   469  000160                     	ds	4
   470  000164                     powf@p_l:
   471                           	opt callstack 0
   472                           
   473                           ; 4 bytes @ 0x64
   474  000164                     	ds	4
   475  000168                     powf@t_h:
   476                           	opt callstack 0
   477                           
   478                           ; 4 bytes @ 0x68
   479  000168                     	ds	4
   480  00016C                     powf@s_h:
   481                           	opt callstack 0
   482                           
   483                           ; 4 bytes @ 0x6C
   484  00016C                     	ds	4
   485  000170                     powf@ax:
   486                           	opt callstack 0
   487                           
   488                           ; 4 bytes @ 0x70
   489  000170                     	ds	4
   490  000174                     powf@u:
   491                           	opt callstack 0
   492                           
   493                           ; 4 bytes @ 0x74
   494  000174                     	ds	4
   495  000178                     powf@v:
   496                           	opt callstack 0
   497                           
   498                           ; 4 bytes @ 0x78
   499  000178                     	ds	4
   500  00017C                     powf@hy:
   501                           	opt callstack 0
   502                           
   503                           ; 4 bytes @ 0x7C
   504  00017C                     	ds	4
   505  000180                     powf@n:
   506                           	opt callstack 0
   507                           
   508                           ; 4 bytes @ 0x80
   509  000180                     	ds	4
   510  000184                     powf@t1:
   511                           	opt callstack 0
   512                           
   513                           ; 4 bytes @ 0x84
   514  000184                     	ds	4
   515  000188                     powf@sn:
   516                           	opt callstack 0
   517                           
   518                           ; 4 bytes @ 0x88
   519  000188                     	ds	4
   520  00018C                     powf@s2:
   521                           	opt callstack 0
   522                           
   523                           ; 4 bytes @ 0x8C
   524  00018C                     	ds	4
   525  000190                     powf@iy:
   526                           	opt callstack 0
   527                           
   528                           ; 4 bytes @ 0x90
   529  000190                     	ds	4
   530  000194                     powf@is:
   531                           	opt callstack 0
   532                           
   533                           ; 4 bytes @ 0x94
   534  000194                     	ds	4
   535  000198                     _powf$1305:
   536                           	opt callstack 0
   537                           
   538                           ; 4 bytes @ 0x98
   539  000198                     	ds	4
   540  00019C                     powf@p_h:
   541                           	opt callstack 0
   542                           
   543                           ; 4 bytes @ 0x9C
   544  00019C                     	ds	4
   545  0001A0                     powf@k:
   546                           	opt callstack 0
   547                           
   548                           ; 4 bytes @ 0xA0
   549  0001A0                     	ds	4
   550  0001A4                     _powf$1302:
   551                           	opt callstack 0
   552                           
   553                           ; 4 bytes @ 0xA4
   554  0001A4                     	ds	4
   555  0001A8                     powf@ix:
   556                           	opt callstack 0
   557                           
   558                           ; 4 bytes @ 0xA8
   559  0001A8                     	ds	4
   560  0001AC                     powf@j:
   561                           	opt callstack 0
   562                           
   563                           ; 4 bytes @ 0xAC
   564  0001AC                     	ds	4
   565  0001B0                     powf@t:
   566                           	opt callstack 0
   567                           
   568                           ; 4 bytes @ 0xB0
   569  0001B0                     	ds	4
   570  0001B4                     powf@z:
   571                           	opt callstack 0
   572                           
   573                           ; 4 bytes @ 0xB4
   574  0001B4                     	ds	4
   575  0001B8                     powf@__xc8_float_word:
   576                           	opt callstack 0
   577                           
   578                           ; 4 bytes @ 0xB8
   579  0001B8                     	ds	4
   580  0001BC                     _calculate_init_tmr0$1294:
   581                           	opt callstack 0
   582  0001BC                     _calculate_init_tmr1$1298:
   583                           	opt callstack 0
   584                           
   585                           ; 4 bytes @ 0xBC
   586  0001BC                     	ds	4
   587  0001C0                     _calculate_init_tmr0$1295:
   588                           	opt callstack 0
   589  0001C0                     _calculate_init_tmr1$1299:
   590                           	opt callstack 0
   591                           
   592                           ; 4 bytes @ 0xC0
   593  0001C0                     	ds	4
   594  0001C4                     _calculate_init_tmr0$1296:
   595                           	opt callstack 0
   596  0001C4                     _calculate_init_tmr1$1300:
   597                           	opt callstack 0
   598                           
   599                           ; 4 bytes @ 0xC4
   600  0001C4                     	ds	4
   601  0001C8                     _calculate_init_tmr0$1297:
   602                           	opt callstack 0
   603  0001C8                     _calculate_init_tmr1$1301:
   604                           	opt callstack 0
   605                           
   606                           ; 4 bytes @ 0xC8
   607  0001C8                     	ds	4
   608                           
   609                           	psect	cstackBANK0
   610  000060                     __pcstackBANK0:
   611                           	opt callstack 0
   612  000060                     ___xxtofl@sign:
   613                           	opt callstack 0
   614  000060                     add_task@temp:
   615                           	opt callstack 0
   616  000060                     scalbnf@u:
   617                           	opt callstack 0
   618                           
   619                           ; 4 bytes @ 0x0
   620  000060                     	ds	1
   621  000061                     ___xxtofl@exp:
   622                           	opt callstack 0
   623                           
   624                           ; 1 bytes @ 0x1
   625  000061                     	ds	1
   626  000062                     add_task@temp_197:
   627                           	opt callstack 0
   628  000062                     ___xxtofl@arg:
   629                           	opt callstack 0
   630                           
   631                           ; 4 bytes @ 0x2
   632  000062                     	ds	2
   633  000064                     add_task@pre:
   634                           	opt callstack 0
   635  000064                     scalbnf@y:
   636                           	opt callstack 0
   637                           
   638                           ; 4 bytes @ 0x4
   639  000064                     	ds	2
   640  000066                     ?___fladd:
   641                           	opt callstack 0
   642  000066                     add_task@cur:
   643                           	opt callstack 0
   644  000066                     ___fladd@b:
   645                           	opt callstack 0
   646                           
   647                           ; 4 bytes @ 0x6
   648  000066                     	ds	2
   649  000068                     add_task@index:
   650                           	opt callstack 0
   651                           
   652                           ; 2 bytes @ 0x8
   653  000068                     	ds	2
   654  00006A                     ___fladd@a:
   655                           	opt callstack 0
   656                           
   657                           ; 4 bytes @ 0xA
   658  00006A                     	ds	4
   659  00006E                     ??___fladd:
   660                           
   661                           ; 1 bytes @ 0xE
   662  00006E                     	ds	4
   663  000072                     ___fladd@signs:
   664                           	opt callstack 0
   665                           
   666                           ; 1 bytes @ 0x12
   667  000072                     	ds	1
   668  000073                     ___fladd@aexp:
   669                           	opt callstack 0
   670                           
   671                           ; 1 bytes @ 0x13
   672  000073                     	ds	1
   673  000074                     ___fladd@bexp:
   674                           	opt callstack 0
   675                           
   676                           ; 1 bytes @ 0x14
   677  000074                     	ds	1
   678  000075                     ___fladd@grs:
   679                           	opt callstack 0
   680                           
   681                           ; 1 bytes @ 0x15
   682  000075                     	ds	1
   683  000076                     ?___flsub:
   684                           	opt callstack 0
   685  000076                     ___flsub@b:
   686                           	opt callstack 0
   687                           
   688                           ; 4 bytes @ 0x16
   689  000076                     	ds	4
   690  00007A                     ___flsub@a:
   691                           	opt callstack 0
   692                           
   693                           ; 4 bytes @ 0x1A
   694  00007A                     	ds	4
   695  00007E                     ?___fldiv:
   696                           	opt callstack 0
   697  00007E                     ___flge@ff1:
   698                           	opt callstack 0
   699  00007E                     ___fldiv@b:
   700                           	opt callstack 0
   701                           
   702                           ; 4 bytes @ 0x1E
   703  00007E                     	ds	4
   704  000082                     ___flge@ff2:
   705                           	opt callstack 0
   706  000082                     ___fldiv@a:
   707                           	opt callstack 0
   708                           
   709                           ; 4 bytes @ 0x22
   710  000082                     	ds	4
   711  000086                     ??___fldiv:
   712  000086                     ??___flge:
   713                           
   714                           ; 1 bytes @ 0x26
   715  000086                     	ds	4
   716  00008A                     ?_sqrtf:
   717                           	opt callstack 0
   718  00008A                     ___fldiv@rem:
   719                           	opt callstack 0
   720  00008A                     sqrtf@x:
   721                           	opt callstack 0
   722                           
   723                           ; 4 bytes @ 0x2A
   724  00008A                     	ds	4
   725  00008E                     ??_sqrtf:
   726  00008E                     ___fldiv@sign:
   727                           	opt callstack 0
   728                           
   729                           ; 1 bytes @ 0x2E
   730  00008E                     	ds	1
   731  00008F                     ___fldiv@new_exp:
   732                           	opt callstack 0
   733                           
   734                           ; 2 bytes @ 0x2F
   735  00008F                     	ds	2
   736  000091                     ___fldiv@grs:
   737                           	opt callstack 0
   738                           
   739                           ; 4 bytes @ 0x31
   740  000091                     	ds	4
   741  000095                     ___fldiv@bexp:
   742                           	opt callstack 0
   743                           
   744                           ; 1 bytes @ 0x35
   745  000095                     	ds	1
   746  000096                     ___fldiv@aexp:
   747                           	opt callstack 0
   748                           
   749                           ; 1 bytes @ 0x36
   750  000096                     	ds	1
   751  000097                     sqrtf@s:
   752                           	opt callstack 0
   753                           
   754                           ; 4 bytes @ 0x37
   755  000097                     	ds	4
   756  00009B                     sqrtf@i:
   757                           	opt callstack 0
   758                           
   759                           ; 4 bytes @ 0x3B
   760  00009B                     	ds	4
   761  00009F                     sqrtf@__xc8_float_word:
   762                           	opt callstack 0
   763                           
   764                           ; 4 bytes @ 0x3F
   765  00009F                     	ds	4
   766  0000A3                     sqrtf@q:
   767                           	opt callstack 0
   768                           
   769                           ; 4 bytes @ 0x43
   770  0000A3                     	ds	4
   771  0000A7                     sqrtf@t:
   772                           	opt callstack 0
   773                           
   774                           ; 4 bytes @ 0x47
   775  0000A7                     	ds	4
   776  0000AB                     sqrtf@z:
   777                           	opt callstack 0
   778                           
   779                           ; 4 bytes @ 0x4B
   780  0000AB                     	ds	4
   781  0000AF                     sqrtf@m:
   782                           	opt callstack 0
   783                           
   784                           ; 4 bytes @ 0x4F
   785  0000AF                     	ds	4
   786  0000B3                     sqrtf@r:
   787                           	opt callstack 0
   788                           
   789                           ; 4 bytes @ 0x53
   790  0000B3                     	ds	4
   791  0000B7                     sqrtf@ix:
   792                           	opt callstack 0
   793                           
   794                           ; 4 bytes @ 0x57
   795  0000B7                     	ds	4
   796  0000BB                     ?_powf:
   797                           	opt callstack 0
   798  0000BB                     powf@x:
   799                           	opt callstack 0
   800                           
   801                           ; 4 bytes @ 0x5B
   802  0000BB                     	ds	4
   803  0000BF                     powf@y:
   804                           	opt callstack 0
   805                           
   806                           ; 4 bytes @ 0x5F
   807  0000BF                     	ds	4
   808  0000C3                     ??_powf:
   809                           
   810                           ; 1 bytes @ 0x63
   811  0000C3                     	ds	9
   812  0000CC                     ?___fltol:
   813                           	opt callstack 0
   814  0000CC                     ___fltol@f1:
   815                           	opt callstack 0
   816                           
   817                           ; 4 bytes @ 0x6C
   818  0000CC                     	ds	4
   819  0000D0                     ??___fltol:
   820                           
   821                           ; 1 bytes @ 0x70
   822  0000D0                     	ds	4
   823  0000D4                     ___fltol@sign1:
   824                           	opt callstack 0
   825                           
   826                           ; 1 bytes @ 0x74
   827  0000D4                     	ds	1
   828  0000D5                     ___fltol@exp1:
   829                           	opt callstack 0
   830                           
   831                           ; 1 bytes @ 0x75
   832  0000D5                     	ds	1
   833                           
   834                           	psect	cstackCOMRAM
   835  000001                     __pcstackCOMRAM:
   836                           	opt callstack 0
   837  000001                     ?i2___wmul:
   838                           	opt callstack 0
   839  000001                     i2___wmul@multiplier:
   840                           	opt callstack 0
   841                           
   842                           ; 2 bytes @ 0x0
   843  000001                     	ds	2
   844  000003                     i2___wmul@multiplicand:
   845                           	opt callstack 0
   846                           
   847                           ; 2 bytes @ 0x2
   848  000003                     	ds	2
   849  000005                     i2___wmul@product:
   850                           	opt callstack 0
   851                           
   852                           ; 2 bytes @ 0x4
   853  000005                     	ds	2
   854  000007                     
   855                           ; 1 bytes @ 0x6
   856  000007                     	ds	8
   857  00000F                     Sched_Update@temp:
   858                           	opt callstack 0
   859                           
   860                           ; 2 bytes @ 0xE
   861  00000F                     	ds	2
   862  000011                     ??_ISR:
   863                           
   864                           ; 1 bytes @ 0x10
   865  000011                     	ds	4
   866  000015                     ?___wmul:
   867                           	opt callstack 0
   868  000015                     ?___flmul:
   869                           	opt callstack 0
   870  000015                     ?_fabsf:
   871                           	opt callstack 0
   872  000015                     ?_nanf:
   873                           	opt callstack 0
   874  000015                     ?___flneg:
   875                           	opt callstack 0
   876  000015                     start_timer@timer_opt:
   877                           	opt callstack 0
   878  000015                     ___wmul@multiplier:
   879                           	opt callstack 0
   880  000015                     nanf@s:
   881                           	opt callstack 0
   882  000015                     ___flneg@f1:
   883                           	opt callstack 0
   884  000015                     ___flmul@b:
   885                           	opt callstack 0
   886  000015                     fabsf@x:
   887                           	opt callstack 0
   888                           
   889                           ; 4 bytes @ 0x14
   890  000015                     	ds	2
   891  000017                     ___wmul@multiplicand:
   892                           	opt callstack 0
   893                           
   894                           ; 2 bytes @ 0x16
   895  000017                     	ds	2
   896  000019                     ___wmul@product:
   897                           	opt callstack 0
   898  000019                     ___flmul@a:
   899                           	opt callstack 0
   900  000019                     fabsf@u:
   901                           	opt callstack 0
   902  000019                     nanf@u:
   903                           	opt callstack 0
   904                           
   905                           ; 4 bytes @ 0x18
   906  000019                     	ds	2
   907  00001B                     init_arr_task@index:
   908                           	opt callstack 0
   909  00001B                     remove_task@id:
   910                           	opt callstack 0
   911  00001B                     add_task@delay:
   912                           	opt callstack 0
   913                           
   914                           ; 8 bytes @ 0x1A
   915  00001B                     	ds	2
   916  00001D                     ??___flmul:
   917                           
   918                           ; 1 bytes @ 0x1C
   919  00001D                     	ds	2
   920  00001F                     ??_remove_task:
   921                           
   922                           ; 1 bytes @ 0x1E
   923  00001F                     	ds	2
   924  000021                     ___flmul@sign:
   925                           	opt callstack 0
   926                           
   927                           ; 1 bytes @ 0x20
   928  000021                     	ds	1
   929  000022                     ___flmul@aexp:
   930                           	opt callstack 0
   931                           
   932                           ; 1 bytes @ 0x21
   933  000022                     	ds	1
   934  000023                     remove_task@delay:
   935                           	opt callstack 0
   936  000023                     ___flmul@grs:
   937                           	opt callstack 0
   938  000023                     add_task@period:
   939                           	opt callstack 0
   940                           
   941                           ; 8 bytes @ 0x22
   942  000023                     	ds	2
   943  000025                     remove_task@pre:
   944                           	opt callstack 0
   945                           
   946                           ; 2 bytes @ 0x24
   947  000025                     	ds	2
   948  000027                     ___flmul@bexp:
   949                           	opt callstack 0
   950  000027                     remove_task@pos:
   951                           	opt callstack 0
   952                           
   953                           ; 2 bytes @ 0x26
   954  000027                     	ds	1
   955  000028                     ___flmul@prod:
   956                           	opt callstack 0
   957                           
   958                           ; 4 bytes @ 0x27
   959  000028                     	ds	1
   960  000029                     remove_task@cur:
   961                           	opt callstack 0
   962                           
   963                           ; 2 bytes @ 0x28
   964  000029                     	ds	2
   965  00002B                     add_task@callback:
   966                           	opt callstack 0
   967                           
   968                           ; 3 bytes @ 0x2A
   969  00002B                     	ds	1
   970  00002C                     ___flmul@temp:
   971                           	opt callstack 0
   972                           
   973                           ; 2 bytes @ 0x2B
   974  00002C                     	ds	2
   975  00002E                     ?_scalbnf:
   976                           	opt callstack 0
   977  00002E                     ?___xxtofl:
   978                           	opt callstack 0
   979  00002E                     add_task@data:
   980                           	opt callstack 0
   981  00002E                     ___xxtofl@val:
   982                           	opt callstack 0
   983  00002E                     scalbnf@x:
   984                           	opt callstack 0
   985                           
   986                           ; 4 bytes @ 0x2D
   987  00002E                     	ds	2
   988  000030                     
   989                           ; 1 bytes @ 0x2F
   990  000030                     	ds	2
   991  000032                     ??___xxtofl:
   992  000032                     scalbnf@n:
   993                           	opt callstack 0
   994                           
   995                           ; 2 bytes @ 0x31
   996  000032                     	ds	2
   997  000034                     ??_scalbnf:
   998                           
   999                           ; 1 bytes @ 0x33
  1000  000034                     	ds	2
  1001  000036                     
  1002                           ; 1 bytes @ 0x35
  1003  000036                     	ds	2
  1004  000038                     
  1005                           ; 1 bytes @ 0x37
  1006 ;;
  1007 ;;Main: autosize = 0, tempsize = 0, incstack = 0, save=0
  1008 ;;
  1009 ;; *************** function _main *****************
  1010 ;; Defined at:
  1011 ;;		line 13 in file "main.c"
  1012 ;; Parameters:    Size  Location     Type
  1013 ;;		None
  1014 ;; Auto vars:     Size  Location     Type
  1015 ;;		None
  1016 ;; Return value:  Size  Location     Type
  1017 ;;                  1    wreg      void 
  1018 ;; Registers used:
  1019 ;;		wreg, fsr1l, fsr1h, fsr2l, fsr2h, status,2, status,0, pclath, tosl, tblptrl, tblptrh, tblptru, prodl, prodh, cstack
  1020 ;; Tracked objects:
  1021 ;;		On entry : 0/0
  1022 ;;		On exit  : 0/0
  1023 ;;		Unchanged: 0/0
  1024 ;; Data sizes:     COMRAM   BANK0   BANK1   BANK2   BANK3   BANK4   BANK5   BANK6   BANK7   BANK8   BANK9  BANK10  BANK1
      +1  BANK12  BANK13  BANK14  BANK15
  1025 ;;      Params:         0       0       0       0       0       0       0       0       0       0       0       0       
      +0       0       0       0       0
  1026 ;;      Locals:         0       0       0       0       0       0       0       0       0       0       0       0       
      +0       0       0       0       0
  1027 ;;      Temps:          0       0       0       0       0       0       0       0       0       0       0       0       
      +0       0       0       0       0
  1028 ;;      Totals:         0       0       0       0       0       0       0       0       0       0       0       0       
      +0       0       0       0       0
  1029 ;;Total ram usage:        0 bytes
  1030 ;; Hardware stack levels required when called:    9
  1031 ;; This function calls:
  1032 ;;		_System_init
  1033 ;;		_dispatch_task
  1034 ;; This function is called by:
  1035 ;;		Startup code after reset
  1036 ;; This function uses a non-reentrant model
  1037 ;;
  1038                           
  1039                           	psect	text0
  1040  00647A                     __ptext0:
  1041                           	opt callstack 0
  1042  00647A                     _main:
  1043                           	opt callstack 22
  1044  00647A                     
  1045                           ;main.c: 14:     System_init();
  1046  00647A  EC9A  F031         	call	_System_init	;wreg free
  1047  00647E                     l5300:
  1048                           
  1049                           ;main.c: 16:         dispatch_task();
  1050  00647E  ECD8  F02D         	call	_dispatch_task	;wreg free
  1051  006482  EF3F  F032         	goto	l5300
  1052  006486  EF07  F000         	goto	start
  1053  00648A                     __end_of_main:
  1054                           	opt callstack 0
  1055                           
  1056 ;; *************** function _dispatch_task *****************
  1057 ;; Defined at:
  1058 ;;		line 139 in file "Linked_List.c"
  1059 ;; Parameters:    Size  Location     Type
  1060 ;;		None
  1061 ;; Auto vars:     Size  Location     Type
  1062 ;;		None
  1063 ;; Return value:  Size  Location     Type
  1064 ;;                  1    wreg      void 
  1065 ;; Registers used:
  1066 ;;		wreg, fsr1l, fsr1h, fsr2l, fsr2h, status,2, status,0, pclath, tosl, prodl, prodh, cstack
  1067 ;; Tracked objects:
  1068 ;;		On entry : 0/0
  1069 ;;		On exit  : 0/0
  1070 ;;		Unchanged: 0/0
  1071 ;; Data sizes:     COMRAM   BANK0   BANK1   BANK2   BANK3   BANK4   BANK5   BANK6   BANK7   BANK8   BANK9  BANK10  BANK1
      +1  BANK12  BANK13  BANK14  BANK15
  1072 ;;      Params:         0       0       0       0       0       0       0       0       0       0       0       0       
      +0       0       0       0       0
  1073 ;;      Locals:         0       0       0       0       0       0       0       0       0       0       0       0       
      +0       0       0       0       0
  1074 ;;      Temps:          0       2       0       0       0       0       0       0       0       0       0       0       
      +0       0       0       0       0
  1075 ;;      Totals:         0       2       0       0       0       0       0       0       0       0       0       0       
      +0       0       0       0       0
  1076 ;;Total ram usage:        2 bytes
  1077 ;; Hardware stack levels used:    1
  1078 ;; Hardware stack levels required when called:    6
  1079 ;; This function calls:
  1080 ;;		___wmul
  1081 ;;		_add_task
  1082 ;;		_remove_task
  1083 ;;		_toggle_LED_0
  1084 ;;		_toggle_LED_2
  1085 ;;		_toggle_LED_4
  1086 ;; This function is called by:
  1087 ;;		_main
  1088 ;; This function uses a non-reentrant model
  1089 ;;
  1090                           
  1091                           	psect	text1
  1092  005BB0                     __ptext1:
  1093                           	opt callstack 0
  1094  005BB0                     _dispatch_task:
  1095                           	opt callstack 24
  1096  005BB0                     
  1097                           ;Linked_List.c: 140:     if (arr_task[list_head].run_flag > 0) {
  1098  005BB0  C040  F015         	movff	_list_head,___wmul@multiplier
  1099  005BB4  C041  F016         	movff	_list_head+1,___wmul@multiplier+1
  1100  005BB8  0E00               	movlw	0
  1101  005BBA  6E18               	movwf	(___wmul@multiplicand+1)^0,c
  1102  005BBC  0E19               	movlw	25
  1103  005BBE  6E17               	movwf	___wmul@multiplicand^0,c
  1104  005BC0  ECE8  F031         	call	___wmul	;wreg free
  1105  005BC4  0EDC               	movlw	low (_arr_task+16)
  1106  005BC6  2415               	addwf	?___wmul^0,w,c
  1107  005BC8  6ED9               	movwf	fsr2l,c
  1108  005BCA  0E01               	movlw	high (_arr_task+16)
  1109  005BCC  2016               	addwfc	(?___wmul+1)^0,w,c
  1110  005BCE  6EDA               	movwf	fsr2h,c
  1111  005BD0  0E01               	movlw	1
  1112  005BD2  BEDB               	btfsc	plusw2,7,c
  1113  005BD4  EFF5  F02D         	goto	u6441
  1114  005BD8  0E01               	movlw	1
  1115  005BDA  50DB               	movf	plusw2,w,c
  1116  005BDC  E108               	bnz	u6440
  1117  005BDE  04DE               	decf	postinc2,w,c
  1118  005BE0  A0D8               	btfss	status,0,c
  1119  005BE2  EFF5  F02D         	goto	u6441
  1120  005BE6  EFF7  F02D         	goto	u6440
  1121  005BEA                     u6441:
  1122  005BEA  EF72  F02E         	goto	l128
  1123  005BEE                     u6440:
  1124  005BEE                     
  1125                           ;Linked_List.c: 141:         (*arr_task[list_head].pTask)();
  1126  005BEE  C040  F015         	movff	_list_head,___wmul@multiplier
  1127  005BF2  C041  F016         	movff	_list_head+1,___wmul@multiplier+1
  1128  005BF6  0E00               	movlw	0
  1129  005BF8  6E18               	movwf	(___wmul@multiplicand+1)^0,c
  1130  005BFA  0E19               	movlw	25
  1131  005BFC  6E17               	movwf	___wmul@multiplicand^0,c
  1132  005BFE  ECE8  F031         	call	___wmul	;wreg free
  1133  005C02  0EDE               	movlw	low (_arr_task+18)
  1134  005C04  2415               	addwf	?___wmul^0,w,c
  1135  005C06  6ED9               	movwf	fsr2l,c
  1136  005C08  0E01               	movlw	high (_arr_task+18)
  1137  005C0A  2016               	addwfc	(?___wmul+1)^0,w,c
  1138  005C0C  6EDA               	movwf	fsr2h,c
  1139  005C0E  D802               	call	u6458
  1140  005C10  EF14  F02E         	goto	u6459
  1141  005C14                     u6458:
  1142  005C14  0005               	push	
  1143  005C16  6EFA               	movwf	pclath,c
  1144  005C18  50DE               	movf	postinc2,w,c
  1145  005C1A  6EFD               	movwf	tosl,c
  1146  005C1C  50DE               	movf	postinc2,w,c
  1147  005C1E  6EFE               	movwf	tosh,c
  1148  005C20  50DE               	movf	postinc2,w,c
  1149  005C22  6EFF               	movwf	tosu,c
  1150  005C24  50FA               	movf	pclath,w,c
  1151  005C26  0012               	return		;indir
  1152  005C28                     u6459:
  1153  005C28                     
  1154                           ;Linked_List.c: 142:         tempNode = arr_task[list_head];
  1155  005C28  C040  F015         	movff	_list_head,___wmul@multiplier
  1156  005C2C  C041  F016         	movff	_list_head+1,___wmul@multiplier+1
  1157  005C30  0E00               	movlw	0
  1158  005C32  6E18               	movwf	(___wmul@multiplicand+1)^0,c
  1159  005C34  0E19               	movlw	25
  1160  005C36  6E17               	movwf	___wmul@multiplicand^0,c
  1161  005C38  ECE8  F031         	call	___wmul	;wreg free
  1162  005C3C  0ECC               	movlw	low _arr_task
  1163  005C3E  2415               	addwf	?___wmul^0,w,c
  1164  005C40  6ED9               	movwf	fsr2l,c
  1165  005C42  0E01               	movlw	high _arr_task
  1166  005C44  2016               	addwfc	(?___wmul+1)^0,w,c
  1167  005C46  6EDA               	movwf	fsr2h,c
  1168  005C48  EE10  F0D6         	lfsr	1,_tempNode
  1169  005C4C  0E18               	movlw	24
  1170  005C4E                     u6461:
  1171  005C4E  CFDB FFE3          	movff	plusw2,plusw1
  1172  005C52  06E8               	decf	wreg,f,c
  1173  005C54  E2FC               	bc	u6461
  1174  005C56                     
  1175                           ;Linked_List.c: 143:         remove_task(list_head);
  1176  005C56  C040  F01B         	movff	_list_head,remove_task@id
  1177  005C5A  C041  F01C         	movff	_list_head+1,remove_task@id+1
  1178  005C5E  0E00               	movlw	0
  1179  005C60  BE1C               	btfsc	(remove_task@id+1)^0,7,c
  1180  005C62  0EFF               	movlw	-1
  1181  005C64  6E1D               	movwf	(remove_task@id+2)^0,c
  1182  005C66  6E1E               	movwf	(remove_task@id+3)^0,c
  1183  005C68  EC03  F029         	call	_remove_task	;wreg free
  1184  005C6C                     
  1185                           ;Linked_List.c: 144:         if (tempNode.period != 0) {
  1186  005C6C  0100               	movlb	0	; () banked
  1187  005C6E  51D6               	movf	_tempNode& (0+255),w,b
  1188  005C70  11D7               	iorwf	(_tempNode+1)& (0+255),w,b
  1189  005C72  11D8               	iorwf	(_tempNode+2)& (0+255),w,b
  1190  005C74  11D9               	iorwf	(_tempNode+3)& (0+255),w,b
  1191  005C76  11DA               	iorwf	(_tempNode+4)& (0+255),w,b
  1192  005C78  11DB               	iorwf	(_tempNode+5)& (0+255),w,b
  1193  005C7A  11DC               	iorwf	(_tempNode+6)& (0+255),w,b
  1194  005C7C  11DD               	iorwf	(_tempNode+7)& (0+255),w,b
  1195  005C7E  B4D8               	btfsc	status,2,c
  1196  005C80  EF44  F02E         	goto	u6471
  1197  005C84  EF46  F02E         	goto	u6470
  1198  005C88                     u6471:
  1199  005C88  EF72  F02E         	goto	l128
  1200  005C8C                     u6470:
  1201  005C8C                     
  1202                           ; BSR set to: 0
  1203                           ;Linked_List.c: 145:            add_task(tempNode.period, tempNode.period, tempNode.pTas
      +                          k, tempNode.data);
  1204  005C8C  C0D6  F01B         	movff	_tempNode,add_task@delay
  1205  005C90  C0D7  F01C         	movff	_tempNode+1,add_task@delay+1
  1206  005C94  C0D8  F01D         	movff	_tempNode+2,add_task@delay+2
  1207  005C98  C0D9  F01E         	movff	_tempNode+3,add_task@delay+3
  1208  005C9C  C0DA  F01F         	movff	_tempNode+4,add_task@delay+4
  1209  005CA0  C0DB  F020         	movff	_tempNode+5,add_task@delay+5
  1210  005CA4  C0DC  F021         	movff	_tempNode+6,add_task@delay+6
  1211  005CA8  C0DD  F022         	movff	_tempNode+7,add_task@delay+7
  1212  005CAC  C0D6  F023         	movff	_tempNode,add_task@period
  1213  005CB0  C0D7  F024         	movff	_tempNode+1,add_task@period+1
  1214  005CB4  C0D8  F025         	movff	_tempNode+2,add_task@period+2
  1215  005CB8  C0D9  F026         	movff	_tempNode+3,add_task@period+3
  1216  005CBC  C0DA  F027         	movff	_tempNode+4,add_task@period+4
  1217  005CC0  C0DB  F028         	movff	_tempNode+5,add_task@period+5
  1218  005CC4  C0DC  F029         	movff	_tempNode+6,add_task@period+6
  1219  005CC8  C0DD  F02A         	movff	_tempNode+7,add_task@period+7
  1220  005CCC  C0E8  F02B         	movff	_tempNode+18,add_task@callback
  1221  005CD0  C0E9  F02C         	movff	_tempNode+19,add_task@callback+1
  1222  005CD4  C0EA  F02D         	movff	_tempNode+20,add_task@callback+2
  1223  005CD8  C0ED  F02E         	movff	_tempNode+23,add_task@data
  1224  005CDC  C0EE  F02F         	movff	_tempNode+24,add_task@data+1
  1225  005CE0  EC6E  F01D         	call	_add_task	;wreg free
  1226  005CE4                     l128:
  1227  005CE4  0012               	return		;funcret
  1228  005CE6                     __end_of_dispatch_task:
  1229                           	opt callstack 0
  1230                           
  1231 ;; *************** function _toggle_LED_2 *****************
  1232 ;; Defined at:
  1233 ;;		line 12 in file "Task.c"
  1234 ;; Parameters:    Size  Location     Type
  1235 ;;		None
  1236 ;; Auto vars:     Size  Location     Type
  1237 ;;		None
  1238 ;; Return value:  Size  Location     Type
  1239 ;;                  1    wreg      void 
  1240 ;; Registers used:
  1241 ;;		None
  1242 ;; Tracked objects:
  1243 ;;		On entry : 0/0
  1244 ;;		On exit  : 0/0
  1245 ;;		Unchanged: 0/0
  1246 ;; Data sizes:     COMRAM   BANK0   BANK1   BANK2   BANK3   BANK4   BANK5   BANK6   BANK7   BANK8   BANK9  BANK10  BANK1
      +1  BANK12  BANK13  BANK14  BANK15
  1247 ;;      Params:         0       0       0       0       0       0       0       0       0       0       0       0       
      +0       0       0       0       0
  1248 ;;      Locals:         0       0       0       0       0       0       0       0       0       0       0       0       
      +0       0       0       0       0
  1249 ;;      Temps:          0       0       0       0       0       0       0       0       0       0       0       0       
      +0       0       0       0       0
  1250 ;;      Totals:         0       0       0       0       0       0       0       0       0       0       0       0       
      +0       0       0       0       0
  1251 ;;Total ram usage:        0 bytes
  1252 ;; Hardware stack levels used:    1
  1253 ;; Hardware stack levels required when called:    4
  1254 ;; This function calls:
  1255 ;;		Nothing
  1256 ;; This function is called by:
  1257 ;;		_init_task
  1258 ;;		_dispatch_task
  1259 ;; This function uses a non-reentrant model
  1260 ;;
  1261                           
  1262                           	psect	text2
  1263  00643E                     __ptext2:
  1264                           	opt callstack 0
  1265  00643E                     _toggle_LED_2:
  1266                           	opt callstack 25
  1267  00643E                     
  1268                           ;Task.c: 13:     LATD2 = ~LATD2;
  1269  00643E  A48C               	btfss	3980,2,c	;volatile
  1270  006440  EF24  F032         	goto	u4331
  1271  006444  EF27  F032         	goto	u4330
  1272  006448                     u4331:
  1273  006448  848C               	bsf	3980,2,c	;volatile
  1274  00644A  EF28  F032         	goto	u4345
  1275  00644E                     u4330:
  1276  00644E  948C               	bcf	3980,2,c	;volatile
  1277  006450                     u4345:
  1278  006450  0012               	return		;funcret
  1279  006452                     __end_of_toggle_LED_2:
  1280                           	opt callstack 0
  1281                           
  1282 ;; *************** function _toggle_LED_0 *****************
  1283 ;; Defined at:
  1284 ;;		line 4 in file "Task.c"
  1285 ;; Parameters:    Size  Location     Type
  1286 ;;		None
  1287 ;; Auto vars:     Size  Location     Type
  1288 ;;		None
  1289 ;; Return value:  Size  Location     Type
  1290 ;;                  1    wreg      void 
  1291 ;; Registers used:
  1292 ;;		None
  1293 ;; Tracked objects:
  1294 ;;		On entry : 0/0
  1295 ;;		On exit  : 0/0
  1296 ;;		Unchanged: 0/0
  1297 ;; Data sizes:     COMRAM   BANK0   BANK1   BANK2   BANK3   BANK4   BANK5   BANK6   BANK7   BANK8   BANK9  BANK10  BANK1
      +1  BANK12  BANK13  BANK14  BANK15
  1298 ;;      Params:         0       0       0       0       0       0       0       0       0       0       0       0       
      +0       0       0       0       0
  1299 ;;      Locals:         0       0       0       0       0       0       0       0       0       0       0       0       
      +0       0       0       0       0
  1300 ;;      Temps:          0       0       0       0       0       0       0       0       0       0       0       0       
      +0       0       0       0       0
  1301 ;;      Totals:         0       0       0       0       0       0       0       0       0       0       0       0       
      +0       0       0       0       0
  1302 ;;Total ram usage:        0 bytes
  1303 ;; Hardware stack levels used:    1
  1304 ;; Hardware stack levels required when called:    4
  1305 ;; This function calls:
  1306 ;;		Nothing
  1307 ;; This function is called by:
  1308 ;;		_init_task
  1309 ;;		_dispatch_task
  1310 ;; This function uses a non-reentrant model
  1311 ;;
  1312                           
  1313                           	psect	text3
  1314  006452                     __ptext3:
  1315                           	opt callstack 0
  1316  006452                     _toggle_LED_0:
  1317                           	opt callstack 25
  1318  006452                     
  1319                           ;Task.c: 5:     LATD0 = ~LATD0;
  1320  006452  A08C               	btfss	3980,0,c	;volatile
  1321  006454  EF2E  F032         	goto	u4311
  1322  006458  EF31  F032         	goto	u4310
  1323  00645C                     u4311:
  1324  00645C  808C               	bsf	3980,0,c	;volatile
  1325  00645E  EF32  F032         	goto	u4325
  1326  006462                     u4310:
  1327  006462  908C               	bcf	3980,0,c	;volatile
  1328  006464                     u4325:
  1329  006464  0012               	return		;funcret
  1330  006466                     __end_of_toggle_LED_0:
  1331                           	opt callstack 0
  1332                           
  1333 ;; *************** function _toggle_LED_4 *****************
  1334 ;; Defined at:
  1335 ;;		line 20 in file "Task.c"
  1336 ;; Parameters:    Size  Location     Type
  1337 ;;		None
  1338 ;; Auto vars:     Size  Location     Type
  1339 ;;		None
  1340 ;; Return value:  Size  Location     Type
  1341 ;;                  1    wreg      void 
  1342 ;; Registers used:
  1343 ;;		None
  1344 ;; Tracked objects:
  1345 ;;		On entry : 0/0
  1346 ;;		On exit  : 0/0
  1347 ;;		Unchanged: 0/0
  1348 ;; Data sizes:     COMRAM   BANK0   BANK1   BANK2   BANK3   BANK4   BANK5   BANK6   BANK7   BANK8   BANK9  BANK10  BANK1
      +1  BANK12  BANK13  BANK14  BANK15
  1349 ;;      Params:         0       0       0       0       0       0       0       0       0       0       0       0       
      +0       0       0       0       0
  1350 ;;      Locals:         0       0       0       0       0       0       0       0       0       0       0       0       
      +0       0       0       0       0
  1351 ;;      Temps:          0       0       0       0       0       0       0       0       0       0       0       0       
      +0       0       0       0       0
  1352 ;;      Totals:         0       0       0       0       0       0       0       0       0       0       0       0       
      +0       0       0       0       0
  1353 ;;Total ram usage:        0 bytes
  1354 ;; Hardware stack levels used:    1
  1355 ;; Hardware stack levels required when called:    4
  1356 ;; This function calls:
  1357 ;;		Nothing
  1358 ;; This function is called by:
  1359 ;;		_init_task
  1360 ;;		_dispatch_task
  1361 ;; This function uses a non-reentrant model
  1362 ;;
  1363                           
  1364                           	psect	text4
  1365  006466                     __ptext4:
  1366                           	opt callstack 0
  1367  006466                     _toggle_LED_4:
  1368                           	opt callstack 25
  1369  006466                     
  1370                           ;Task.c: 21:     LATD4 = ~LATD4;
  1371  006466  A88C               	btfss	3980,4,c	;volatile
  1372  006468  EF38  F032         	goto	u4351
  1373  00646C  EF3B  F032         	goto	u4350
  1374  006470                     u4351:
  1375  006470  888C               	bsf	3980,4,c	;volatile
  1376  006472  EF3C  F032         	goto	u4365
  1377  006476                     u4350:
  1378  006476  988C               	bcf	3980,4,c	;volatile
  1379  006478                     u4365:
  1380  006478  0012               	return		;funcret
  1381  00647A                     __end_of_toggle_LED_4:
  1382                           	opt callstack 0
  1383                           
  1384 ;; *************** function _remove_task *****************
  1385 ;; Defined at:
  1386 ;;		line 107 in file "Linked_List.c"
  1387 ;; Parameters:    Size  Location     Type
  1388 ;;  id              4   26[COMRAM] unsigned long 
  1389 ;; Auto vars:     Size  Location     Type
  1390 ;;  pos             2   38[COMRAM] int 
  1391 ;;  delay           2   34[COMRAM] int 
  1392 ;;  cur             2   40[COMRAM] int 
  1393 ;;  pre             2   36[COMRAM] int 
  1394 ;; Return value:  Size  Location     Type
  1395 ;;                  1    wreg      void 
  1396 ;; Registers used:
  1397 ;;		wreg, fsr1l, fsr1h, fsr2l, fsr2h, status,2, status,0, prodl, prodh, cstack
  1398 ;; Tracked objects:
  1399 ;;		On entry : 0/0
  1400 ;;		On exit  : 0/0
  1401 ;;		Unchanged: 0/0
  1402 ;; Data sizes:     COMRAM   BANK0   BANK1   BANK2   BANK3   BANK4   BANK5   BANK6   BANK7   BANK8   BANK9  BANK10  BANK1
      +1  BANK12  BANK13  BANK14  BANK15
  1403 ;;      Params:         4       0       0       0       0       0       0       0       0       0       0       0       
      +0       0       0       0       0
  1404 ;;      Locals:         8       0       0       0       0       0       0       0       0       0       0       0       
      +0       0       0       0       0
  1405 ;;      Temps:          4       0       0       0       0       0       0       0       0       0       0       0       
      +0       0       0       0       0
  1406 ;;      Totals:        16       0       0       0       0       0       0       0       0       0       0       0       
      +0       0       0       0       0
  1407 ;;Total ram usage:       16 bytes
  1408 ;; Hardware stack levels used:    1
  1409 ;; Hardware stack levels required when called:    5
  1410 ;; This function calls:
  1411 ;;		___wmul
  1412 ;; This function is called by:
  1413 ;;		_dispatch_task
  1414 ;; This function uses a non-reentrant model
  1415 ;;
  1416                           
  1417                           	psect	text5
  1418  005206                     __ptext5:
  1419                           	opt callstack 0
  1420  005206                     _remove_task:
  1421                           	opt callstack 24
  1422  005206                     
  1423                           ;Linked_List.c: 108:     int cur = list_head;
  1424  005206  C040  F029         	movff	_list_head,remove_task@cur
  1425  00520A  C041  F02A         	movff	_list_head+1,remove_task@cur+1
  1426                           
  1427                           ;Linked_List.c: 109:     int pre = -1;
  1428  00520E  6825               	setf	remove_task@pre^0,c
  1429  005210  6826               	setf	(remove_task@pre+1)^0,c
  1430                           
  1431                           ;Linked_List.c: 110:     while (cur != id) {
  1432  005212  EF23  F029         	goto	l5248
  1433  005216                     l115:
  1434                           
  1435                           ;Linked_List.c: 111:         pre = cur;
  1436  005216  C029  F025         	movff	remove_task@cur,remove_task@pre
  1437  00521A  C02A  F026         	movff	remove_task@cur+1,remove_task@pre+1
  1438  00521E                     
  1439                           ;Linked_List.c: 112:         cur = arr_task[cur].next;
  1440  00521E  C029  F015         	movff	remove_task@cur,___wmul@multiplier
  1441  005222  C02A  F016         	movff	remove_task@cur+1,___wmul@multiplier+1
  1442  005226  0E00               	movlw	0
  1443  005228  6E18               	movwf	(___wmul@multiplicand+1)^0,c
  1444  00522A  0E19               	movlw	25
  1445  00522C  6E17               	movwf	___wmul@multiplicand^0,c
  1446  00522E  ECE8  F031         	call	___wmul	;wreg free
  1447  005232  0EE1               	movlw	low (_arr_task+21)
  1448  005234  2415               	addwf	?___wmul^0,w,c
  1449  005236  6ED9               	movwf	fsr2l,c
  1450  005238  0E01               	movlw	high (_arr_task+21)
  1451  00523A  2016               	addwfc	(?___wmul+1)^0,w,c
  1452  00523C  6EDA               	movwf	fsr2h,c
  1453  00523E  CFDE F029          	movff	postinc2,remove_task@cur
  1454  005242  CFDD F02A          	movff	postdec2,remove_task@cur+1
  1455  005246                     l5248:
  1456                           
  1457                           ;Linked_List.c: 110:     while (cur != id) {
  1458  005246  C029  F01F         	movff	remove_task@cur,??_remove_task
  1459  00524A  C02A  F020         	movff	remove_task@cur+1,??_remove_task+1
  1460  00524E  0E00               	movlw	0
  1461  005250  BE20               	btfsc	(??_remove_task+1)^0,7,c
  1462  005252  0EFF               	movlw	255
  1463  005254  6E21               	movwf	(??_remove_task+2)^0,c
  1464  005256  6E22               	movwf	(??_remove_task+3)^0,c
  1465  005258  501B               	movf	remove_task@id^0,w,c
  1466  00525A  181F               	xorwf	??_remove_task^0,w,c
  1467  00525C  E10D               	bnz	u6381
  1468  00525E  501C               	movf	(remove_task@id+1)^0,w,c
  1469  005260  1820               	xorwf	(??_remove_task+1)^0,w,c
  1470  005262  E10A               	bnz	u6381
  1471  005264  501D               	movf	(remove_task@id+2)^0,w,c
  1472  005266  1821               	xorwf	(??_remove_task+2)^0,w,c
  1473  005268  E107               	bnz	u6381
  1474  00526A  501E               	movf	(remove_task@id+3)^0,w,c
  1475  00526C  1822               	xorwf	(??_remove_task+3)^0,w,c
  1476  00526E  A4D8               	btfss	status,2,c
  1477  005270  EF3C  F029         	goto	u6381
  1478  005274  EF3E  F029         	goto	u6380
  1479  005278                     u6381:
  1480  005278  EF0B  F029         	goto	l115
  1481  00527C                     u6380:
  1482  00527C                     
  1483                           ;Linked_List.c: 115:     if (size > 1) {
  1484  00527C  BE3F               	btfsc	(_size+1)^0,7,c
  1485  00527E  EF4A  F029         	goto	u6391
  1486  005282  503F               	movf	(_size+1)^0,w,c
  1487  005284  E109               	bnz	u6390
  1488  005286  0E02               	movlw	2
  1489  005288  5C3E               	subwf	_size^0,w,c
  1490  00528A  A0D8               	btfss	status,0,c
  1491  00528C  EF4A  F029         	goto	u6391
  1492  005290  EF4C  F029         	goto	u6390
  1493  005294                     u6391:
  1494  005294  EF06  F02A         	goto	l5266
  1495  005298                     u6390:
  1496  005298                     
  1497                           ;Linked_List.c: 116:         if (id == list_head) {
  1498  005298  C040  F01F         	movff	_list_head,??_remove_task
  1499  00529C  C041  F020         	movff	_list_head+1,??_remove_task+1
  1500  0052A0  0E00               	movlw	0
  1501  0052A2  BE20               	btfsc	(??_remove_task+1)^0,7,c
  1502  0052A4  0EFF               	movlw	255
  1503  0052A6  6E21               	movwf	(??_remove_task+2)^0,c
  1504  0052A8  6E22               	movwf	(??_remove_task+3)^0,c
  1505  0052AA  501B               	movf	remove_task@id^0,w,c
  1506  0052AC  181F               	xorwf	??_remove_task^0,w,c
  1507  0052AE  E10D               	bnz	u6401
  1508  0052B0  501C               	movf	(remove_task@id+1)^0,w,c
  1509  0052B2  1820               	xorwf	(??_remove_task+1)^0,w,c
  1510  0052B4  E10A               	bnz	u6401
  1511  0052B6  501D               	movf	(remove_task@id+2)^0,w,c
  1512  0052B8  1821               	xorwf	(??_remove_task+2)^0,w,c
  1513  0052BA  E107               	bnz	u6401
  1514  0052BC  501E               	movf	(remove_task@id+3)^0,w,c
  1515  0052BE  1822               	xorwf	(??_remove_task+3)^0,w,c
  1516  0052C0  A4D8               	btfss	status,2,c
  1517  0052C2  EF65  F029         	goto	u6401
  1518  0052C6  EF67  F029         	goto	u6400
  1519  0052CA                     u6401:
  1520  0052CA  EF7D  F029         	goto	l5256
  1521  0052CE                     u6400:
  1522  0052CE                     
  1523                           ;Linked_List.c: 117:             list_head = arr_task[list_head].next;
  1524  0052CE  C040  F015         	movff	_list_head,___wmul@multiplier
  1525  0052D2  C041  F016         	movff	_list_head+1,___wmul@multiplier+1
  1526  0052D6  0E00               	movlw	0
  1527  0052D8  6E18               	movwf	(___wmul@multiplicand+1)^0,c
  1528  0052DA  0E19               	movlw	25
  1529  0052DC  6E17               	movwf	___wmul@multiplicand^0,c
  1530  0052DE  ECE8  F031         	call	___wmul	;wreg free
  1531  0052E2  0EE1               	movlw	low (_arr_task+21)
  1532  0052E4  2415               	addwf	?___wmul^0,w,c
  1533  0052E6  6ED9               	movwf	fsr2l,c
  1534  0052E8  0E01               	movlw	high (_arr_task+21)
  1535  0052EA  2016               	addwfc	(?___wmul+1)^0,w,c
  1536  0052EC  6EDA               	movwf	fsr2h,c
  1537  0052EE  CFDE F040          	movff	postinc2,_list_head
  1538  0052F2  CFDD F041          	movff	postdec2,_list_head+1
  1539                           
  1540                           ;Linked_List.c: 118:         }
  1541  0052F6  EF06  F02A         	goto	l5266
  1542  0052FA                     l5256:
  1543                           
  1544                           ;Linked_List.c: 120:             arr_task[pre].next = arr_task[cur].next;
  1545  0052FA  C029  F015         	movff	remove_task@cur,___wmul@multiplier
  1546  0052FE  C02A  F016         	movff	remove_task@cur+1,___wmul@multiplier+1
  1547  005302  0E00               	movlw	0
  1548  005304  6E18               	movwf	(___wmul@multiplicand+1)^0,c
  1549  005306  0E19               	movlw	25
  1550  005308  6E17               	movwf	___wmul@multiplicand^0,c
  1551  00530A  ECE8  F031         	call	___wmul	;wreg free
  1552  00530E  0EE1               	movlw	low (_arr_task+21)
  1553  005310  2415               	addwf	?___wmul^0,w,c
  1554  005312  6ED9               	movwf	fsr2l,c
  1555  005314  0E01               	movlw	high (_arr_task+21)
  1556  005316  2016               	addwfc	(?___wmul+1)^0,w,c
  1557  005318  6EDA               	movwf	fsr2h,c
  1558  00531A  C025  F015         	movff	remove_task@pre,___wmul@multiplier
  1559  00531E  C026  F016         	movff	remove_task@pre+1,___wmul@multiplier+1
  1560  005322  0E00               	movlw	0
  1561  005324  6E18               	movwf	(___wmul@multiplicand+1)^0,c
  1562  005326  0E19               	movlw	25
  1563  005328  6E17               	movwf	___wmul@multiplicand^0,c
  1564  00532A  ECE8  F031         	call	___wmul	;wreg free
  1565  00532E  0EE1               	movlw	low (_arr_task+21)
  1566  005330  2415               	addwf	?___wmul^0,w,c
  1567  005332  6EE1               	movwf	fsr1l,c
  1568  005334  0E01               	movlw	high (_arr_task+21)
  1569  005336  2016               	addwfc	(?___wmul+1)^0,w,c
  1570  005338  6EE2               	movwf	fsr1h,c
  1571  00533A  CFDE FFE6          	movff	postinc2,postinc1
  1572  00533E  CFDD FFE5          	movff	postdec2,postdec1
  1573  005342                     
  1574                           ;Linked_List.c: 121:             int pos = arr_task[id].next;
  1575  005342  C01B  F015         	movff	remove_task@id,___wmul@multiplier
  1576  005346  C01C  F016         	movff	remove_task@id+1,___wmul@multiplier+1
  1577  00534A  0E00               	movlw	0
  1578  00534C  6E18               	movwf	(___wmul@multiplicand+1)^0,c
  1579  00534E  0E19               	movlw	25
  1580  005350  6E17               	movwf	___wmul@multiplicand^0,c
  1581  005352  ECE8  F031         	call	___wmul	;wreg free
  1582  005356  0EE1               	movlw	low (_arr_task+21)
  1583  005358  2415               	addwf	?___wmul^0,w,c
  1584  00535A  6ED9               	movwf	fsr2l,c
  1585  00535C  0E01               	movlw	high (_arr_task+21)
  1586  00535E  2016               	addwfc	(?___wmul+1)^0,w,c
  1587  005360  6EDA               	movwf	fsr2h,c
  1588  005362  CFDE F027          	movff	postinc2,remove_task@pos
  1589  005366  CFDD F028          	movff	postdec2,remove_task@pos+1
  1590  00536A                     
  1591                           ;Linked_List.c: 122:             int delay = arr_task[id].delay;
  1592  00536A  C01B  F015         	movff	remove_task@id,___wmul@multiplier
  1593  00536E  C01C  F016         	movff	remove_task@id+1,___wmul@multiplier+1
  1594  005372  0E00               	movlw	0
  1595  005374  6E18               	movwf	(___wmul@multiplicand+1)^0,c
  1596  005376  0E19               	movlw	25
  1597  005378  6E17               	movwf	___wmul@multiplicand^0,c
  1598  00537A  ECE8  F031         	call	___wmul	;wreg free
  1599  00537E  0ED4               	movlw	low (_arr_task+8)
  1600  005380  2415               	addwf	?___wmul^0,w,c
  1601  005382  6ED9               	movwf	fsr2l,c
  1602  005384  0E01               	movlw	high (_arr_task+8)
  1603  005386  2016               	addwfc	(?___wmul+1)^0,w,c
  1604  005388  6EDA               	movwf	fsr2h,c
  1605  00538A  CFDE F023          	movff	postinc2,remove_task@delay
  1606  00538E  CFDD F024          	movff	postdec2,remove_task@delay+1
  1607                           
  1608                           ;Linked_List.c: 123:             while (pos != - 1) {
  1609  005392  EFFC  F029         	goto	l5264
  1610  005396                     l5262:
  1611                           
  1612                           ;Linked_List.c: 124:                 arr_task[pos].delay -= delay;
  1613  005396  C027  F015         	movff	remove_task@pos,___wmul@multiplier
  1614  00539A  C028  F016         	movff	remove_task@pos+1,___wmul@multiplier+1
  1615  00539E  0E00               	movlw	0
  1616  0053A0  6E18               	movwf	(___wmul@multiplicand+1)^0,c
  1617  0053A2  0E19               	movlw	25
  1618  0053A4  6E17               	movwf	___wmul@multiplicand^0,c
  1619  0053A6  ECE8  F031         	call	___wmul	;wreg free
  1620  0053AA  0ED4               	movlw	low (_arr_task+8)
  1621  0053AC  2415               	addwf	?___wmul^0,w,c
  1622  0053AE  6ED9               	movwf	fsr2l,c
  1623  0053B0  0E01               	movlw	high (_arr_task+8)
  1624  0053B2  2016               	addwfc	(?___wmul+1)^0,w,c
  1625  0053B4  6EDA               	movwf	fsr2h,c
  1626  0053B6  5023               	movf	remove_task@delay^0,w,c
  1627  0053B8  5EDE               	subwf	postinc2,f,c
  1628  0053BA  5024               	movf	(remove_task@delay+1)^0,w,c
  1629  0053BC  5ADE               	subwfb	postinc2,f,c
  1630  0053BE  0E00               	movlw	0
  1631  0053C0  BE24               	btfsc	(remove_task@delay+1)^0,7,c
  1632  0053C2  0EFF               	movlw	255
  1633  0053C4  5ADE               	subwfb	postinc2,f,c
  1634  0053C6  5ADE               	subwfb	postinc2,f,c
  1635  0053C8  5ADE               	subwfb	postinc2,f,c
  1636  0053CA  5ADE               	subwfb	postinc2,f,c
  1637  0053CC  5ADE               	subwfb	postinc2,f,c
  1638  0053CE  5ADE               	subwfb	postinc2,f,c
  1639                           
  1640                           ;Linked_List.c: 125:                 pos = arr_task[id].next;
  1641  0053D0  C01B  F015         	movff	remove_task@id,___wmul@multiplier
  1642  0053D4  C01C  F016         	movff	remove_task@id+1,___wmul@multiplier+1
  1643  0053D8  0E00               	movlw	0
  1644  0053DA  6E18               	movwf	(___wmul@multiplicand+1)^0,c
  1645  0053DC  0E19               	movlw	25
  1646  0053DE  6E17               	movwf	___wmul@multiplicand^0,c
  1647  0053E0  ECE8  F031         	call	___wmul	;wreg free
  1648  0053E4  0EE1               	movlw	low (_arr_task+21)
  1649  0053E6  2415               	addwf	?___wmul^0,w,c
  1650  0053E8  6ED9               	movwf	fsr2l,c
  1651  0053EA  0E01               	movlw	high (_arr_task+21)
  1652  0053EC  2016               	addwfc	(?___wmul+1)^0,w,c
  1653  0053EE  6EDA               	movwf	fsr2h,c
  1654  0053F0  CFDE F027          	movff	postinc2,remove_task@pos
  1655  0053F4  CFDD F028          	movff	postdec2,remove_task@pos+1
  1656  0053F8                     l5264:
  1657                           
  1658                           ;Linked_List.c: 123:             while (pos != - 1) {
  1659  0053F8  2827               	incf	remove_task@pos^0,w,c
  1660  0053FA  E106               	bnz	u6411
  1661  0053FC  2828               	incf	(remove_task@pos+1)^0,w,c
  1662  0053FE  A4D8               	btfss	status,2,c
  1663  005400  EF04  F02A         	goto	u6411
  1664  005404  EF06  F02A         	goto	u6410
  1665  005408                     u6411:
  1666  005408  EFCB  F029         	goto	l5262
  1667  00540C                     u6410:
  1668  00540C                     l5266:
  1669                           
  1670                           ;Linked_List.c: 130:     arr_task[id].delay = 0;
  1671  00540C  C01B  F015         	movff	remove_task@id,___wmul@multiplier
  1672  005410  C01C  F016         	movff	remove_task@id+1,___wmul@multiplier+1
  1673  005414  0E00               	movlw	0
  1674  005416  6E18               	movwf	(___wmul@multiplicand+1)^0,c
  1675  005418  0E19               	movlw	25
  1676  00541A  6E17               	movwf	___wmul@multiplicand^0,c
  1677  00541C  ECE8  F031         	call	___wmul	;wreg free
  1678  005420  0ED4               	movlw	low (_arr_task+8)
  1679  005422  2415               	addwf	?___wmul^0,w,c
  1680  005424  6ED9               	movwf	fsr2l,c
  1681  005426  0E01               	movlw	high (_arr_task+8)
  1682  005428  2016               	addwfc	(?___wmul+1)^0,w,c
  1683  00542A  6EDA               	movwf	fsr2h,c
  1684  00542C  0E07               	movlw	7
  1685  00542E                     u6421:
  1686  00542E  6ADE               	clrf	postinc2,c
  1687  005430  06E8               	decf	wreg,f,c
  1688  005432  E2FD               	bc	u6421
  1689                           
  1690                           ;Linked_List.c: 131:     arr_task[id].period = 0;
  1691  005434  C01B  F015         	movff	remove_task@id,___wmul@multiplier
  1692  005438  C01C  F016         	movff	remove_task@id+1,___wmul@multiplier+1
  1693  00543C  0E00               	movlw	0
  1694  00543E  6E18               	movwf	(___wmul@multiplicand+1)^0,c
  1695  005440  0E19               	movlw	25
  1696  005442  6E17               	movwf	___wmul@multiplicand^0,c
  1697  005444  ECE8  F031         	call	___wmul	;wreg free
  1698  005448  0ECC               	movlw	low _arr_task
  1699  00544A  2415               	addwf	?___wmul^0,w,c
  1700  00544C  6ED9               	movwf	fsr2l,c
  1701  00544E  0E01               	movlw	high _arr_task
  1702  005450  2016               	addwfc	(?___wmul+1)^0,w,c
  1703  005452  6EDA               	movwf	fsr2h,c
  1704  005454  0E07               	movlw	7
  1705  005456                     u6431:
  1706  005456  6ADE               	clrf	postinc2,c
  1707  005458  06E8               	decf	wreg,f,c
  1708  00545A  E2FD               	bc	u6431
  1709                           
  1710                           ;Linked_List.c: 132:     arr_task[id].next = -1;
  1711  00545C  C01B  F015         	movff	remove_task@id,___wmul@multiplier
  1712  005460  C01C  F016         	movff	remove_task@id+1,___wmul@multiplier+1
  1713  005464  0E00               	movlw	0
  1714  005466  6E18               	movwf	(___wmul@multiplicand+1)^0,c
  1715  005468  0E19               	movlw	25
  1716  00546A  6E17               	movwf	___wmul@multiplicand^0,c
  1717  00546C  ECE8  F031         	call	___wmul	;wreg free
  1718  005470  0EE1               	movlw	low (_arr_task+21)
  1719  005472  2415               	addwf	?___wmul^0,w,c
  1720  005474  6ED9               	movwf	fsr2l,c
  1721  005476  0E01               	movlw	high (_arr_task+21)
  1722  005478  2016               	addwfc	(?___wmul+1)^0,w,c
  1723  00547A  6EDA               	movwf	fsr2h,c
  1724  00547C  0EFF               	movlw	255
  1725  00547E  6EDE               	movwf	postinc2,c
  1726  005480  0EFF               	movlw	255
  1727  005482  6EDD               	movwf	postdec2,c
  1728                           
  1729                           ;Linked_List.c: 133:     arr_task[id].run_flag = -1;
  1730  005484  C01B  F015         	movff	remove_task@id,___wmul@multiplier
  1731  005488  C01C  F016         	movff	remove_task@id+1,___wmul@multiplier+1
  1732  00548C  0E00               	movlw	0
  1733  00548E  6E18               	movwf	(___wmul@multiplicand+1)^0,c
  1734  005490  0E19               	movlw	25
  1735  005492  6E17               	movwf	___wmul@multiplicand^0,c
  1736  005494  ECE8  F031         	call	___wmul	;wreg free
  1737  005498  0EDC               	movlw	low (_arr_task+16)
  1738  00549A  2415               	addwf	?___wmul^0,w,c
  1739  00549C  6ED9               	movwf	fsr2l,c
  1740  00549E  0E01               	movlw	high (_arr_task+16)
  1741  0054A0  2016               	addwfc	(?___wmul+1)^0,w,c
  1742  0054A2  6EDA               	movwf	fsr2h,c
  1743  0054A4  0EFF               	movlw	255
  1744  0054A6  6EDE               	movwf	postinc2,c
  1745  0054A8  0EFF               	movlw	255
  1746  0054AA  6EDD               	movwf	postdec2,c
  1747                           
  1748                           ;Linked_List.c: 134:     arr_task[id].pTask = ((void*)0);
  1749  0054AC  C01B  F015         	movff	remove_task@id,___wmul@multiplier
  1750  0054B0  C01C  F016         	movff	remove_task@id+1,___wmul@multiplier+1
  1751  0054B4  0E00               	movlw	0
  1752  0054B6  6E18               	movwf	(___wmul@multiplicand+1)^0,c
  1753  0054B8  0E19               	movlw	25
  1754  0054BA  6E17               	movwf	___wmul@multiplicand^0,c
  1755  0054BC  ECE8  F031         	call	___wmul	;wreg free
  1756  0054C0  0EDE               	movlw	low (_arr_task+18)
  1757  0054C2  2415               	addwf	?___wmul^0,w,c
  1758  0054C4  6ED9               	movwf	fsr2l,c
  1759  0054C6  0E01               	movlw	high (_arr_task+18)
  1760  0054C8  2016               	addwfc	(?___wmul+1)^0,w,c
  1761  0054CA  6EDA               	movwf	fsr2h,c
  1762  0054CC  0E00               	movlw	0
  1763  0054CE  6EDE               	movwf	postinc2,c
  1764  0054D0  0E00               	movlw	0
  1765  0054D2  6EDE               	movwf	postinc2,c
  1766  0054D4  0E00               	movlw	0
  1767  0054D6  6EDE               	movwf	postinc2,c
  1768                           
  1769                           ;Linked_List.c: 135:     arr_task[id].data = ((void*)0);
  1770  0054D8  C01B  F015         	movff	remove_task@id,___wmul@multiplier
  1771  0054DC  C01C  F016         	movff	remove_task@id+1,___wmul@multiplier+1
  1772  0054E0  0E00               	movlw	0
  1773  0054E2  6E18               	movwf	(___wmul@multiplicand+1)^0,c
  1774  0054E4  0E19               	movlw	25
  1775  0054E6  6E17               	movwf	___wmul@multiplicand^0,c
  1776  0054E8  ECE8  F031         	call	___wmul	;wreg free
  1777  0054EC  0EE3               	movlw	low (_arr_task+23)
  1778  0054EE  2415               	addwf	?___wmul^0,w,c
  1779  0054F0  6ED9               	movwf	fsr2l,c
  1780  0054F2  0E01               	movlw	high (_arr_task+23)
  1781  0054F4  2016               	addwfc	(?___wmul+1)^0,w,c
  1782  0054F6  6EDA               	movwf	fsr2h,c
  1783  0054F8  0E00               	movlw	0
  1784  0054FA  6EDE               	movwf	postinc2,c
  1785  0054FC  0E00               	movlw	0
  1786  0054FE  6EDD               	movwf	postdec2,c
  1787  005500                     
  1788                           ;Linked_List.c: 136:     size--;
  1789  005500  063E               	decf	_size^0,f,c
  1790  005502  A0D8               	btfss	status,0,c
  1791  005504  063F               	decf	(_size+1)^0,f,c
  1792  005506  0012               	return		;funcret
  1793  005508                     __end_of_remove_task:
  1794                           	opt callstack 0
  1795                           
  1796 ;; *************** function _System_init *****************
  1797 ;; Defined at:
  1798 ;;		line 41 in file "System_init.c"
  1799 ;; Parameters:    Size  Location     Type
  1800 ;;		None
  1801 ;; Auto vars:     Size  Location     Type
  1802 ;;		None
  1803 ;; Return value:  Size  Location     Type
  1804 ;;                  1    wreg      void 
  1805 ;; Registers used:
  1806 ;;		wreg, fsr2l, fsr2h, status,2, status,0, tblptrl, tblptrh, tblptru, prodl, prodh, cstack
  1807 ;; Tracked objects:
  1808 ;;		On entry : 0/0
  1809 ;;		On exit  : 0/0
  1810 ;;		Unchanged: 0/0
  1811 ;; Data sizes:     COMRAM   BANK0   BANK1   BANK2   BANK3   BANK4   BANK5   BANK6   BANK7   BANK8   BANK9  BANK10  BANK1
      +1  BANK12  BANK13  BANK14  BANK15
  1812 ;;      Params:         0       0       0       0       0       0       0       0       0       0       0       0       
      +0       0       0       0       0
  1813 ;;      Locals:         0       0       0       0       0       0       0       0       0       0       0       0       
      +0       0       0       0       0
  1814 ;;      Temps:          0       0       0       0       0       0       0       0       0       0       0       0       
      +0       0       0       0       0
  1815 ;;      Totals:         0       0       0       0       0       0       0       0       0       0       0       0       
      +0       0       0       0       0
  1816 ;;Total ram usage:        0 bytes
  1817 ;; Hardware stack levels used:    1
  1818 ;; Hardware stack levels required when called:    8
  1819 ;; This function calls:
  1820 ;;		_calculate_init_tmr0
  1821 ;;		_calculate_init_tmr1
  1822 ;;		_init_LED
  1823 ;;		_init_arr_task
  1824 ;;		_init_task
  1825 ;;		_interrupt_init
  1826 ;;		_osc_init
  1827 ;;		_start_timer
  1828 ;; This function is called by:
  1829 ;;		_main
  1830 ;; This function uses a non-reentrant model
  1831 ;;
  1832                           
  1833                           	psect	text6
  1834  006334                     __ptext6:
  1835                           	opt callstack 0
  1836  006334                     _System_init:
  1837                           	opt callstack 22
  1838  006334                     
  1839                           ;System_init.c: 42:     init_LED();
  1840  006334  EC4F  F032         	call	_init_LED	;wreg free
  1841                           
  1842                           ;System_init.c: 45:     osc_init();
  1843  006338  EC54  F032         	call	_osc_init	;wreg free
  1844  00633C                     
  1845                           ;System_init.c: 46:     interrupt_init();
  1846  00633C  EC57  F032         	call	_interrupt_init	;wreg free
  1847  006340                     
  1848                           ;System_init.c: 47:     calculate_init_tmr0();
  1849  006340  EC7A  F02C         	call	_calculate_init_tmr0	;wreg free
  1850  006344                     
  1851                           ;System_init.c: 48:     calculate_init_tmr1();
  1852  006344  EC31  F02D         	call	_calculate_init_tmr1	;wreg free
  1853  006348                     
  1854                           ;System_init.c: 49:     init_arr_task();
  1855  006348  EC73  F02E         	call	_init_arr_task	;wreg free
  1856  00634C                     
  1857                           ;System_init.c: 50:     init_task();
  1858  00634C  EC04  F02F         	call	_init_task	;wreg free
  1859  006350                     
  1860                           ;System_init.c: 51:     start_timer(0);
  1861  006350  0E00               	movlw	0
  1862  006352  6E16               	movwf	(start_timer@timer_opt+1)^0,c
  1863  006354  0E00               	movlw	0
  1864  006356  6E15               	movwf	start_timer@timer_opt^0,c
  1865  006358  ECCF  F031         	call	_start_timer	;wreg free
  1866  00635C                     
  1867                           ;System_init.c: 52:     start_timer(1);
  1868  00635C  0E00               	movlw	0
  1869  00635E  6E16               	movwf	(start_timer@timer_opt+1)^0,c
  1870  006360  0E01               	movlw	1
  1871  006362  6E15               	movwf	start_timer@timer_opt^0,c
  1872  006364  ECCF  F031         	call	_start_timer	;wreg free
  1873  006368  0012               	return		;funcret
  1874  00636A                     __end_of_System_init:
  1875                           	opt callstack 0
  1876                           
  1877 ;; *************** function _start_timer *****************
  1878 ;; Defined at:
  1879 ;;		line 16 in file "Driver.c"
  1880 ;; Parameters:    Size  Location     Type
  1881 ;;  timer_opt       2   20[COMRAM] unsigned int 
  1882 ;; Auto vars:     Size  Location     Type
  1883 ;;		None
  1884 ;; Return value:  Size  Location     Type
  1885 ;;                  1    wreg      void 
  1886 ;; Registers used:
  1887 ;;		wreg, status,2, status,0, cstack
  1888 ;; Tracked objects:
  1889 ;;		On entry : 0/0
  1890 ;;		On exit  : 0/0
  1891 ;;		Unchanged: 0/0
  1892 ;; Data sizes:     COMRAM   BANK0   BANK1   BANK2   BANK3   BANK4   BANK5   BANK6   BANK7   BANK8   BANK9  BANK10  BANK1
      +1  BANK12  BANK13  BANK14  BANK15
  1893 ;;      Params:         2       0       0       0       0       0       0       0       0       0       0       0       
      +0       0       0       0       0
  1894 ;;      Locals:         0       0       0       0       0       0       0       0       0       0       0       0       
      +0       0       0       0       0
  1895 ;;      Temps:          0       0       0       0       0       0       0       0       0       0       0       0       
      +0       0       0       0       0
  1896 ;;      Totals:         2       0       0       0       0       0       0       0       0       0       0       0       
      +0       0       0       0       0
  1897 ;;Total ram usage:        2 bytes
  1898 ;; Hardware stack levels used:    1
  1899 ;; Hardware stack levels required when called:    5
  1900 ;; This function calls:
  1901 ;;		_tmr0_init
  1902 ;;		_tmr1_init
  1903 ;; This function is called by:
  1904 ;;		_System_init
  1905 ;; This function uses a non-reentrant model
  1906 ;;
  1907                           
  1908                           	psect	text7
  1909  00639E                     __ptext7:
  1910                           	opt callstack 0
  1911  00639E                     _start_timer:
  1912                           	opt callstack 24
  1913  00639E                     
  1914                           ;Driver.c: 17:     if (timer_opt == 0) {
  1915  00639E  5015               	movf	start_timer@timer_opt^0,w,c
  1916  0063A0  1016               	iorwf	(start_timer@timer_opt+1)^0,w,c
  1917  0063A2  A4D8               	btfss	status,2,c
  1918  0063A4  EFD6  F031         	goto	u4211
  1919  0063A8  EFD8  F031         	goto	u4210
  1920  0063AC                     u4211:
  1921  0063AC  EFDC  F031         	goto	l3880
  1922  0063B0                     u4210:
  1923  0063B0                     
  1924                           ;Driver.c: 18:         tmr0_init();
  1925  0063B0  EC4A  F032         	call	_tmr0_init	;wreg free
  1926                           
  1927                           ;Driver.c: 19:     }
  1928  0063B4  EFE7  F031         	goto	l168
  1929  0063B8                     l3880:
  1930  0063B8  0415               	decf	start_timer@timer_opt^0,w,c
  1931  0063BA  1016               	iorwf	(start_timer@timer_opt+1)^0,w,c
  1932  0063BC  A4D8               	btfss	status,2,c
  1933  0063BE  EFE3  F031         	goto	u4221
  1934  0063C2  EFE5  F031         	goto	u4220
  1935  0063C6                     u4221:
  1936  0063C6  EFE7  F031         	goto	l168
  1937  0063CA                     u4220:
  1938  0063CA                     
  1939                           ;Driver.c: 21:         tmr1_init();
  1940  0063CA  EC45  F032         	call	_tmr1_init	;wreg free
  1941  0063CE                     l168:
  1942  0063CE  0012               	return		;funcret
  1943  0063D0                     __end_of_start_timer:
  1944                           	opt callstack 0
  1945                           
  1946 ;; *************** function _tmr1_init *****************
  1947 ;; Defined at:
  1948 ;;		line 10 in file "Driver.c"
  1949 ;; Parameters:    Size  Location     Type
  1950 ;;		None
  1951 ;; Auto vars:     Size  Location     Type
  1952 ;;		None
  1953 ;; Return value:  Size  Location     Type
  1954 ;;                  1    wreg      void 
  1955 ;; Registers used:
  1956 ;;		wreg, status,2
  1957 ;; Tracked objects:
  1958 ;;		On entry : 0/0
  1959 ;;		On exit  : 0/0
  1960 ;;		Unchanged: 0/0
  1961 ;; Data sizes:     COMRAM   BANK0   BANK1   BANK2   BANK3   BANK4   BANK5   BANK6   BANK7   BANK8   BANK9  BANK10  BANK1
      +1  BANK12  BANK13  BANK14  BANK15
  1962 ;;      Params:         0       0       0       0       0       0       0       0       0       0       0       0       
      +0       0       0       0       0
  1963 ;;      Locals:         0       0       0       0       0       0       0       0       0       0       0       0       
      +0       0       0       0       0
  1964 ;;      Temps:          0       0       0       0       0       0       0       0       0       0       0       0       
      +0       0       0       0       0
  1965 ;;      Totals:         0       0       0       0       0       0       0       0       0       0       0       0       
      +0       0       0       0       0
  1966 ;;Total ram usage:        0 bytes
  1967 ;; Hardware stack levels used:    1
  1968 ;; Hardware stack levels required when called:    4
  1969 ;; This function calls:
  1970 ;;		Nothing
  1971 ;; This function is called by:
  1972 ;;		_start_timer
  1973 ;; This function uses a non-reentrant model
  1974 ;;
  1975                           
  1976                           	psect	text8
  1977  00648A                     __ptext8:
  1978                           	opt callstack 0
  1979  00648A                     _tmr1_init:
  1980                           	opt callstack 24
  1981  00648A                     
  1982                           ;Driver.c: 11:     PIE1bits.TMR1IE = 1;
  1983  00648A  809D               	bsf	157,0,c	;volatile
  1984                           
  1985                           ;Driver.c: 12:     PIR1bits.TMR1IF = 0;
  1986  00648C  909E               	bcf	158,0,c	;volatile
  1987  00648E                     
  1988                           ;Driver.c: 13:     T1CON = 0b10000001;
  1989  00648E  0E81               	movlw	129
  1990  006490  6ECD               	movwf	205,c	;volatile
  1991  006492  0012               	return		;funcret
  1992  006494                     __end_of_tmr1_init:
  1993                           	opt callstack 0
  1994                           
  1995 ;; *************** function _tmr0_init *****************
  1996 ;; Defined at:
  1997 ;;		line 4 in file "Driver.c"
  1998 ;; Parameters:    Size  Location     Type
  1999 ;;		None
  2000 ;; Auto vars:     Size  Location     Type
  2001 ;;		None
  2002 ;; Return value:  Size  Location     Type
  2003 ;;                  1    wreg      void 
  2004 ;; Registers used:
  2005 ;;		wreg, status,2
  2006 ;; Tracked objects:
  2007 ;;		On entry : 0/0
  2008 ;;		On exit  : 0/0
  2009 ;;		Unchanged: 0/0
  2010 ;; Data sizes:     COMRAM   BANK0   BANK1   BANK2   BANK3   BANK4   BANK5   BANK6   BANK7   BANK8   BANK9  BANK10  BANK1
      +1  BANK12  BANK13  BANK14  BANK15
  2011 ;;      Params:         0       0       0       0       0       0       0       0       0       0       0       0       
      +0       0       0       0       0
  2012 ;;      Locals:         0       0       0       0       0       0       0       0       0       0       0       0       
      +0       0       0       0       0
  2013 ;;      Temps:          0       0       0       0       0       0       0       0       0       0       0       0       
      +0       0       0       0       0
  2014 ;;      Totals:         0       0       0       0       0       0       0       0       0       0       0       0       
      +0       0       0       0       0
  2015 ;;Total ram usage:        0 bytes
  2016 ;; Hardware stack levels used:    1
  2017 ;; Hardware stack levels required when called:    4
  2018 ;; This function calls:
  2019 ;;		Nothing
  2020 ;; This function is called by:
  2021 ;;		_start_timer
  2022 ;; This function uses a non-reentrant model
  2023 ;;
  2024                           
  2025                           	psect	text9
  2026  006494                     __ptext9:
  2027                           	opt callstack 0
  2028  006494                     _tmr0_init:
  2029                           	opt callstack 24
  2030  006494                     
  2031                           ;Driver.c: 5:     INTCONbits.TMR0IE = 1;
  2032  006494  8AF2               	bsf	242,5,c	;volatile
  2033                           
  2034                           ;Driver.c: 6:     INTCONbits.TMR0IF = 0;
  2035  006496  94F2               	bcf	242,2,c	;volatile
  2036  006498                     
  2037                           ;Driver.c: 7:     T0CON = 0b10001000;
  2038  006498  0E88               	movlw	136
  2039  00649A  6ED5               	movwf	213,c	;volatile
  2040  00649C  0012               	return		;funcret
  2041  00649E                     __end_of_tmr0_init:
  2042                           	opt callstack 0
  2043                           
  2044 ;; *************** function _osc_init *****************
  2045 ;; Defined at:
  2046 ;;		line 7 in file "System_init.c"
  2047 ;; Parameters:    Size  Location     Type
  2048 ;;		None
  2049 ;; Auto vars:     Size  Location     Type
  2050 ;;		None
  2051 ;; Return value:  Size  Location     Type
  2052 ;;                  1    wreg      void 
  2053 ;; Registers used:
  2054 ;;		wreg, status,2
  2055 ;; Tracked objects:
  2056 ;;		On entry : 0/0
  2057 ;;		On exit  : 0/0
  2058 ;;		Unchanged: 0/0
  2059 ;; Data sizes:     COMRAM   BANK0   BANK1   BANK2   BANK3   BANK4   BANK5   BANK6   BANK7   BANK8   BANK9  BANK10  BANK1
      +1  BANK12  BANK13  BANK14  BANK15
  2060 ;;      Params:         0       0       0       0       0       0       0       0       0       0       0       0       
      +0       0       0       0       0
  2061 ;;      Locals:         0       0       0       0       0       0       0       0       0       0       0       0       
      +0       0       0       0       0
  2062 ;;      Temps:          0       0       0       0       0       0       0       0       0       0       0       0       
      +0       0       0       0       0
  2063 ;;      Totals:         0       0       0       0       0       0       0       0       0       0       0       0       
      +0       0       0       0       0
  2064 ;;Total ram usage:        0 bytes
  2065 ;; Hardware stack levels used:    1
  2066 ;; Hardware stack levels required when called:    4
  2067 ;; This function calls:
  2068 ;;		Nothing
  2069 ;; This function is called by:
  2070 ;;		_System_init
  2071 ;; This function uses a non-reentrant model
  2072 ;;
  2073                           
  2074                           	psect	text10
  2075  0064A8                     __ptext10:
  2076                           	opt callstack 0
  2077  0064A8                     _osc_init:
  2078                           	opt callstack 25
  2079  0064A8                     
  2080                           ;System_init.c: 8:     OSCCON = 0x70;
  2081  0064A8  0E70               	movlw	112
  2082  0064AA  6ED3               	movwf	211,c	;volatile
  2083  0064AC  0012               	return		;funcret
  2084  0064AE                     __end_of_osc_init:
  2085                           	opt callstack 0
  2086                           
  2087 ;; *************** function _interrupt_init *****************
  2088 ;; Defined at:
  2089 ;;		line 16 in file "System_init.c"
  2090 ;; Parameters:    Size  Location     Type
  2091 ;;		None
  2092 ;; Auto vars:     Size  Location     Type
  2093 ;;		None
  2094 ;; Return value:  Size  Location     Type
  2095 ;;                  1    wreg      void 
  2096 ;; Registers used:
  2097 ;;		None
  2098 ;; Tracked objects:
  2099 ;;		On entry : 0/0
  2100 ;;		On exit  : 0/0
  2101 ;;		Unchanged: 0/0
  2102 ;; Data sizes:     COMRAM   BANK0   BANK1   BANK2   BANK3   BANK4   BANK5   BANK6   BANK7   BANK8   BANK9  BANK10  BANK1
      +1  BANK12  BANK13  BANK14  BANK15
  2103 ;;      Params:         0       0       0       0       0       0       0       0       0       0       0       0       
      +0       0       0       0       0
  2104 ;;      Locals:         0       0       0       0       0       0       0       0       0       0       0       0       
      +0       0       0       0       0
  2105 ;;      Temps:          0       0       0       0       0       0       0       0       0       0       0       0       
      +0       0       0       0       0
  2106 ;;      Totals:         0       0       0       0       0       0       0       0       0       0       0       0       
      +0       0       0       0       0
  2107 ;;Total ram usage:        0 bytes
  2108 ;; Hardware stack levels used:    1
  2109 ;; Hardware stack levels required when called:    4
  2110 ;; This function calls:
  2111 ;;		Nothing
  2112 ;; This function is called by:
  2113 ;;		_System_init
  2114 ;; This function uses a non-reentrant model
  2115 ;;
  2116                           
  2117                           	psect	text11
  2118  0064AE                     __ptext11:
  2119                           	opt callstack 0
  2120  0064AE                     _interrupt_init:
  2121                           	opt callstack 25
  2122  0064AE                     
  2123                           ;System_init.c: 17:     INTCONbits.GIE = 1;
  2124  0064AE  8EF2               	bsf	242,7,c	;volatile
  2125                           
  2126                           ;System_init.c: 18:     INTCONbits.PEIE = 1;
  2127  0064B0  8CF2               	bsf	242,6,c	;volatile
  2128  0064B2  0012               	return		;funcret
  2129  0064B4                     __end_of_interrupt_init:
  2130                           	opt callstack 0
  2131                           
  2132 ;; *************** function _init_task *****************
  2133 ;; Defined at:
  2134 ;;		line 21 in file "System_init.c"
  2135 ;; Parameters:    Size  Location     Type
  2136 ;;		None
  2137 ;; Auto vars:     Size  Location     Type
  2138 ;;		None
  2139 ;; Return value:  Size  Location     Type
  2140 ;;                  1    wreg      void 
  2141 ;; Registers used:
  2142 ;;		wreg, fsr2l, fsr2h, status,2, status,0, prodl, prodh, cstack
  2143 ;; Tracked objects:
  2144 ;;		On entry : 0/0
  2145 ;;		On exit  : 0/0
  2146 ;;		Unchanged: 0/0
  2147 ;; Data sizes:     COMRAM   BANK0   BANK1   BANK2   BANK3   BANK4   BANK5   BANK6   BANK7   BANK8   BANK9  BANK10  BANK1
      +1  BANK12  BANK13  BANK14  BANK15
  2148 ;;      Params:         0       0       0       0       0       0       0       0       0       0       0       0       
      +0       0       0       0       0
  2149 ;;      Locals:         0       0       0       0       0       0       0       0       0       0       0       0       
      +0       0       0       0       0
  2150 ;;      Temps:          0       0       0       0       0       0       0       0       0       0       0       0       
      +0       0       0       0       0
  2151 ;;      Totals:         0       0       0       0       0       0       0       0       0       0       0       0       
      +0       0       0       0       0
  2152 ;;Total ram usage:        0 bytes
  2153 ;; Hardware stack levels used:    1
  2154 ;; Hardware stack levels required when called:    6
  2155 ;; This function calls:
  2156 ;;		_add_task
  2157 ;; This function is called by:
  2158 ;;		_System_init
  2159 ;; This function uses a non-reentrant model
  2160 ;;
  2161                           
  2162                           	psect	text12
  2163  005E08                     __ptext12:
  2164                           	opt callstack 0
  2165  005E08                     _init_task:
  2166                           	opt callstack 23
  2167  005E08                     
  2168                           ;System_init.c: 23:     add_task(0, 1000, toggle_LED_0, 0);
  2169  005E08  0E00               	movlw	0
  2170  005E0A  6E1B               	movwf	add_task@delay^0,c
  2171  005E0C  0E00               	movlw	0
  2172  005E0E  6E1C               	movwf	(add_task@delay+1)^0,c
  2173  005E10  0E00               	movlw	0
  2174  005E12  6E1D               	movwf	(add_task@delay+2)^0,c
  2175  005E14  0E00               	movlw	0
  2176  005E16  6E1E               	movwf	(add_task@delay+3)^0,c
  2177  005E18  0E00               	movlw	0
  2178  005E1A  6E1F               	movwf	(add_task@delay+4)^0,c
  2179  005E1C  0E00               	movlw	0
  2180  005E1E  6E20               	movwf	(add_task@delay+5)^0,c
  2181  005E20  0E00               	movlw	0
  2182  005E22  6E21               	movwf	(add_task@delay+6)^0,c
  2183  005E24  0E00               	movlw	0
  2184  005E26  6E22               	movwf	(add_task@delay+7)^0,c
  2185  005E28  0EE8               	movlw	232
  2186  005E2A  6E23               	movwf	add_task@period^0,c
  2187  005E2C  0E03               	movlw	3
  2188  005E2E  6E24               	movwf	(add_task@period+1)^0,c
  2189  005E30  0E00               	movlw	0
  2190  005E32  6E25               	movwf	(add_task@period+2)^0,c
  2191  005E34  0E00               	movlw	0
  2192  005E36  6E26               	movwf	(add_task@period+3)^0,c
  2193  005E38  0E00               	movlw	0
  2194  005E3A  6E27               	movwf	(add_task@period+4)^0,c
  2195  005E3C  0E00               	movlw	0
  2196  005E3E  6E28               	movwf	(add_task@period+5)^0,c
  2197  005E40  0E00               	movlw	0
  2198  005E42  6E29               	movwf	(add_task@period+6)^0,c
  2199  005E44  0E00               	movlw	0
  2200  005E46  6E2A               	movwf	(add_task@period+7)^0,c
  2201  005E48  0E52               	movlw	low _toggle_LED_0
  2202  005E4A  6E2B               	movwf	add_task@callback^0,c
  2203  005E4C  0E64               	movlw	high _toggle_LED_0
  2204  005E4E  6E2C               	movwf	(add_task@callback+1)^0,c
  2205  005E50  0E00               	movlw	low (_toggle_LED_0 shr (0+16))
  2206  005E52  6E2D               	movwf	(add_task@callback+2)^0,c
  2207  005E54  0E00               	movlw	0
  2208  005E56  6E2E               	movwf	add_task@data^0,c
  2209  005E58  0E00               	movlw	0
  2210  005E5A  6E2F               	movwf	(add_task@data+1)^0,c
  2211  005E5C  EC6E  F01D         	call	_add_task	;wreg free
  2212                           
  2213                           ;System_init.c: 25:     add_task(0, 2000, toggle_LED_2, 0);
  2214  005E60  0E00               	movlw	0
  2215  005E62  6E1B               	movwf	add_task@delay^0,c
  2216  005E64  0E00               	movlw	0
  2217  005E66  6E1C               	movwf	(add_task@delay+1)^0,c
  2218  005E68  0E00               	movlw	0
  2219  005E6A  6E1D               	movwf	(add_task@delay+2)^0,c
  2220  005E6C  0E00               	movlw	0
  2221  005E6E  6E1E               	movwf	(add_task@delay+3)^0,c
  2222  005E70  0E00               	movlw	0
  2223  005E72  6E1F               	movwf	(add_task@delay+4)^0,c
  2224  005E74  0E00               	movlw	0
  2225  005E76  6E20               	movwf	(add_task@delay+5)^0,c
  2226  005E78  0E00               	movlw	0
  2227  005E7A  6E21               	movwf	(add_task@delay+6)^0,c
  2228  005E7C  0E00               	movlw	0
  2229  005E7E  6E22               	movwf	(add_task@delay+7)^0,c
  2230  005E80  0ED0               	movlw	208
  2231  005E82  6E23               	movwf	add_task@period^0,c
  2232  005E84  0E07               	movlw	7
  2233  005E86  6E24               	movwf	(add_task@period+1)^0,c
  2234  005E88  0E00               	movlw	0
  2235  005E8A  6E25               	movwf	(add_task@period+2)^0,c
  2236  005E8C  0E00               	movlw	0
  2237  005E8E  6E26               	movwf	(add_task@period+3)^0,c
  2238  005E90  0E00               	movlw	0
  2239  005E92  6E27               	movwf	(add_task@period+4)^0,c
  2240  005E94  0E00               	movlw	0
  2241  005E96  6E28               	movwf	(add_task@period+5)^0,c
  2242  005E98  0E00               	movlw	0
  2243  005E9A  6E29               	movwf	(add_task@period+6)^0,c
  2244  005E9C  0E00               	movlw	0
  2245  005E9E  6E2A               	movwf	(add_task@period+7)^0,c
  2246  005EA0  0E3E               	movlw	low _toggle_LED_2
  2247  005EA2  6E2B               	movwf	add_task@callback^0,c
  2248  005EA4  0E64               	movlw	high _toggle_LED_2
  2249  005EA6  6E2C               	movwf	(add_task@callback+1)^0,c
  2250  005EA8  0E00               	movlw	low (_toggle_LED_2 shr (0+16))
  2251  005EAA  6E2D               	movwf	(add_task@callback+2)^0,c
  2252  005EAC  0E00               	movlw	0
  2253  005EAE  6E2E               	movwf	add_task@data^0,c
  2254  005EB0  0E00               	movlw	0
  2255  005EB2  6E2F               	movwf	(add_task@data+1)^0,c
  2256  005EB4  EC6E  F01D         	call	_add_task	;wreg free
  2257                           
  2258                           ;System_init.c: 26:     add_task(0, 3000, toggle_LED_4, 0);
  2259  005EB8  0E00               	movlw	0
  2260  005EBA  6E1B               	movwf	add_task@delay^0,c
  2261  005EBC  0E00               	movlw	0
  2262  005EBE  6E1C               	movwf	(add_task@delay+1)^0,c
  2263  005EC0  0E00               	movlw	0
  2264  005EC2  6E1D               	movwf	(add_task@delay+2)^0,c
  2265  005EC4  0E00               	movlw	0
  2266  005EC6  6E1E               	movwf	(add_task@delay+3)^0,c
  2267  005EC8  0E00               	movlw	0
  2268  005ECA  6E1F               	movwf	(add_task@delay+4)^0,c
  2269  005ECC  0E00               	movlw	0
  2270  005ECE  6E20               	movwf	(add_task@delay+5)^0,c
  2271  005ED0  0E00               	movlw	0
  2272  005ED2  6E21               	movwf	(add_task@delay+6)^0,c
  2273  005ED4  0E00               	movlw	0
  2274  005ED6  6E22               	movwf	(add_task@delay+7)^0,c
  2275  005ED8  0EB8               	movlw	184
  2276  005EDA  6E23               	movwf	add_task@period^0,c
  2277  005EDC  0E0B               	movlw	11
  2278  005EDE  6E24               	movwf	(add_task@period+1)^0,c
  2279  005EE0  0E00               	movlw	0
  2280  005EE2  6E25               	movwf	(add_task@period+2)^0,c
  2281  005EE4  0E00               	movlw	0
  2282  005EE6  6E26               	movwf	(add_task@period+3)^0,c
  2283  005EE8  0E00               	movlw	0
  2284  005EEA  6E27               	movwf	(add_task@period+4)^0,c
  2285  005EEC  0E00               	movlw	0
  2286  005EEE  6E28               	movwf	(add_task@period+5)^0,c
  2287  005EF0  0E00               	movlw	0
  2288  005EF2  6E29               	movwf	(add_task@period+6)^0,c
  2289  005EF4  0E00               	movlw	0
  2290  005EF6  6E2A               	movwf	(add_task@period+7)^0,c
  2291  005EF8  0E66               	movlw	low _toggle_LED_4
  2292  005EFA  6E2B               	movwf	add_task@callback^0,c
  2293  005EFC  0E64               	movlw	high _toggle_LED_4
  2294  005EFE  6E2C               	movwf	(add_task@callback+1)^0,c
  2295  005F00  0E00               	movlw	low (_toggle_LED_4 shr (0+16))
  2296  005F02  6E2D               	movwf	(add_task@callback+2)^0,c
  2297  005F04  0E00               	movlw	0
  2298  005F06  6E2E               	movwf	add_task@data^0,c
  2299  005F08  0E00               	movlw	0
  2300  005F0A  6E2F               	movwf	(add_task@data+1)^0,c
  2301  005F0C  EC6E  F01D         	call	_add_task	;wreg free
  2302  005F10  0012               	return		;funcret
  2303  005F12                     __end_of_init_task:
  2304                           	opt callstack 0
  2305                           
  2306 ;; *************** function _add_task *****************
  2307 ;; Defined at:
  2308 ;;		line 18 in file "Linked_List.c"
  2309 ;; Parameters:    Size  Location     Type
  2310 ;;  delay           8   26[COMRAM] unsigned long long 
  2311 ;;  period          8   34[COMRAM] unsigned long long 
  2312 ;;  callback        3   42[COMRAM] PTR FTN()void 
  2313 ;;		 -> toggle_LED_4(1), toggle_LED_2(1), NULL(0), toggle_LED_0(1), 
  2314 ;;  data            2   45[COMRAM] PTR void 
  2315 ;;		 -> NULL(0), 
  2316 ;; Auto vars:     Size  Location     Type
  2317 ;;  temp            2    2[BANK0 ] int 
  2318 ;;  temp            2    0[BANK0 ] int 
  2319 ;;  cur             2    6[BANK0 ] int 
  2320 ;;  pre             2    4[BANK0 ] int 
  2321 ;;  index           2    8[BANK0 ] int 
  2322 ;; Return value:  Size  Location     Type
  2323 ;;                  8   26[COMRAM] unsigned long long 
  2324 ;; Registers used:
  2325 ;;		wreg, fsr2l, fsr2h, status,2, status,0, prodl, prodh, cstack
  2326 ;; Tracked objects:
  2327 ;;		On entry : 0/0
  2328 ;;		On exit  : 0/0
  2329 ;;		Unchanged: 0/0
  2330 ;; Data sizes:     COMRAM   BANK0   BANK1   BANK2   BANK3   BANK4   BANK5   BANK6   BANK7   BANK8   BANK9  BANK10  BANK1
      +1  BANK12  BANK13  BANK14  BANK15
  2331 ;;      Params:        21       0       0       0       0       0       0       0       0       0       0       0       
      +0       0       0       0       0
  2332 ;;      Locals:         0      10       0       0       0       0       0       0       0       0       0       0       
      +0       0       0       0       0
  2333 ;;      Temps:          8       0       0       0       0       0       0       0       0       0       0       0       
      +0       0       0       0       0
  2334 ;;      Totals:        29      10       0       0       0       0       0       0       0       0       0       0       
      +0       0       0       0       0
  2335 ;;Total ram usage:       39 bytes
  2336 ;; Hardware stack levels used:    1
  2337 ;; Hardware stack levels required when called:    5
  2338 ;; This function calls:
  2339 ;;		___wmul
  2340 ;; This function is called by:
  2341 ;;		_init_task
  2342 ;;		_dispatch_task
  2343 ;; This function uses a non-reentrant model
  2344 ;;
  2345                           
  2346                           	psect	text13
  2347  003ADC                     __ptext13:
  2348                           	opt callstack 0
  2349  003ADC                     _add_task:
  2350                           	opt callstack 24
  2351  003ADC                     
  2352                           ;Linked_List.c: 19:     int index = 0;
  2353  003ADC  0E00               	movlw	0
  2354  003ADE  0100               	movlb	0	; () banked
  2355  003AE0  6F69               	movwf	(add_task@index+1)& (0+255),b
  2356  003AE2  0E00               	movlw	0
  2357  003AE4  6F68               	movwf	add_task@index& (0+255),b
  2358  003AE6                     
  2359                           ; BSR set to: 0
  2360                           ;Linked_List.c: 21:     if (size == 20) {
  2361  003AE6  0E14               	movlw	20
  2362  003AE8  183E               	xorwf	_size^0,w,c
  2363  003AEA  103F               	iorwf	(_size+1)^0,w,c
  2364  003AEC  A4D8               	btfss	status,2,c
  2365  003AEE  EF7B  F01D         	goto	u5631
  2366  003AF2  EF7D  F01D         	goto	u5630
  2367  003AF6                     u5631:
  2368  003AF6  EF7F  F01D         	goto	l4672
  2369  003AFA                     u5630:
  2370  003AFA  EF60  F020         	goto	l89
  2371  003AFE                     l4672:
  2372                           
  2373                           ; BSR set to: 0
  2374                           ;Linked_List.c: 25:     if (size == 0) {
  2375  003AFE  503E               	movf	_size^0,w,c
  2376  003B00  103F               	iorwf	(_size+1)^0,w,c
  2377  003B02  A4D8               	btfss	status,2,c
  2378  003B04  EF86  F01D         	goto	u5641
  2379  003B08  EF88  F01D         	goto	u5640
  2380  003B0C                     u5641:
  2381  003B0C  EF24  F01E         	goto	l4696
  2382  003B10                     u5640:
  2383  003B10                     
  2384                           ; BSR set to: 0
  2385                           ;Linked_List.c: 26:         list_head = 0;
  2386  003B10  0E00               	movlw	0
  2387  003B12  6E41               	movwf	(_list_head+1)^0,c
  2388  003B14  0E00               	movlw	0
  2389  003B16  6E40               	movwf	_list_head^0,c
  2390  003B18                     
  2391                           ; BSR set to: 0
  2392                           ;Linked_List.c: 27:         arr_task[list_head].delay = delay;
  2393  003B18  C040  F015         	movff	_list_head,___wmul@multiplier
  2394  003B1C  C041  F016         	movff	_list_head+1,___wmul@multiplier+1
  2395  003B20  0E00               	movlw	0
  2396  003B22  6E18               	movwf	(___wmul@multiplicand+1)^0,c
  2397  003B24  0E19               	movlw	25
  2398  003B26  6E17               	movwf	___wmul@multiplicand^0,c
  2399  003B28  ECE8  F031         	call	___wmul	;wreg free
  2400  003B2C  0ED4               	movlw	low (_arr_task+8)
  2401  003B2E  2415               	addwf	?___wmul^0,w,c
  2402  003B30  6ED9               	movwf	fsr2l,c
  2403  003B32  0E01               	movlw	high (_arr_task+8)
  2404  003B34  2016               	addwfc	(?___wmul+1)^0,w,c
  2405  003B36  6EDA               	movwf	fsr2h,c
  2406  003B38  C01B  FFDE         	movff	add_task@delay,postinc2
  2407  003B3C  C01C  FFDE         	movff	add_task@delay+1,postinc2
  2408  003B40  C01D  FFDE         	movff	add_task@delay+2,postinc2
  2409  003B44  C01E  FFDE         	movff	add_task@delay+3,postinc2
  2410  003B48  C01F  FFDE         	movff	add_task@delay+4,postinc2
  2411  003B4C  C020  FFDE         	movff	add_task@delay+5,postinc2
  2412  003B50  C021  FFDE         	movff	add_task@delay+6,postinc2
  2413  003B54  C022  FFDE         	movff	add_task@delay+7,postinc2
  2414  003B58                     
  2415                           ;Linked_List.c: 28:         arr_task[list_head].period = period;
  2416  003B58  C040  F015         	movff	_list_head,___wmul@multiplier
  2417  003B5C  C041  F016         	movff	_list_head+1,___wmul@multiplier+1
  2418  003B60  0E00               	movlw	0
  2419  003B62  6E18               	movwf	(___wmul@multiplicand+1)^0,c
  2420  003B64  0E19               	movlw	25
  2421  003B66  6E17               	movwf	___wmul@multiplicand^0,c
  2422  003B68  ECE8  F031         	call	___wmul	;wreg free
  2423  003B6C  0ECC               	movlw	low _arr_task
  2424  003B6E  2415               	addwf	?___wmul^0,w,c
  2425  003B70  6ED9               	movwf	fsr2l,c
  2426  003B72  0E01               	movlw	high _arr_task
  2427  003B74  2016               	addwfc	(?___wmul+1)^0,w,c
  2428  003B76  6EDA               	movwf	fsr2h,c
  2429  003B78  C023  FFDE         	movff	add_task@period,postinc2
  2430  003B7C  C024  FFDE         	movff	add_task@period+1,postinc2
  2431  003B80  C025  FFDE         	movff	add_task@period+2,postinc2
  2432  003B84  C026  FFDE         	movff	add_task@period+3,postinc2
  2433  003B88  C027  FFDE         	movff	add_task@period+4,postinc2
  2434  003B8C  C028  FFDE         	movff	add_task@period+5,postinc2
  2435  003B90  C029  FFDE         	movff	add_task@period+6,postinc2
  2436  003B94  C02A  FFDE         	movff	add_task@period+7,postinc2
  2437  003B98                     
  2438                           ;Linked_List.c: 29:         arr_task[list_head].run_flag = 0;
  2439  003B98  C040  F015         	movff	_list_head,___wmul@multiplier
  2440  003B9C  C041  F016         	movff	_list_head+1,___wmul@multiplier+1
  2441  003BA0  0E00               	movlw	0
  2442  003BA2  6E18               	movwf	(___wmul@multiplicand+1)^0,c
  2443  003BA4  0E19               	movlw	25
  2444  003BA6  6E17               	movwf	___wmul@multiplicand^0,c
  2445  003BA8  ECE8  F031         	call	___wmul	;wreg free
  2446  003BAC  0EDC               	movlw	low (_arr_task+16)
  2447  003BAE  2415               	addwf	?___wmul^0,w,c
  2448  003BB0  6ED9               	movwf	fsr2l,c
  2449  003BB2  0E01               	movlw	high (_arr_task+16)
  2450  003BB4  2016               	addwfc	(?___wmul+1)^0,w,c
  2451  003BB6  6EDA               	movwf	fsr2h,c
  2452  003BB8  0E00               	movlw	0
  2453  003BBA  6EDE               	movwf	postinc2,c
  2454  003BBC  0E00               	movlw	0
  2455  003BBE  6EDD               	movwf	postdec2,c
  2456  003BC0                     
  2457                           ;Linked_List.c: 30:         arr_task[list_head].pTask = callback;
  2458  003BC0  C040  F015         	movff	_list_head,___wmul@multiplier
  2459  003BC4  C041  F016         	movff	_list_head+1,___wmul@multiplier+1
  2460  003BC8  0E00               	movlw	0
  2461  003BCA  6E18               	movwf	(___wmul@multiplicand+1)^0,c
  2462  003BCC  0E19               	movlw	25
  2463  003BCE  6E17               	movwf	___wmul@multiplicand^0,c
  2464  003BD0  ECE8  F031         	call	___wmul	;wreg free
  2465  003BD4  0EDE               	movlw	low (_arr_task+18)
  2466  003BD6  2415               	addwf	?___wmul^0,w,c
  2467  003BD8  6ED9               	movwf	fsr2l,c
  2468  003BDA  0E01               	movlw	high (_arr_task+18)
  2469  003BDC  2016               	addwfc	(?___wmul+1)^0,w,c
  2470  003BDE  6EDA               	movwf	fsr2h,c
  2471  003BE0  C02B  FFDE         	movff	add_task@callback,postinc2
  2472  003BE4  C02C  FFDE         	movff	add_task@callback+1,postinc2
  2473  003BE8  C02D  FFDE         	movff	add_task@callback+2,postinc2
  2474  003BEC                     
  2475                           ;Linked_List.c: 31:         arr_task[list_head].next = -1;
  2476  003BEC  C040  F015         	movff	_list_head,___wmul@multiplier
  2477  003BF0  C041  F016         	movff	_list_head+1,___wmul@multiplier+1
  2478  003BF4  0E00               	movlw	0
  2479  003BF6  6E18               	movwf	(___wmul@multiplicand+1)^0,c
  2480  003BF8  0E19               	movlw	25
  2481  003BFA  6E17               	movwf	___wmul@multiplicand^0,c
  2482  003BFC  ECE8  F031         	call	___wmul	;wreg free
  2483  003C00  0EE1               	movlw	low (_arr_task+21)
  2484  003C02  2415               	addwf	?___wmul^0,w,c
  2485  003C04  6ED9               	movwf	fsr2l,c
  2486  003C06  0E01               	movlw	high (_arr_task+21)
  2487  003C08  2016               	addwfc	(?___wmul+1)^0,w,c
  2488  003C0A  6EDA               	movwf	fsr2h,c
  2489  003C0C  0EFF               	movlw	255
  2490  003C0E  6EDE               	movwf	postinc2,c
  2491  003C10  0EFF               	movlw	255
  2492  003C12  6EDD               	movwf	postdec2,c
  2493  003C14                     
  2494                           ;Linked_List.c: 32:         arr_task[list_head].data = data;
  2495  003C14  C040  F015         	movff	_list_head,___wmul@multiplier
  2496  003C18  C041  F016         	movff	_list_head+1,___wmul@multiplier+1
  2497  003C1C  0E00               	movlw	0
  2498  003C1E  6E18               	movwf	(___wmul@multiplicand+1)^0,c
  2499  003C20  0E19               	movlw	25
  2500  003C22  6E17               	movwf	___wmul@multiplicand^0,c
  2501  003C24  ECE8  F031         	call	___wmul	;wreg free
  2502  003C28  0EE3               	movlw	low (_arr_task+23)
  2503  003C2A  2415               	addwf	?___wmul^0,w,c
  2504  003C2C  6ED9               	movwf	fsr2l,c
  2505  003C2E  0E01               	movlw	high (_arr_task+23)
  2506  003C30  2016               	addwfc	(?___wmul+1)^0,w,c
  2507  003C32  6EDA               	movwf	fsr2h,c
  2508  003C34  C02E  FFDE         	movff	add_task@data,postinc2
  2509  003C38  C02F  FFDD         	movff	add_task@data+1,postdec2
  2510  003C3C                     l4688:
  2511                           
  2512                           ;Linked_List.c: 33:         size++;
  2513  003C3C  4A3E               	infsnz	_size^0,f,c
  2514  003C3E  2A3F               	incf	(_size+1)^0,f,c
  2515  003C40  EF60  F020         	goto	l89
  2516  003C44                     l4694:
  2517                           
  2518                           ; BSR set to: 0
  2519                           ;Linked_List.c: 42:             index++;
  2520  003C44  4B68               	infsnz	add_task@index& (0+255),f,b
  2521  003C46  2B69               	incf	(add_task@index+1)& (0+255),f,b
  2522  003C48                     l4696:
  2523                           
  2524                           ; BSR set to: 0
  2525                           ;Linked_List.c: 41:         while (arr_task[index].pTask != ((void*)0) && index < 20) {
  2526  003C48  C068  F015         	movff	add_task@index,___wmul@multiplier
  2527  003C4C  C069  F016         	movff	add_task@index+1,___wmul@multiplier+1
  2528  003C50  0E00               	movlw	0
  2529  003C52  6E18               	movwf	(___wmul@multiplicand+1)^0,c
  2530  003C54  0E19               	movlw	25
  2531  003C56  6E17               	movwf	___wmul@multiplicand^0,c
  2532  003C58  ECE8  F031         	call	___wmul	;wreg free
  2533  003C5C  0EDE               	movlw	low (_arr_task+18)
  2534  003C5E  2415               	addwf	?___wmul^0,w,c
  2535  003C60  6ED9               	movwf	fsr2l,c
  2536  003C62  0E01               	movlw	high (_arr_task+18)
  2537  003C64  2016               	addwfc	(?___wmul+1)^0,w,c
  2538  003C66  6EDA               	movwf	fsr2h,c
  2539  003C68  50DE               	movf	postinc2,w,c
  2540  003C6A  10DE               	iorwf	postinc2,w,c
  2541  003C6C  10DE               	iorwf	postinc2,w,c
  2542  003C6E  B4D8               	btfsc	status,2,c
  2543  003C70  EF3C  F01E         	goto	u5651
  2544  003C74  EF3E  F01E         	goto	u5650
  2545  003C78                     u5651:
  2546  003C78  EF4D  F01E         	goto	l96
  2547  003C7C                     u5650:
  2548  003C7C  0100               	movlb	0	; () banked
  2549  003C7E  BF69               	btfsc	(add_task@index+1)& (0+255),7,b
  2550  003C80  EF4B  F01E         	goto	u5661
  2551  003C84  5169               	movf	(add_task@index+1)& (0+255),w,b
  2552  003C86  E109               	bnz	u5660
  2553  003C88  0E14               	movlw	20
  2554  003C8A  5D68               	subwf	add_task@index& (0+255),w,b
  2555  003C8C  A0D8               	btfss	status,0,c
  2556  003C8E  EF4B  F01E         	goto	u5661
  2557  003C92  EF4D  F01E         	goto	u5660
  2558  003C96                     u5661:
  2559  003C96  EF22  F01E         	goto	l4694
  2560  003C9A                     u5660:
  2561  003C9A                     l96:
  2562                           
  2563                           ;Linked_List.c: 47:         cur = list_head;
  2564  003C9A  C040  F066         	movff	_list_head,add_task@cur
  2565  003C9E  C041  F067         	movff	_list_head+1,add_task@cur+1
  2566  003CA2                     
  2567                           ;Linked_List.c: 50:         if (delay < arr_task[cur].delay) {
  2568  003CA2  C066  F015         	movff	add_task@cur,___wmul@multiplier
  2569  003CA6  C067  F016         	movff	add_task@cur+1,___wmul@multiplier+1
  2570  003CAA  0E00               	movlw	0
  2571  003CAC  6E18               	movwf	(___wmul@multiplicand+1)^0,c
  2572  003CAE  0E19               	movlw	25
  2573  003CB0  6E17               	movwf	___wmul@multiplicand^0,c
  2574  003CB2  ECE8  F031         	call	___wmul	;wreg free
  2575  003CB6  0ED4               	movlw	low (_arr_task+8)
  2576  003CB8  2415               	addwf	?___wmul^0,w,c
  2577  003CBA  6ED9               	movwf	fsr2l,c
  2578  003CBC  0E01               	movlw	high (_arr_task+8)
  2579  003CBE  2016               	addwfc	(?___wmul+1)^0,w,c
  2580  003CC0  6EDA               	movwf	fsr2h,c
  2581  003CC2  50DE               	movf	postinc2,w,c
  2582  003CC4  5C1B               	subwf	add_task@delay^0,w,c
  2583  003CC6  50DE               	movf	postinc2,w,c
  2584  003CC8  581C               	subwfb	(add_task@delay+1)^0,w,c
  2585  003CCA  50DE               	movf	postinc2,w,c
  2586  003CCC  581D               	subwfb	(add_task@delay+2)^0,w,c
  2587  003CCE  50DE               	movf	postinc2,w,c
  2588  003CD0  581E               	subwfb	(add_task@delay+3)^0,w,c
  2589  003CD2  50DE               	movf	postinc2,w,c
  2590  003CD4  581F               	subwfb	(add_task@delay+4)^0,w,c
  2591  003CD6  50DE               	movf	postinc2,w,c
  2592  003CD8  5820               	subwfb	(add_task@delay+5)^0,w,c
  2593  003CDA  50DE               	movf	postinc2,w,c
  2594  003CDC  5821               	subwfb	(add_task@delay+6)^0,w,c
  2595  003CDE  50DE               	movf	postinc2,w,c
  2596  003CE0  5822               	subwfb	(add_task@delay+7)^0,w,c
  2597  003CE2  B0D8               	btfsc	status,0,c
  2598  003CE4  EF76  F01E         	goto	u5671
  2599  003CE8  EF78  F01E         	goto	u5670
  2600  003CEC                     u5671:
  2601  003CEC  EFC6  F01E         	goto	l97
  2602  003CF0                     u5670:
  2603  003CF0                     
  2604                           ;Linked_List.c: 51:             arr_task[index].next = list_head;
  2605  003CF0  C068  F015         	movff	add_task@index,___wmul@multiplier
  2606  003CF4  C069  F016         	movff	add_task@index+1,___wmul@multiplier+1
  2607  003CF8  0E00               	movlw	0
  2608  003CFA  6E18               	movwf	(___wmul@multiplicand+1)^0,c
  2609  003CFC  0E19               	movlw	25
  2610  003CFE  6E17               	movwf	___wmul@multiplicand^0,c
  2611  003D00  ECE8  F031         	call	___wmul	;wreg free
  2612  003D04  0EE1               	movlw	low (_arr_task+21)
  2613  003D06  2415               	addwf	?___wmul^0,w,c
  2614  003D08  6ED9               	movwf	fsr2l,c
  2615  003D0A  0E01               	movlw	high (_arr_task+21)
  2616  003D0C  2016               	addwfc	(?___wmul+1)^0,w,c
  2617  003D0E  6EDA               	movwf	fsr2h,c
  2618  003D10  C040  FFDE         	movff	_list_head,postinc2
  2619  003D14  C041  FFDD         	movff	_list_head+1,postdec2
  2620  003D18                     
  2621                           ;Linked_List.c: 52:             list_head = index;
  2622  003D18  C068  F040         	movff	add_task@index,_list_head
  2623  003D1C  C069  F041         	movff	add_task@index+1,_list_head+1
  2624                           
  2625                           ;Linked_List.c: 53:             int temp = arr_task[index].next;
  2626  003D20  C068  F015         	movff	add_task@index,___wmul@multiplier
  2627  003D24  C069  F016         	movff	add_task@index+1,___wmul@multiplier+1
  2628  003D28  0E00               	movlw	0
  2629  003D2A  6E18               	movwf	(___wmul@multiplicand+1)^0,c
  2630  003D2C  0E19               	movlw	25
  2631  003D2E  6E17               	movwf	___wmul@multiplicand^0,c
  2632  003D30  ECE8  F031         	call	___wmul	;wreg free
  2633  003D34  0EE1               	movlw	low (_arr_task+21)
  2634  003D36  2415               	addwf	?___wmul^0,w,c
  2635  003D38  6ED9               	movwf	fsr2l,c
  2636  003D3A  0E01               	movlw	high (_arr_task+21)
  2637  003D3C  2016               	addwfc	(?___wmul+1)^0,w,c
  2638  003D3E  6EDA               	movwf	fsr2h,c
  2639  003D40  CFDE F060          	movff	postinc2,add_task@temp
  2640  003D44  CFDD F061          	movff	postdec2,add_task@temp+1
  2641                           
  2642                           ;Linked_List.c: 54:             arr_task[temp].delay -= delay;
  2643  003D48  C060  F015         	movff	add_task@temp,___wmul@multiplier
  2644  003D4C  C061  F016         	movff	add_task@temp+1,___wmul@multiplier+1
  2645  003D50  0E00               	movlw	0
  2646  003D52  6E18               	movwf	(___wmul@multiplicand+1)^0,c
  2647  003D54  0E19               	movlw	25
  2648  003D56  6E17               	movwf	___wmul@multiplicand^0,c
  2649  003D58  ECE8  F031         	call	___wmul	;wreg free
  2650  003D5C  0ED4               	movlw	low (_arr_task+8)
  2651  003D5E  2415               	addwf	?___wmul^0,w,c
  2652  003D60  6ED9               	movwf	fsr2l,c
  2653  003D62  0E01               	movlw	high (_arr_task+8)
  2654  003D64  2016               	addwfc	(?___wmul+1)^0,w,c
  2655  003D66  6EDA               	movwf	fsr2h,c
  2656  003D68  501B               	movf	add_task@delay^0,w,c
  2657  003D6A  5EDE               	subwf	postinc2,f,c
  2658  003D6C  501C               	movf	(add_task@delay+1)^0,w,c
  2659  003D6E  5ADE               	subwfb	postinc2,f,c
  2660  003D70  501D               	movf	(add_task@delay+2)^0,w,c
  2661  003D72  5ADE               	subwfb	postinc2,f,c
  2662  003D74  501E               	movf	(add_task@delay+3)^0,w,c
  2663  003D76  5ADE               	subwfb	postinc2,f,c
  2664  003D78  501F               	movf	(add_task@delay+4)^0,w,c
  2665  003D7A  5ADE               	subwfb	postinc2,f,c
  2666  003D7C  5020               	movf	(add_task@delay+5)^0,w,c
  2667  003D7E  5ADE               	subwfb	postinc2,f,c
  2668  003D80  5021               	movf	(add_task@delay+6)^0,w,c
  2669  003D82  5ADE               	subwfb	postinc2,f,c
  2670  003D84  5022               	movf	(add_task@delay+7)^0,w,c
  2671  003D86  5ADE               	subwfb	postinc2,f,c
  2672                           
  2673                           ;Linked_List.c: 55:         }
  2674  003D88  EFE0  F01F         	goto	l98
  2675  003D8C                     l97:
  2676                           
  2677                           ;Linked_List.c: 58:             pre = cur;
  2678  003D8C  C066  F064         	movff	add_task@cur,add_task@pre
  2679  003D90  C067  F065         	movff	add_task@cur+1,add_task@pre+1
  2680  003D94                     
  2681                           ;Linked_List.c: 59:             cur = arr_task[cur].next;
  2682  003D94  C066  F015         	movff	add_task@cur,___wmul@multiplier
  2683  003D98  C067  F016         	movff	add_task@cur+1,___wmul@multiplier+1
  2684  003D9C  0E00               	movlw	0
  2685  003D9E  6E18               	movwf	(___wmul@multiplicand+1)^0,c
  2686  003DA0  0E19               	movlw	25
  2687  003DA2  6E17               	movwf	___wmul@multiplicand^0,c
  2688  003DA4  ECE8  F031         	call	___wmul	;wreg free
  2689  003DA8  0EE1               	movlw	low (_arr_task+21)
  2690  003DAA  2415               	addwf	?___wmul^0,w,c
  2691  003DAC  6ED9               	movwf	fsr2l,c
  2692  003DAE  0E01               	movlw	high (_arr_task+21)
  2693  003DB0  2016               	addwfc	(?___wmul+1)^0,w,c
  2694  003DB2  6EDA               	movwf	fsr2h,c
  2695  003DB4  CFDE F066          	movff	postinc2,add_task@cur
  2696  003DB8  CFDD F067          	movff	postdec2,add_task@cur+1
  2697                           
  2698                           ;Linked_List.c: 60:             delay -= arr_task[pre].delay;
  2699  003DBC  C064  F015         	movff	add_task@pre,___wmul@multiplier
  2700  003DC0  C065  F016         	movff	add_task@pre+1,___wmul@multiplier+1
  2701  003DC4  0E00               	movlw	0
  2702  003DC6  6E18               	movwf	(___wmul@multiplicand+1)^0,c
  2703  003DC8  0E19               	movlw	25
  2704  003DCA  6E17               	movwf	___wmul@multiplicand^0,c
  2705  003DCC  ECE8  F031         	call	___wmul	;wreg free
  2706  003DD0  0ED4               	movlw	low (_arr_task+8)
  2707  003DD2  2415               	addwf	?___wmul^0,w,c
  2708  003DD4  6ED9               	movwf	fsr2l,c
  2709  003DD6  0E01               	movlw	high (_arr_task+8)
  2710  003DD8  2016               	addwfc	(?___wmul+1)^0,w,c
  2711  003DDA  6EDA               	movwf	fsr2h,c
  2712  003DDC  50DE               	movf	postinc2,w,c
  2713  003DDE  5E1B               	subwf	add_task@delay^0,f,c
  2714  003DE0  50DE               	movf	postinc2,w,c
  2715  003DE2  5A1C               	subwfb	(add_task@delay+1)^0,f,c
  2716  003DE4  50DE               	movf	postinc2,w,c
  2717  003DE6  5A1D               	subwfb	(add_task@delay+2)^0,f,c
  2718  003DE8  50DE               	movf	postinc2,w,c
  2719  003DEA  5A1E               	subwfb	(add_task@delay+3)^0,f,c
  2720  003DEC  50DE               	movf	postinc2,w,c
  2721  003DEE  5A1F               	subwfb	(add_task@delay+4)^0,f,c
  2722  003DF0  50DE               	movf	postinc2,w,c
  2723  003DF2  5A20               	subwfb	(add_task@delay+5)^0,f,c
  2724  003DF4  50DE               	movf	postinc2,w,c
  2725  003DF6  5A21               	subwfb	(add_task@delay+6)^0,f,c
  2726  003DF8  50DD               	movf	postdec2,w,c
  2727  003DFA  5A22               	subwfb	(add_task@delay+7)^0,f,c
  2728                           
  2729                           ;Linked_List.c: 64:             while (delay >= arr_task[cur].delay && cur != -1) {
  2730  003DFC  EF38  F01F         	goto	l99
  2731  003E00                     l4708:
  2732                           
  2733                           ; BSR set to: 0
  2734                           ;Linked_List.c: 65:                 delay -= arr_task[cur].delay;
  2735  003E00  C066  F015         	movff	add_task@cur,___wmul@multiplier
  2736  003E04  C067  F016         	movff	add_task@cur+1,___wmul@multiplier+1
  2737  003E08  0E00               	movlw	0
  2738  003E0A  6E18               	movwf	(___wmul@multiplicand+1)^0,c
  2739  003E0C  0E19               	movlw	25
  2740  003E0E  6E17               	movwf	___wmul@multiplicand^0,c
  2741  003E10  ECE8  F031         	call	___wmul	;wreg free
  2742  003E14  0ED4               	movlw	low (_arr_task+8)
  2743  003E16  2415               	addwf	?___wmul^0,w,c
  2744  003E18  6ED9               	movwf	fsr2l,c
  2745  003E1A  0E01               	movlw	high (_arr_task+8)
  2746  003E1C  2016               	addwfc	(?___wmul+1)^0,w,c
  2747  003E1E  6EDA               	movwf	fsr2h,c
  2748  003E20  50DE               	movf	postinc2,w,c
  2749  003E22  5E1B               	subwf	add_task@delay^0,f,c
  2750  003E24  50DE               	movf	postinc2,w,c
  2751  003E26  5A1C               	subwfb	(add_task@delay+1)^0,f,c
  2752  003E28  50DE               	movf	postinc2,w,c
  2753  003E2A  5A1D               	subwfb	(add_task@delay+2)^0,f,c
  2754  003E2C  50DE               	movf	postinc2,w,c
  2755  003E2E  5A1E               	subwfb	(add_task@delay+3)^0,f,c
  2756  003E30  50DE               	movf	postinc2,w,c
  2757  003E32  5A1F               	subwfb	(add_task@delay+4)^0,f,c
  2758  003E34  50DE               	movf	postinc2,w,c
  2759  003E36  5A20               	subwfb	(add_task@delay+5)^0,f,c
  2760  003E38  50DE               	movf	postinc2,w,c
  2761  003E3A  5A21               	subwfb	(add_task@delay+6)^0,f,c
  2762  003E3C  50DD               	movf	postdec2,w,c
  2763  003E3E  5A22               	subwfb	(add_task@delay+7)^0,f,c
  2764  003E40                     
  2765                           ;Linked_List.c: 66:                 pre = cur;
  2766  003E40  C066  F064         	movff	add_task@cur,add_task@pre
  2767  003E44  C067  F065         	movff	add_task@cur+1,add_task@pre+1
  2768                           
  2769                           ;Linked_List.c: 67:                 cur = arr_task[cur].next;
  2770  003E48  C066  F015         	movff	add_task@cur,___wmul@multiplier
  2771  003E4C  C067  F016         	movff	add_task@cur+1,___wmul@multiplier+1
  2772  003E50  0E00               	movlw	0
  2773  003E52  6E18               	movwf	(___wmul@multiplicand+1)^0,c
  2774  003E54  0E19               	movlw	25
  2775  003E56  6E17               	movwf	___wmul@multiplicand^0,c
  2776  003E58  ECE8  F031         	call	___wmul	;wreg free
  2777  003E5C  0EE1               	movlw	low (_arr_task+21)
  2778  003E5E  2415               	addwf	?___wmul^0,w,c
  2779  003E60  6ED9               	movwf	fsr2l,c
  2780  003E62  0E01               	movlw	high (_arr_task+21)
  2781  003E64  2016               	addwfc	(?___wmul+1)^0,w,c
  2782  003E66  6EDA               	movwf	fsr2h,c
  2783  003E68  CFDE F066          	movff	postinc2,add_task@cur
  2784  003E6C  CFDD F067          	movff	postdec2,add_task@cur+1
  2785  003E70                     l99:
  2786                           
  2787                           ;Linked_List.c: 64:             while (delay >= arr_task[cur].delay && cur != -1) {
  2788  003E70  C066  F015         	movff	add_task@cur,___wmul@multiplier
  2789  003E74  C067  F016         	movff	add_task@cur+1,___wmul@multiplier+1
  2790  003E78  0E00               	movlw	0
  2791  003E7A  6E18               	movwf	(___wmul@multiplicand+1)^0,c
  2792  003E7C  0E19               	movlw	25
  2793  003E7E  6E17               	movwf	___wmul@multiplicand^0,c
  2794  003E80  ECE8  F031         	call	___wmul	;wreg free
  2795  003E84  0ED4               	movlw	low (_arr_task+8)
  2796  003E86  2415               	addwf	?___wmul^0,w,c
  2797  003E88  6ED9               	movwf	fsr2l,c
  2798  003E8A  0E01               	movlw	high (_arr_task+8)
  2799  003E8C  2016               	addwfc	(?___wmul+1)^0,w,c
  2800  003E8E  6EDA               	movwf	fsr2h,c
  2801  003E90  50DE               	movf	postinc2,w,c
  2802  003E92  5C1B               	subwf	add_task@delay^0,w,c
  2803  003E94  50DE               	movf	postinc2,w,c
  2804  003E96  581C               	subwfb	(add_task@delay+1)^0,w,c
  2805  003E98  50DE               	movf	postinc2,w,c
  2806  003E9A  581D               	subwfb	(add_task@delay+2)^0,w,c
  2807  003E9C  50DE               	movf	postinc2,w,c
  2808  003E9E  581E               	subwfb	(add_task@delay+3)^0,w,c
  2809  003EA0  50DE               	movf	postinc2,w,c
  2810  003EA2  581F               	subwfb	(add_task@delay+4)^0,w,c
  2811  003EA4  50DE               	movf	postinc2,w,c
  2812  003EA6  5820               	subwfb	(add_task@delay+5)^0,w,c
  2813  003EA8  50DE               	movf	postinc2,w,c
  2814  003EAA  5821               	subwfb	(add_task@delay+6)^0,w,c
  2815  003EAC  50DE               	movf	postinc2,w,c
  2816  003EAE  5822               	subwfb	(add_task@delay+7)^0,w,c
  2817  003EB0  A0D8               	btfss	status,0,c
  2818  003EB2  EF5D  F01F         	goto	u5681
  2819  003EB6  EF5F  F01F         	goto	u5680
  2820  003EBA                     u5681:
  2821  003EBA  EF6A  F01F         	goto	l4714
  2822  003EBE                     u5680:
  2823  003EBE  0100               	movlb	0	; () banked
  2824  003EC0  2966               	incf	add_task@cur& (0+255),w,b
  2825  003EC2  E106               	bnz	u5691
  2826  003EC4  2967               	incf	(add_task@cur+1)& (0+255),w,b
  2827  003EC6  A4D8               	btfss	status,2,c
  2828  003EC8  EF68  F01F         	goto	u5691
  2829  003ECC  EF6A  F01F         	goto	u5690
  2830  003ED0                     u5691:
  2831  003ED0  EF00  F01F         	goto	l4708
  2832  003ED4                     u5690:
  2833  003ED4                     l4714:
  2834                           
  2835                           ;Linked_List.c: 74:             arr_task[pre].next = index;
  2836  003ED4  C064  F015         	movff	add_task@pre,___wmul@multiplier
  2837  003ED8  C065  F016         	movff	add_task@pre+1,___wmul@multiplier+1
  2838  003EDC  0E00               	movlw	0
  2839  003EDE  6E18               	movwf	(___wmul@multiplicand+1)^0,c
  2840  003EE0  0E19               	movlw	25
  2841  003EE2  6E17               	movwf	___wmul@multiplicand^0,c
  2842  003EE4  ECE8  F031         	call	___wmul	;wreg free
  2843  003EE8  0EE1               	movlw	low (_arr_task+21)
  2844  003EEA  2415               	addwf	?___wmul^0,w,c
  2845  003EEC  6ED9               	movwf	fsr2l,c
  2846  003EEE  0E01               	movlw	high (_arr_task+21)
  2847  003EF0  2016               	addwfc	(?___wmul+1)^0,w,c
  2848  003EF2  6EDA               	movwf	fsr2h,c
  2849  003EF4  C068  FFDE         	movff	add_task@index,postinc2
  2850  003EF8  C069  FFDD         	movff	add_task@index+1,postdec2
  2851                           
  2852                           ;Linked_List.c: 75:             arr_task[index].next = cur;
  2853  003EFC  C068  F015         	movff	add_task@index,___wmul@multiplier
  2854  003F00  C069  F016         	movff	add_task@index+1,___wmul@multiplier+1
  2855  003F04  0E00               	movlw	0
  2856  003F06  6E18               	movwf	(___wmul@multiplicand+1)^0,c
  2857  003F08  0E19               	movlw	25
  2858  003F0A  6E17               	movwf	___wmul@multiplicand^0,c
  2859  003F0C  ECE8  F031         	call	___wmul	;wreg free
  2860  003F10  0EE1               	movlw	low (_arr_task+21)
  2861  003F12  2415               	addwf	?___wmul^0,w,c
  2862  003F14  6ED9               	movwf	fsr2l,c
  2863  003F16  0E01               	movlw	high (_arr_task+21)
  2864  003F18  2016               	addwfc	(?___wmul+1)^0,w,c
  2865  003F1A  6EDA               	movwf	fsr2h,c
  2866  003F1C  C066  FFDE         	movff	add_task@cur,postinc2
  2867  003F20  C067  FFDD         	movff	add_task@cur+1,postdec2
  2868                           
  2869                           ;Linked_List.c: 76:             if (arr_task[index].next != -1) {
  2870  003F24  C068  F015         	movff	add_task@index,___wmul@multiplier
  2871  003F28  C069  F016         	movff	add_task@index+1,___wmul@multiplier+1
  2872  003F2C  0E00               	movlw	0
  2873  003F2E  6E18               	movwf	(___wmul@multiplicand+1)^0,c
  2874  003F30  0E19               	movlw	25
  2875  003F32  6E17               	movwf	___wmul@multiplicand^0,c
  2876  003F34  ECE8  F031         	call	___wmul	;wreg free
  2877  003F38  0EE1               	movlw	low (_arr_task+21)
  2878  003F3A  2415               	addwf	?___wmul^0,w,c
  2879  003F3C  6ED9               	movwf	fsr2l,c
  2880  003F3E  0E01               	movlw	high (_arr_task+21)
  2881  003F40  2016               	addwfc	(?___wmul+1)^0,w,c
  2882  003F42  6EDA               	movwf	fsr2h,c
  2883  003F44  28DE               	incf	postinc2,w,c
  2884  003F46  E108               	bnz	u5700
  2885  003F48  28DE               	incf	postinc2,w,c
  2886  003F4A  B4D8               	btfsc	status,2,c
  2887  003F4C  EFAA  F01F         	goto	u5701
  2888  003F50  EFAC  F01F         	goto	u5700
  2889  003F54                     u5701:
  2890  003F54  EFE0  F01F         	goto	l98
  2891  003F58                     u5700:
  2892  003F58                     
  2893                           ;Linked_List.c: 77:                 int temp = arr_task[index].next;
  2894  003F58  C068  F015         	movff	add_task@index,___wmul@multiplier
  2895  003F5C  C069  F016         	movff	add_task@index+1,___wmul@multiplier+1
  2896  003F60  0E00               	movlw	0
  2897  003F62  6E18               	movwf	(___wmul@multiplicand+1)^0,c
  2898  003F64  0E19               	movlw	25
  2899  003F66  6E17               	movwf	___wmul@multiplicand^0,c
  2900  003F68  ECE8  F031         	call	___wmul	;wreg free
  2901  003F6C  0EE1               	movlw	low (_arr_task+21)
  2902  003F6E  2415               	addwf	?___wmul^0,w,c
  2903  003F70  6ED9               	movwf	fsr2l,c
  2904  003F72  0E01               	movlw	high (_arr_task+21)
  2905  003F74  2016               	addwfc	(?___wmul+1)^0,w,c
  2906  003F76  6EDA               	movwf	fsr2h,c
  2907  003F78  CFDE F062          	movff	postinc2,add_task@temp_197
  2908  003F7C  CFDD F063          	movff	postdec2,add_task@temp_197+1
  2909                           
  2910                           ;Linked_List.c: 78:                 arr_task[temp].delay -= delay;
  2911  003F80  C062  F015         	movff	add_task@temp_197,___wmul@multiplier
  2912  003F84  C063  F016         	movff	add_task@temp_197+1,___wmul@multiplier+1
  2913  003F88  0E00               	movlw	0
  2914  003F8A  6E18               	movwf	(___wmul@multiplicand+1)^0,c
  2915  003F8C  0E19               	movlw	25
  2916  003F8E  6E17               	movwf	___wmul@multiplicand^0,c
  2917  003F90  ECE8  F031         	call	___wmul	;wreg free
  2918  003F94  0ED4               	movlw	low (_arr_task+8)
  2919  003F96  2415               	addwf	?___wmul^0,w,c
  2920  003F98  6ED9               	movwf	fsr2l,c
  2921  003F9A  0E01               	movlw	high (_arr_task+8)
  2922  003F9C  2016               	addwfc	(?___wmul+1)^0,w,c
  2923  003F9E  6EDA               	movwf	fsr2h,c
  2924  003FA0  501B               	movf	add_task@delay^0,w,c
  2925  003FA2  5EDE               	subwf	postinc2,f,c
  2926  003FA4  501C               	movf	(add_task@delay+1)^0,w,c
  2927  003FA6  5ADE               	subwfb	postinc2,f,c
  2928  003FA8  501D               	movf	(add_task@delay+2)^0,w,c
  2929  003FAA  5ADE               	subwfb	postinc2,f,c
  2930  003FAC  501E               	movf	(add_task@delay+3)^0,w,c
  2931  003FAE  5ADE               	subwfb	postinc2,f,c
  2932  003FB0  501F               	movf	(add_task@delay+4)^0,w,c
  2933  003FB2  5ADE               	subwfb	postinc2,f,c
  2934  003FB4  5020               	movf	(add_task@delay+5)^0,w,c
  2935  003FB6  5ADE               	subwfb	postinc2,f,c
  2936  003FB8  5021               	movf	(add_task@delay+6)^0,w,c
  2937  003FBA  5ADE               	subwfb	postinc2,f,c
  2938  003FBC  5022               	movf	(add_task@delay+7)^0,w,c
  2939  003FBE  5ADE               	subwfb	postinc2,f,c
  2940  003FC0                     l98:
  2941                           
  2942                           ;Linked_List.c: 82:         arr_task[index].delay = delay;
  2943  003FC0  C068  F015         	movff	add_task@index,___wmul@multiplier
  2944  003FC4  C069  F016         	movff	add_task@index+1,___wmul@multiplier+1
  2945  003FC8  0E00               	movlw	0
  2946  003FCA  6E18               	movwf	(___wmul@multiplicand+1)^0,c
  2947  003FCC  0E19               	movlw	25
  2948  003FCE  6E17               	movwf	___wmul@multiplicand^0,c
  2949  003FD0  ECE8  F031         	call	___wmul	;wreg free
  2950  003FD4  0ED4               	movlw	low (_arr_task+8)
  2951  003FD6  2415               	addwf	?___wmul^0,w,c
  2952  003FD8  6ED9               	movwf	fsr2l,c
  2953  003FDA  0E01               	movlw	high (_arr_task+8)
  2954  003FDC  2016               	addwfc	(?___wmul+1)^0,w,c
  2955  003FDE  6EDA               	movwf	fsr2h,c
  2956  003FE0  C01B  FFDE         	movff	add_task@delay,postinc2
  2957  003FE4  C01C  FFDE         	movff	add_task@delay+1,postinc2
  2958  003FE8  C01D  FFDE         	movff	add_task@delay+2,postinc2
  2959  003FEC  C01E  FFDE         	movff	add_task@delay+3,postinc2
  2960  003FF0  C01F  FFDE         	movff	add_task@delay+4,postinc2
  2961  003FF4  C020  FFDE         	movff	add_task@delay+5,postinc2
  2962  003FF8  C021  FFDE         	movff	add_task@delay+6,postinc2
  2963  003FFC  C022  FFDE         	movff	add_task@delay+7,postinc2
  2964                           
  2965                           ;Linked_List.c: 83:         arr_task[index].period = period;
  2966  004000  C068  F015         	movff	add_task@index,___wmul@multiplier
  2967  004004  C069  F016         	movff	add_task@index+1,___wmul@multiplier+1
  2968  004008  0E00               	movlw	0
  2969  00400A  6E18               	movwf	(___wmul@multiplicand+1)^0,c
  2970  00400C  0E19               	movlw	25
  2971  00400E  6E17               	movwf	___wmul@multiplicand^0,c
  2972  004010  ECE8  F031         	call	___wmul	;wreg free
  2973  004014  0ECC               	movlw	low _arr_task
  2974  004016  2415               	addwf	?___wmul^0,w,c
  2975  004018  6ED9               	movwf	fsr2l,c
  2976  00401A  0E01               	movlw	high _arr_task
  2977  00401C  2016               	addwfc	(?___wmul+1)^0,w,c
  2978  00401E  6EDA               	movwf	fsr2h,c
  2979  004020  C023  FFDE         	movff	add_task@period,postinc2
  2980  004024  C024  FFDE         	movff	add_task@period+1,postinc2
  2981  004028  C025  FFDE         	movff	add_task@period+2,postinc2
  2982  00402C  C026  FFDE         	movff	add_task@period+3,postinc2
  2983  004030  C027  FFDE         	movff	add_task@period+4,postinc2
  2984  004034  C028  FFDE         	movff	add_task@period+5,postinc2
  2985  004038  C029  FFDE         	movff	add_task@period+6,postinc2
  2986  00403C  C02A  FFDE         	movff	add_task@period+7,postinc2
  2987                           
  2988                           ;Linked_List.c: 84:         arr_task[index].run_flag = 0;
  2989  004040  C068  F015         	movff	add_task@index,___wmul@multiplier
  2990  004044  C069  F016         	movff	add_task@index+1,___wmul@multiplier+1
  2991  004048  0E00               	movlw	0
  2992  00404A  6E18               	movwf	(___wmul@multiplicand+1)^0,c
  2993  00404C  0E19               	movlw	25
  2994  00404E  6E17               	movwf	___wmul@multiplicand^0,c
  2995  004050  ECE8  F031         	call	___wmul	;wreg free
  2996  004054  0EDC               	movlw	low (_arr_task+16)
  2997  004056  2415               	addwf	?___wmul^0,w,c
  2998  004058  6ED9               	movwf	fsr2l,c
  2999  00405A  0E01               	movlw	high (_arr_task+16)
  3000  00405C  2016               	addwfc	(?___wmul+1)^0,w,c
  3001  00405E  6EDA               	movwf	fsr2h,c
  3002  004060  0E00               	movlw	0
  3003  004062  6EDE               	movwf	postinc2,c
  3004  004064  0E00               	movlw	0
  3005  004066  6EDD               	movwf	postdec2,c
  3006                           
  3007                           ;Linked_List.c: 85:         arr_task[index].data = data;
  3008  004068  C068  F015         	movff	add_task@index,___wmul@multiplier
  3009  00406C  C069  F016         	movff	add_task@index+1,___wmul@multiplier+1
  3010  004070  0E00               	movlw	0
  3011  004072  6E18               	movwf	(___wmul@multiplicand+1)^0,c
  3012  004074  0E19               	movlw	25
  3013  004076  6E17               	movwf	___wmul@multiplicand^0,c
  3014  004078  ECE8  F031         	call	___wmul	;wreg free
  3015  00407C  0EE3               	movlw	low (_arr_task+23)
  3016  00407E  2415               	addwf	?___wmul^0,w,c
  3017  004080  6ED9               	movwf	fsr2l,c
  3018  004082  0E01               	movlw	high (_arr_task+23)
  3019  004084  2016               	addwfc	(?___wmul+1)^0,w,c
  3020  004086  6EDA               	movwf	fsr2h,c
  3021  004088  C02E  FFDE         	movff	add_task@data,postinc2
  3022  00408C  C02F  FFDD         	movff	add_task@data+1,postdec2
  3023                           
  3024                           ;Linked_List.c: 86:         arr_task[index].pTask = callback;
  3025  004090  C068  F015         	movff	add_task@index,___wmul@multiplier
  3026  004094  C069  F016         	movff	add_task@index+1,___wmul@multiplier+1
  3027  004098  0E00               	movlw	0
  3028  00409A  6E18               	movwf	(___wmul@multiplicand+1)^0,c
  3029  00409C  0E19               	movlw	25
  3030  00409E  6E17               	movwf	___wmul@multiplicand^0,c
  3031  0040A0  ECE8  F031         	call	___wmul	;wreg free
  3032  0040A4  0EDE               	movlw	low (_arr_task+18)
  3033  0040A6  2415               	addwf	?___wmul^0,w,c
  3034  0040A8  6ED9               	movwf	fsr2l,c
  3035  0040AA  0E01               	movlw	high (_arr_task+18)
  3036  0040AC  2016               	addwfc	(?___wmul+1)^0,w,c
  3037  0040AE  6EDA               	movwf	fsr2h,c
  3038  0040B0  C02B  FFDE         	movff	add_task@callback,postinc2
  3039  0040B4  C02C  FFDE         	movff	add_task@callback+1,postinc2
  3040  0040B8  C02D  FFDE         	movff	add_task@callback+2,postinc2
  3041  0040BC  EF1E  F01E         	goto	l4688
  3042  0040C0                     l89:
  3043  0040C0  0012               	return		;funcret
  3044  0040C2                     __end_of_add_task:
  3045                           	opt callstack 0
  3046                           
  3047 ;; *************** function _init_arr_task *****************
  3048 ;; Defined at:
  3049 ;;		line 5 in file "Linked_List.c"
  3050 ;; Parameters:    Size  Location     Type
  3051 ;;		None
  3052 ;; Auto vars:     Size  Location     Type
  3053 ;;  index           2   26[COMRAM] int 
  3054 ;; Return value:  Size  Location     Type
  3055 ;;                  1    wreg      void 
  3056 ;; Registers used:
  3057 ;;		wreg, fsr2l, fsr2h, status,2, status,0, prodl, prodh, cstack
  3058 ;; Tracked objects:
  3059 ;;		On entry : 0/0
  3060 ;;		On exit  : 0/0
  3061 ;;		Unchanged: 0/0
  3062 ;; Data sizes:     COMRAM   BANK0   BANK1   BANK2   BANK3   BANK4   BANK5   BANK6   BANK7   BANK8   BANK9  BANK10  BANK1
      +1  BANK12  BANK13  BANK14  BANK15
  3063 ;;      Params:         0       0       0       0       0       0       0       0       0       0       0       0       
      +0       0       0       0       0
  3064 ;;      Locals:         2       0       0       0       0       0       0       0       0       0       0       0       
      +0       0       0       0       0
  3065 ;;      Temps:          0       0       0       0       0       0       0       0       0       0       0       0       
      +0       0       0       0       0
  3066 ;;      Totals:         2       0       0       0       0       0       0       0       0       0       0       0       
      +0       0       0       0       0
  3067 ;;Total ram usage:        2 bytes
  3068 ;; Hardware stack levels used:    1
  3069 ;; Hardware stack levels required when called:    5
  3070 ;; This function calls:
  3071 ;;		___wmul
  3072 ;; This function is called by:
  3073 ;;		_System_init
  3074 ;; This function uses a non-reentrant model
  3075 ;;
  3076                           
  3077                           	psect	text14
  3078  005CE6                     __ptext14:
  3079                           	opt callstack 0
  3080  005CE6                     _init_arr_task:
  3081                           	opt callstack 24
  3082  005CE6                     
  3083                           ;Linked_List.c: 6:     int index = 0;
  3084  005CE6  0E00               	movlw	0
  3085  005CE8  6E1C               	movwf	(init_arr_task@index+1)^0,c
  3086  005CEA  0E00               	movlw	0
  3087  005CEC  6E1B               	movwf	init_arr_task@index^0,c
  3088                           
  3089                           ;Linked_List.c: 7:     while (index < 20) {
  3090  005CEE  EFF5  F02E         	goto	l5242
  3091  005CF2                     l5238:
  3092                           
  3093                           ;Linked_List.c: 8:         arr_task[index].delay = 0;
  3094  005CF2  C01B  F015         	movff	init_arr_task@index,___wmul@multiplier
  3095  005CF6  C01C  F016         	movff	init_arr_task@index+1,___wmul@multiplier+1
  3096  005CFA  0E00               	movlw	0
  3097  005CFC  6E18               	movwf	(___wmul@multiplicand+1)^0,c
  3098  005CFE  0E19               	movlw	25
  3099  005D00  6E17               	movwf	___wmul@multiplicand^0,c
  3100  005D02  ECE8  F031         	call	___wmul	;wreg free
  3101  005D06  0ED4               	movlw	low (_arr_task+8)
  3102  005D08  2415               	addwf	?___wmul^0,w,c
  3103  005D0A  6ED9               	movwf	fsr2l,c
  3104  005D0C  0E01               	movlw	high (_arr_task+8)
  3105  005D0E  2016               	addwfc	(?___wmul+1)^0,w,c
  3106  005D10  6EDA               	movwf	fsr2h,c
  3107  005D12  0E07               	movlw	7
  3108  005D14                     u6351:
  3109  005D14  6ADE               	clrf	postinc2,c
  3110  005D16  06E8               	decf	wreg,f,c
  3111  005D18  E2FD               	bc	u6351
  3112                           
  3113                           ;Linked_List.c: 9:         arr_task[index].period = 0;
  3114  005D1A  C01B  F015         	movff	init_arr_task@index,___wmul@multiplier
  3115  005D1E  C01C  F016         	movff	init_arr_task@index+1,___wmul@multiplier+1
  3116  005D22  0E00               	movlw	0
  3117  005D24  6E18               	movwf	(___wmul@multiplicand+1)^0,c
  3118  005D26  0E19               	movlw	25
  3119  005D28  6E17               	movwf	___wmul@multiplicand^0,c
  3120  005D2A  ECE8  F031         	call	___wmul	;wreg free
  3121  005D2E  0ECC               	movlw	low _arr_task
  3122  005D30  2415               	addwf	?___wmul^0,w,c
  3123  005D32  6ED9               	movwf	fsr2l,c
  3124  005D34  0E01               	movlw	high _arr_task
  3125  005D36  2016               	addwfc	(?___wmul+1)^0,w,c
  3126  005D38  6EDA               	movwf	fsr2h,c
  3127  005D3A  0E07               	movlw	7
  3128  005D3C                     u6361:
  3129  005D3C  6ADE               	clrf	postinc2,c
  3130  005D3E  06E8               	decf	wreg,f,c
  3131  005D40  E2FD               	bc	u6361
  3132                           
  3133                           ;Linked_List.c: 10:         arr_task[index].next = -1;
  3134  005D42  C01B  F015         	movff	init_arr_task@index,___wmul@multiplier
  3135  005D46  C01C  F016         	movff	init_arr_task@index+1,___wmul@multiplier+1
  3136  005D4A  0E00               	movlw	0
  3137  005D4C  6E18               	movwf	(___wmul@multiplicand+1)^0,c
  3138  005D4E  0E19               	movlw	25
  3139  005D50  6E17               	movwf	___wmul@multiplicand^0,c
  3140  005D52  ECE8  F031         	call	___wmul	;wreg free
  3141  005D56  0EE1               	movlw	low (_arr_task+21)
  3142  005D58  2415               	addwf	?___wmul^0,w,c
  3143  005D5A  6ED9               	movwf	fsr2l,c
  3144  005D5C  0E01               	movlw	high (_arr_task+21)
  3145  005D5E  2016               	addwfc	(?___wmul+1)^0,w,c
  3146  005D60  6EDA               	movwf	fsr2h,c
  3147  005D62  0EFF               	movlw	255
  3148  005D64  6EDE               	movwf	postinc2,c
  3149  005D66  0EFF               	movlw	255
  3150  005D68  6EDD               	movwf	postdec2,c
  3151                           
  3152                           ;Linked_List.c: 11:         arr_task[index].run_flag = -1;
  3153  005D6A  C01B  F015         	movff	init_arr_task@index,___wmul@multiplier
  3154  005D6E  C01C  F016         	movff	init_arr_task@index+1,___wmul@multiplier+1
  3155  005D72  0E00               	movlw	0
  3156  005D74  6E18               	movwf	(___wmul@multiplicand+1)^0,c
  3157  005D76  0E19               	movlw	25
  3158  005D78  6E17               	movwf	___wmul@multiplicand^0,c
  3159  005D7A  ECE8  F031         	call	___wmul	;wreg free
  3160  005D7E  0EDC               	movlw	low (_arr_task+16)
  3161  005D80  2415               	addwf	?___wmul^0,w,c
  3162  005D82  6ED9               	movwf	fsr2l,c
  3163  005D84  0E01               	movlw	high (_arr_task+16)
  3164  005D86  2016               	addwfc	(?___wmul+1)^0,w,c
  3165  005D88  6EDA               	movwf	fsr2h,c
  3166  005D8A  0EFF               	movlw	255
  3167  005D8C  6EDE               	movwf	postinc2,c
  3168  005D8E  0EFF               	movlw	255
  3169  005D90  6EDD               	movwf	postdec2,c
  3170                           
  3171                           ;Linked_List.c: 12:         arr_task[index].pTask = ((void*)0);
  3172  005D92  C01B  F015         	movff	init_arr_task@index,___wmul@multiplier
  3173  005D96  C01C  F016         	movff	init_arr_task@index+1,___wmul@multiplier+1
  3174  005D9A  0E00               	movlw	0
  3175  005D9C  6E18               	movwf	(___wmul@multiplicand+1)^0,c
  3176  005D9E  0E19               	movlw	25
  3177  005DA0  6E17               	movwf	___wmul@multiplicand^0,c
  3178  005DA2  ECE8  F031         	call	___wmul	;wreg free
  3179  005DA6  0EDE               	movlw	low (_arr_task+18)
  3180  005DA8  2415               	addwf	?___wmul^0,w,c
  3181  005DAA  6ED9               	movwf	fsr2l,c
  3182  005DAC  0E01               	movlw	high (_arr_task+18)
  3183  005DAE  2016               	addwfc	(?___wmul+1)^0,w,c
  3184  005DB0  6EDA               	movwf	fsr2h,c
  3185  005DB2  0E00               	movlw	0
  3186  005DB4  6EDE               	movwf	postinc2,c
  3187  005DB6  0E00               	movlw	0
  3188  005DB8  6EDE               	movwf	postinc2,c
  3189  005DBA  0E00               	movlw	0
  3190  005DBC  6EDE               	movwf	postinc2,c
  3191                           
  3192                           ;Linked_List.c: 13:         arr_task[index].data = ((void*)0);
  3193  005DBE  C01B  F015         	movff	init_arr_task@index,___wmul@multiplier
  3194  005DC2  C01C  F016         	movff	init_arr_task@index+1,___wmul@multiplier+1
  3195  005DC6  0E00               	movlw	0
  3196  005DC8  6E18               	movwf	(___wmul@multiplicand+1)^0,c
  3197  005DCA  0E19               	movlw	25
  3198  005DCC  6E17               	movwf	___wmul@multiplicand^0,c
  3199  005DCE  ECE8  F031         	call	___wmul	;wreg free
  3200  005DD2  0EE3               	movlw	low (_arr_task+23)
  3201  005DD4  2415               	addwf	?___wmul^0,w,c
  3202  005DD6  6ED9               	movwf	fsr2l,c
  3203  005DD8  0E01               	movlw	high (_arr_task+23)
  3204  005DDA  2016               	addwfc	(?___wmul+1)^0,w,c
  3205  005DDC  6EDA               	movwf	fsr2h,c
  3206  005DDE  0E00               	movlw	0
  3207  005DE0  6EDE               	movwf	postinc2,c
  3208  005DE2  0E00               	movlw	0
  3209  005DE4  6EDD               	movwf	postdec2,c
  3210  005DE6                     
  3211                           ;Linked_List.c: 14:         index++;
  3212  005DE6  4A1B               	infsnz	init_arr_task@index^0,f,c
  3213  005DE8  2A1C               	incf	(init_arr_task@index+1)^0,f,c
  3214  005DEA                     l5242:
  3215                           
  3216                           ;Linked_List.c: 7:     while (index < 20) {
  3217  005DEA  BE1C               	btfsc	(init_arr_task@index+1)^0,7,c
  3218  005DEC  EF01  F02F         	goto	u6371
  3219  005DF0  501C               	movf	(init_arr_task@index+1)^0,w,c
  3220  005DF2  E109               	bnz	u6370
  3221  005DF4  0E14               	movlw	20
  3222  005DF6  5C1B               	subwf	init_arr_task@index^0,w,c
  3223  005DF8  A0D8               	btfss	status,0,c
  3224  005DFA  EF01  F02F         	goto	u6371
  3225  005DFE  EF03  F02F         	goto	u6370
  3226  005E02                     u6371:
  3227  005E02  EF79  F02E         	goto	l5238
  3228  005E06                     u6370:
  3229  005E06  0012               	return		;funcret
  3230  005E08                     __end_of_init_arr_task:
  3231                           	opt callstack 0
  3232                           
  3233 ;; *************** function ___wmul *****************
  3234 ;; Defined at:
  3235 ;;		line 15 in file "/opt/microchip/xc8/v2.10/pic/sources/c99/common/Umul16.c"
  3236 ;; Parameters:    Size  Location     Type
  3237 ;;  multiplier      2   20[COMRAM] unsigned int 
  3238 ;;  multiplicand    2   22[COMRAM] unsigned int 
  3239 ;; Auto vars:     Size  Location     Type
  3240 ;;  product         2   24[COMRAM] unsigned int 
  3241 ;; Return value:  Size  Location     Type
  3242 ;;                  2   20[COMRAM] unsigned int 
  3243 ;; Registers used:
  3244 ;;		wreg, status,2, status,0, prodl, prodh
  3245 ;; Tracked objects:
  3246 ;;		On entry : 0/0
  3247 ;;		On exit  : 0/0
  3248 ;;		Unchanged: 0/0
  3249 ;; Data sizes:     COMRAM   BANK0   BANK1   BANK2   BANK3   BANK4   BANK5   BANK6   BANK7   BANK8   BANK9  BANK10  BANK1
      +1  BANK12  BANK13  BANK14  BANK15
  3250 ;;      Params:         4       0       0       0       0       0       0       0       0       0       0       0       
      +0       0       0       0       0
  3251 ;;      Locals:         2       0       0       0       0       0       0       0       0       0       0       0       
      +0       0       0       0       0
  3252 ;;      Temps:          0       0       0       0       0       0       0       0       0       0       0       0       
      +0       0       0       0       0
  3253 ;;      Totals:         6       0       0       0       0       0       0       0       0       0       0       0       
      +0       0       0       0       0
  3254 ;;Total ram usage:        6 bytes
  3255 ;; Hardware stack levels used:    1
  3256 ;; Hardware stack levels required when called:    4
  3257 ;; This function calls:
  3258 ;;		Nothing
  3259 ;; This function is called by:
  3260 ;;		_init_arr_task
  3261 ;;		_add_task
  3262 ;;		_remove_task
  3263 ;;		_dispatch_task
  3264 ;; This function uses a non-reentrant model
  3265 ;;
  3266                           
  3267                           	psect	text15
  3268  0063D0                     __ptext15:
  3269                           	opt callstack 0
  3270  0063D0                     ___wmul:
  3271                           	opt callstack 24
  3272  0063D0  5015               	movf	___wmul@multiplier^0,w,c
  3273  0063D2  0217               	mulwf	___wmul@multiplicand^0,c
  3274  0063D4  CFF3 F019          	movff	prodl,___wmul@product
  3275  0063D8  CFF4 F01A          	movff	prodh,___wmul@product+1
  3276  0063DC  5015               	movf	___wmul@multiplier^0,w,c
  3277  0063DE  0218               	mulwf	(___wmul@multiplicand+1)^0,c
  3278  0063E0  50F3               	movf	243,w,c
  3279  0063E2  261A               	addwf	(___wmul@product+1)^0,f,c
  3280  0063E4  5016               	movf	(___wmul@multiplier+1)^0,w,c
  3281  0063E6  0217               	mulwf	___wmul@multiplicand^0,c
  3282  0063E8  50F3               	movf	243,w,c
  3283  0063EA  261A               	addwf	(___wmul@product+1)^0,f,c
  3284  0063EC  C019  F015         	movff	___wmul@product,?___wmul
  3285  0063F0  C01A  F016         	movff	___wmul@product+1,?___wmul+1
  3286  0063F4  0012               	return		;funcret
  3287  0063F6                     __end_of___wmul:
  3288                           	opt callstack 0
  3289                           
  3290 ;; *************** function _init_LED *****************
  3291 ;; Defined at:
  3292 ;;		line 11 in file "System_init.c"
  3293 ;; Parameters:    Size  Location     Type
  3294 ;;		None
  3295 ;; Auto vars:     Size  Location     Type
  3296 ;;		None
  3297 ;; Return value:  Size  Location     Type
  3298 ;;                  1    wreg      void 
  3299 ;; Registers used:
  3300 ;;		wreg, status,2
  3301 ;; Tracked objects:
  3302 ;;		On entry : 0/0
  3303 ;;		On exit  : 0/0
  3304 ;;		Unchanged: 0/0
  3305 ;; Data sizes:     COMRAM   BANK0   BANK1   BANK2   BANK3   BANK4   BANK5   BANK6   BANK7   BANK8   BANK9  BANK10  BANK1
      +1  BANK12  BANK13  BANK14  BANK15
  3306 ;;      Params:         0       0       0       0       0       0       0       0       0       0       0       0       
      +0       0       0       0       0
  3307 ;;      Locals:         0       0       0       0       0       0       0       0       0       0       0       0       
      +0       0       0       0       0
  3308 ;;      Temps:          0       0       0       0       0       0       0       0       0       0       0       0       
      +0       0       0       0       0
  3309 ;;      Totals:         0       0       0       0       0       0       0       0       0       0       0       0       
      +0       0       0       0       0
  3310 ;;Total ram usage:        0 bytes
  3311 ;; Hardware stack levels used:    1
  3312 ;; Hardware stack levels required when called:    4
  3313 ;; This function calls:
  3314 ;;		Nothing
  3315 ;; This function is called by:
  3316 ;;		_System_init
  3317 ;; This function uses a non-reentrant model
  3318 ;;
  3319                           
  3320                           	psect	text16
  3321  00649E                     __ptext16:
  3322                           	opt callstack 0
  3323  00649E                     _init_LED:
  3324                           	opt callstack 25
  3325  00649E                     
  3326                           ;System_init.c: 12:     TRISD = 0x00;
  3327  00649E  0E00               	movlw	0
  3328  0064A0  6E95               	movwf	149,c	;volatile
  3329                           
  3330                           ;System_init.c: 13:     LATD = 0x00;
  3331  0064A2  0E00               	movlw	0
  3332  0064A4  6E8C               	movwf	140,c	;volatile
  3333  0064A6  0012               	return		;funcret
  3334  0064A8                     __end_of_init_LED:
  3335                           	opt callstack 0
  3336                           
  3337 ;; *************** function _calculate_init_tmr1 *****************
  3338 ;; Defined at:
  3339 ;;		line 35 in file "System_init.c"
  3340 ;; Parameters:    Size  Location     Type
  3341 ;;		None
  3342 ;; Auto vars:     Size  Location     Type
  3343 ;;		None
  3344 ;; Return value:  Size  Location     Type
  3345 ;;                  1    wreg      void 
  3346 ;; Registers used:
  3347 ;;		wreg, status,2, status,0, tblptrl, tblptrh, tblptru, prodl, prodh, cstack
  3348 ;; Tracked objects:
  3349 ;;		On entry : 0/0
  3350 ;;		On exit  : 0/0
  3351 ;;		Unchanged: 0/0
  3352 ;; Data sizes:     COMRAM   BANK0   BANK1   BANK2   BANK3   BANK4   BANK5   BANK6   BANK7   BANK8   BANK9  BANK10  BANK1
      +1  BANK12  BANK13  BANK14  BANK15
  3353 ;;      Params:         0       0       0       0       0       0       0       0       0       0       0       0       
      +0       0       0       0       0
  3354 ;;      Locals:         0       0      16       0       0       0       0       0       0       0       0       0       
      +0       0       0       0       0
  3355 ;;      Temps:          0       0       0       0       0       0       0       0       0       0       0       0       
      +0       0       0       0       0
  3356 ;;      Totals:         0       0      16       0       0       0       0       0       0       0       0       0       
      +0       0       0       0       0
  3357 ;;Total ram usage:       16 bytes
  3358 ;; Hardware stack levels used:    1
  3359 ;; Hardware stack levels required when called:    7
  3360 ;; This function calls:
  3361 ;;		___flmul
  3362 ;;		___flsub
  3363 ;;		___fltol
  3364 ;;		___xxtofl
  3365 ;;		_powf
  3366 ;; This function is called by:
  3367 ;;		_System_init
  3368 ;; This function uses a non-reentrant model
  3369 ;;
  3370                           
  3371                           	psect	text17
  3372  005A62                     __ptext17:
  3373                           	opt callstack 0
  3374  005A62                     _calculate_init_tmr1:
  3375                           	opt callstack 22
  3376  005A62                     
  3377                           ;System_init.c: 36:     timer1Counter = powf(2,16) - (int)((1) * (2 * powf(10,3)));
  3378  005A62  0E00               	movlw	0
  3379  005A64  0100               	movlb	0	; () banked
  3380  005A66  6FBF               	movwf	powf@y& (0+255),b
  3381  005A68  0E00               	movlw	0
  3382  005A6A  6FC0               	movwf	(powf@y+1)& (0+255),b
  3383  005A6C  0E40               	movlw	64
  3384  005A6E  6FC1               	movwf	(powf@y+2)& (0+255),b
  3385  005A70  0E40               	movlw	64
  3386  005A72  6FC2               	movwf	(powf@y+3)& (0+255),b
  3387  005A74  0E00               	movlw	0
  3388  005A76  6FBB               	movwf	powf@x& (0+255),b
  3389  005A78  0E00               	movlw	0
  3390  005A7A  6FBC               	movwf	(powf@x+1)& (0+255),b
  3391  005A7C  0E20               	movlw	32
  3392  005A7E  6FBD               	movwf	(powf@x+2)& (0+255),b
  3393  005A80  0E41               	movlw	65
  3394  005A82  6FBE               	movwf	(powf@x+3)& (0+255),b
  3395  005A84  EC40  F008         	call	_powf	;wreg free
  3396  005A88  C0BB  F1BC         	movff	?_powf,_calculate_init_tmr1$1298
  3397  005A8C  C0BC  F1BD         	movff	?_powf+1,_calculate_init_tmr1$1298+1
  3398  005A90  C0BD  F1BE         	movff	?_powf+2,_calculate_init_tmr1$1298+2
  3399  005A94  C0BE  F1BF         	movff	?_powf+3,_calculate_init_tmr1$1298+3
  3400  005A98                     
  3401                           ;System_init.c: 36:     timer1Counter = powf(2,16) - (int)((1) * (2 * powf(10,3)));
  3402  005A98  0E00               	movlw	0
  3403  005A9A  6E19               	movwf	___flmul@a^0,c
  3404  005A9C  0E00               	movlw	0
  3405  005A9E  6E1A               	movwf	(___flmul@a+1)^0,c
  3406  005AA0  0E00               	movlw	0
  3407  005AA2  6E1B               	movwf	(___flmul@a+2)^0,c
  3408  005AA4  0E40               	movlw	64
  3409  005AA6  6E1C               	movwf	(___flmul@a+3)^0,c
  3410  005AA8  C1BC  F015         	movff	_calculate_init_tmr1$1298,___flmul@b
  3411  005AAC  C1BD  F016         	movff	_calculate_init_tmr1$1298+1,___flmul@b+1
  3412  005AB0  C1BE  F017         	movff	_calculate_init_tmr1$1298+2,___flmul@b+2
  3413  005AB4  C1BF  F018         	movff	_calculate_init_tmr1$1298+3,___flmul@b+3
  3414  005AB8  EC20  F025         	call	___flmul	;wreg free
  3415  005ABC  C015  F1C0         	movff	?___flmul,_calculate_init_tmr1$1299
  3416  005AC0  C016  F1C1         	movff	?___flmul+1,_calculate_init_tmr1$1299+1
  3417  005AC4  C017  F1C2         	movff	?___flmul+2,_calculate_init_tmr1$1299+2
  3418  005AC8  C018  F1C3         	movff	?___flmul+3,_calculate_init_tmr1$1299+3
  3419  005ACC                     
  3420                           ;System_init.c: 36:     timer1Counter = powf(2,16) - (int)((1) * (2 * powf(10,3)));
  3421  005ACC  0E00               	movlw	0
  3422  005ACE  0100               	movlb	0	; () banked
  3423  005AD0  6FBF               	movwf	powf@y& (0+255),b
  3424  005AD2  0E00               	movlw	0
  3425  005AD4  6FC0               	movwf	(powf@y+1)& (0+255),b
  3426  005AD6  0E80               	movlw	128
  3427  005AD8  6FC1               	movwf	(powf@y+2)& (0+255),b
  3428  005ADA  0E41               	movlw	65
  3429  005ADC  6FC2               	movwf	(powf@y+3)& (0+255),b
  3430  005ADE  0E00               	movlw	0
  3431  005AE0  6FBB               	movwf	powf@x& (0+255),b
  3432  005AE2  0E00               	movlw	0
  3433  005AE4  6FBC               	movwf	(powf@x+1)& (0+255),b
  3434  005AE6  0E00               	movlw	0
  3435  005AE8  6FBD               	movwf	(powf@x+2)& (0+255),b
  3436  005AEA  0E40               	movlw	64
  3437  005AEC  6FBE               	movwf	(powf@x+3)& (0+255),b
  3438  005AEE  EC40  F008         	call	_powf	;wreg free
  3439  005AF2  C0BB  F1C4         	movff	?_powf,_calculate_init_tmr1$1300
  3440  005AF6  C0BC  F1C5         	movff	?_powf+1,_calculate_init_tmr1$1300+1
  3441  005AFA  C0BD  F1C6         	movff	?_powf+2,_calculate_init_tmr1$1300+2
  3442  005AFE  C0BE  F1C7         	movff	?_powf+3,_calculate_init_tmr1$1300+3
  3443                           
  3444                           ;System_init.c: 36:     timer1Counter = powf(2,16) - (int)((1) * (2 * powf(10,3)));
  3445  005B02  0E00               	movlw	0
  3446  005B04  6E19               	movwf	___flmul@a^0,c
  3447  005B06  0E00               	movlw	0
  3448  005B08  6E1A               	movwf	(___flmul@a+1)^0,c
  3449  005B0A  0E80               	movlw	128
  3450  005B0C  6E1B               	movwf	(___flmul@a+2)^0,c
  3451  005B0E  0E3F               	movlw	63
  3452  005B10  6E1C               	movwf	(___flmul@a+3)^0,c
  3453  005B12  C1C0  F015         	movff	_calculate_init_tmr1$1299,___flmul@b
  3454  005B16  C1C1  F016         	movff	_calculate_init_tmr1$1299+1,___flmul@b+1
  3455  005B1A  C1C2  F017         	movff	_calculate_init_tmr1$1299+2,___flmul@b+2
  3456  005B1E  C1C3  F018         	movff	_calculate_init_tmr1$1299+3,___flmul@b+3
  3457  005B22  EC20  F025         	call	___flmul	;wreg free
  3458  005B26  C015  F0CC         	movff	?___flmul,___fltol@f1
  3459  005B2A  C016  F0CD         	movff	?___flmul+1,___fltol@f1+1
  3460  005B2E  C017  F0CE         	movff	?___flmul+2,___fltol@f1+2
  3461  005B32  C018  F0CF         	movff	?___flmul+3,___fltol@f1+3
  3462  005B36  EC89  F02F         	call	___fltol	;wreg free
  3463  005B3A  0100               	movlb	0	; () banked
  3464  005B3C  C0CC  F02E         	movff	?___fltol,___xxtofl@val
  3465  005B40  C0CD  F02F         	movff	?___fltol+1,___xxtofl@val+1
  3466  005B44  0E00               	movlw	0
  3467  005B46  BE2F               	btfsc	(___xxtofl@val+1)^0,7,c
  3468  005B48  0EFF               	movlw	-1
  3469  005B4A  6E30               	movwf	(___xxtofl@val+2)^0,c
  3470  005B4C  6E31               	movwf	(___xxtofl@val+3)^0,c
  3471  005B4E  0E01               	movlw	1
  3472  005B50  EC9E  F02B         	call	___xxtofl
  3473  005B54  C02E  F07A         	movff	?___xxtofl,___flsub@a
  3474  005B58  C02F  F07B         	movff	?___xxtofl+1,___flsub@a+1
  3475  005B5C  C030  F07C         	movff	?___xxtofl+2,___flsub@a+2
  3476  005B60  C031  F07D         	movff	?___xxtofl+3,___flsub@a+3
  3477  005B64  C1C4  F076         	movff	_calculate_init_tmr1$1300,___flsub@b
  3478  005B68  C1C5  F077         	movff	_calculate_init_tmr1$1300+1,___flsub@b+1
  3479  005B6C  C1C6  F078         	movff	_calculate_init_tmr1$1300+2,___flsub@b+2
  3480  005B70  C1C7  F079         	movff	_calculate_init_tmr1$1300+3,___flsub@b+3
  3481  005B74  EC3F  F031         	call	___flsub	;wreg free
  3482  005B78  C076  F1C8         	movff	?___flsub,_calculate_init_tmr1$1301
  3483  005B7C  C077  F1C9         	movff	?___flsub+1,_calculate_init_tmr1$1301+1
  3484  005B80  C078  F1CA         	movff	?___flsub+2,_calculate_init_tmr1$1301+2
  3485  005B84  C079  F1CB         	movff	?___flsub+3,_calculate_init_tmr1$1301+3
  3486  005B88                     
  3487                           ;System_init.c: 36:     timer1Counter = powf(2,16) - (int)((1) * (2 * powf(10,3)));
  3488  005B88  C1C8  F0CC         	movff	_calculate_init_tmr1$1301,___fltol@f1
  3489  005B8C  C1C9  F0CD         	movff	_calculate_init_tmr1$1301+1,___fltol@f1+1
  3490  005B90  C1CA  F0CE         	movff	_calculate_init_tmr1$1301+2,___fltol@f1+2
  3491  005B94  C1CB  F0CF         	movff	_calculate_init_tmr1$1301+3,___fltol@f1+3
  3492  005B98  EC89  F02F         	call	___fltol	;wreg free
  3493  005B9C  C0CC  F0F1         	movff	?___fltol,_timer1Counter
  3494  005BA0  C0CD  F0F2         	movff	?___fltol+1,_timer1Counter+1
  3495  005BA4                     
  3496                           ;System_init.c: 37:     TMR1H = (timer1Counter >> 8);
  3497  005BA4  0100               	movlb	0	; () banked
  3498  005BA6  51F2               	movf	(_timer1Counter+1)& (0+255),w,b
  3499  005BA8  6ECF               	movwf	207,c	;volatile
  3500  005BAA                     
  3501                           ; BSR set to: 0
  3502                           ;System_init.c: 38:     TMR1L = (int) timer1Counter;
  3503  005BAA  C0F1  FFCE         	movff	_timer1Counter,4046	;volatile
  3504  005BAE                     
  3505                           ; BSR set to: 0
  3506  005BAE  0012               	return		;funcret
  3507  005BB0                     __end_of_calculate_init_tmr1:
  3508                           	opt callstack 0
  3509                           
  3510 ;; *************** function _calculate_init_tmr0 *****************
  3511 ;; Defined at:
  3512 ;;		line 29 in file "System_init.c"
  3513 ;; Parameters:    Size  Location     Type
  3514 ;;		None
  3515 ;; Auto vars:     Size  Location     Type
  3516 ;;		None
  3517 ;; Return value:  Size  Location     Type
  3518 ;;                  1    wreg      void 
  3519 ;; Registers used:
  3520 ;;		wreg, status,2, status,0, tblptrl, tblptrh, tblptru, prodl, prodh, cstack
  3521 ;; Tracked objects:
  3522 ;;		On entry : 0/0
  3523 ;;		On exit  : 0/0
  3524 ;;		Unchanged: 0/0
  3525 ;; Data sizes:     COMRAM   BANK0   BANK1   BANK2   BANK3   BANK4   BANK5   BANK6   BANK7   BANK8   BANK9  BANK10  BANK1
      +1  BANK12  BANK13  BANK14  BANK15
  3526 ;;      Params:         0       0       0       0       0       0       0       0       0       0       0       0       
      +0       0       0       0       0
  3527 ;;      Locals:         0       0      16       0       0       0       0       0       0       0       0       0       
      +0       0       0       0       0
  3528 ;;      Temps:          0       0       0       0       0       0       0       0       0       0       0       0       
      +0       0       0       0       0
  3529 ;;      Totals:         0       0      16       0       0       0       0       0       0       0       0       0       
      +0       0       0       0       0
  3530 ;;Total ram usage:       16 bytes
  3531 ;; Hardware stack levels used:    1
  3532 ;; Hardware stack levels required when called:    7
  3533 ;; This function calls:
  3534 ;;		___fladd
  3535 ;;		___flmul
  3536 ;;		___flsub
  3537 ;;		___fltol
  3538 ;;		___xxtofl
  3539 ;;		_powf
  3540 ;; This function is called by:
  3541 ;;		_System_init
  3542 ;; This function uses a non-reentrant model
  3543 ;;
  3544                           
  3545                           	psect	text18
  3546  0058F4                     __ptext18:
  3547                           	opt callstack 0
  3548  0058F4                     _calculate_init_tmr0:
  3549                           	opt callstack 22
  3550  0058F4                     
  3551                           ;System_init.c: 30:     timer0Counter = powf(2,16) - (uint32_t)((1) * (2 * powf(10,3))) 
      +                          - 1;
  3552  0058F4  0E00               	movlw	0
  3553  0058F6  0100               	movlb	0	; () banked
  3554  0058F8  6FBF               	movwf	powf@y& (0+255),b
  3555  0058FA  0E00               	movlw	0
  3556  0058FC  6FC0               	movwf	(powf@y+1)& (0+255),b
  3557  0058FE  0E40               	movlw	64
  3558  005900  6FC1               	movwf	(powf@y+2)& (0+255),b
  3559  005902  0E40               	movlw	64
  3560  005904  6FC2               	movwf	(powf@y+3)& (0+255),b
  3561  005906  0E00               	movlw	0
  3562  005908  6FBB               	movwf	powf@x& (0+255),b
  3563  00590A  0E00               	movlw	0
  3564  00590C  6FBC               	movwf	(powf@x+1)& (0+255),b
  3565  00590E  0E20               	movlw	32
  3566  005910  6FBD               	movwf	(powf@x+2)& (0+255),b
  3567  005912  0E41               	movlw	65
  3568  005914  6FBE               	movwf	(powf@x+3)& (0+255),b
  3569  005916  EC40  F008         	call	_powf	;wreg free
  3570  00591A  C0BB  F1BC         	movff	?_powf,_calculate_init_tmr0$1294
  3571  00591E  C0BC  F1BD         	movff	?_powf+1,_calculate_init_tmr0$1294+1
  3572  005922  C0BD  F1BE         	movff	?_powf+2,_calculate_init_tmr0$1294+2
  3573  005926  C0BE  F1BF         	movff	?_powf+3,_calculate_init_tmr0$1294+3
  3574  00592A                     
  3575                           ;System_init.c: 30:     timer0Counter = powf(2,16) - (uint32_t)((1) * (2 * powf(10,3))) 
      +                          - 1;
  3576  00592A  0E00               	movlw	0
  3577  00592C  6E19               	movwf	___flmul@a^0,c
  3578  00592E  0E00               	movlw	0
  3579  005930  6E1A               	movwf	(___flmul@a+1)^0,c
  3580  005932  0E00               	movlw	0
  3581  005934  6E1B               	movwf	(___flmul@a+2)^0,c
  3582  005936  0E40               	movlw	64
  3583  005938  6E1C               	movwf	(___flmul@a+3)^0,c
  3584  00593A  C1BC  F015         	movff	_calculate_init_tmr0$1294,___flmul@b
  3585  00593E  C1BD  F016         	movff	_calculate_init_tmr0$1294+1,___flmul@b+1
  3586  005942  C1BE  F017         	movff	_calculate_init_tmr0$1294+2,___flmul@b+2
  3587  005946  C1BF  F018         	movff	_calculate_init_tmr0$1294+3,___flmul@b+3
  3588  00594A  EC20  F025         	call	___flmul	;wreg free
  3589  00594E  C015  F1C0         	movff	?___flmul,_calculate_init_tmr0$1295
  3590  005952  C016  F1C1         	movff	?___flmul+1,_calculate_init_tmr0$1295+1
  3591  005956  C017  F1C2         	movff	?___flmul+2,_calculate_init_tmr0$1295+2
  3592  00595A  C018  F1C3         	movff	?___flmul+3,_calculate_init_tmr0$1295+3
  3593  00595E                     
  3594                           ;System_init.c: 30:     timer0Counter = powf(2,16) - (uint32_t)((1) * (2 * powf(10,3))) 
      +                          - 1;
  3595  00595E  0E00               	movlw	0
  3596  005960  0100               	movlb	0	; () banked
  3597  005962  6FBF               	movwf	powf@y& (0+255),b
  3598  005964  0E00               	movlw	0
  3599  005966  6FC0               	movwf	(powf@y+1)& (0+255),b
  3600  005968  0E80               	movlw	128
  3601  00596A  6FC1               	movwf	(powf@y+2)& (0+255),b
  3602  00596C  0E41               	movlw	65
  3603  00596E  6FC2               	movwf	(powf@y+3)& (0+255),b
  3604  005970  0E00               	movlw	0
  3605  005972  6FBB               	movwf	powf@x& (0+255),b
  3606  005974  0E00               	movlw	0
  3607  005976  6FBC               	movwf	(powf@x+1)& (0+255),b
  3608  005978  0E00               	movlw	0
  3609  00597A  6FBD               	movwf	(powf@x+2)& (0+255),b
  3610  00597C  0E40               	movlw	64
  3611  00597E  6FBE               	movwf	(powf@x+3)& (0+255),b
  3612  005980  EC40  F008         	call	_powf	;wreg free
  3613  005984  C0BB  F1C4         	movff	?_powf,_calculate_init_tmr0$1296
  3614  005988  C0BC  F1C5         	movff	?_powf+1,_calculate_init_tmr0$1296+1
  3615  00598C  C0BD  F1C6         	movff	?_powf+2,_calculate_init_tmr0$1296+2
  3616  005990  C0BE  F1C7         	movff	?_powf+3,_calculate_init_tmr0$1296+3
  3617                           
  3618                           ;System_init.c: 30:     timer0Counter = powf(2,16) - (uint32_t)((1) * (2 * powf(10,3))) 
      +                          - 1;
  3619  005994  0E00               	movlw	0
  3620  005996  6E19               	movwf	___flmul@a^0,c
  3621  005998  0E00               	movlw	0
  3622  00599A  6E1A               	movwf	(___flmul@a+1)^0,c
  3623  00599C  0E80               	movlw	128
  3624  00599E  6E1B               	movwf	(___flmul@a+2)^0,c
  3625  0059A0  0E3F               	movlw	63
  3626  0059A2  6E1C               	movwf	(___flmul@a+3)^0,c
  3627  0059A4  C1C0  F015         	movff	_calculate_init_tmr0$1295,___flmul@b
  3628  0059A8  C1C1  F016         	movff	_calculate_init_tmr0$1295+1,___flmul@b+1
  3629  0059AC  C1C2  F017         	movff	_calculate_init_tmr0$1295+2,___flmul@b+2
  3630  0059B0  C1C3  F018         	movff	_calculate_init_tmr0$1295+3,___flmul@b+3
  3631  0059B4  EC20  F025         	call	___flmul	;wreg free
  3632  0059B8  C015  F0CC         	movff	?___flmul,___fltol@f1
  3633  0059BC  C016  F0CD         	movff	?___flmul+1,___fltol@f1+1
  3634  0059C0  C017  F0CE         	movff	?___flmul+2,___fltol@f1+2
  3635  0059C4  C018  F0CF         	movff	?___flmul+3,___fltol@f1+3
  3636  0059C8  EC89  F02F         	call	___fltol	;wreg free
  3637  0059CC  C0CC  F02E         	movff	?___fltol,___xxtofl@val
  3638  0059D0  C0CD  F02F         	movff	?___fltol+1,___xxtofl@val+1
  3639  0059D4  C0CE  F030         	movff	?___fltol+2,___xxtofl@val+2
  3640  0059D8  C0CF  F031         	movff	?___fltol+3,___xxtofl@val+3
  3641  0059DC  0E00               	movlw	0
  3642  0059DE  EC9E  F02B         	call	___xxtofl
  3643  0059E2  C02E  F07A         	movff	?___xxtofl,___flsub@a
  3644  0059E6  C02F  F07B         	movff	?___xxtofl+1,___flsub@a+1
  3645  0059EA  C030  F07C         	movff	?___xxtofl+2,___flsub@a+2
  3646  0059EE  C031  F07D         	movff	?___xxtofl+3,___flsub@a+3
  3647  0059F2  C1C4  F076         	movff	_calculate_init_tmr0$1296,___flsub@b
  3648  0059F6  C1C5  F077         	movff	_calculate_init_tmr0$1296+1,___flsub@b+1
  3649  0059FA  C1C6  F078         	movff	_calculate_init_tmr0$1296+2,___flsub@b+2
  3650  0059FE  C1C7  F079         	movff	_calculate_init_tmr0$1296+3,___flsub@b+3
  3651  005A02  EC3F  F031         	call	___flsub	;wreg free
  3652  005A06  C076  F1C8         	movff	?___flsub,_calculate_init_tmr0$1297
  3653  005A0A  C077  F1C9         	movff	?___flsub+1,_calculate_init_tmr0$1297+1
  3654  005A0E  C078  F1CA         	movff	?___flsub+2,_calculate_init_tmr0$1297+2
  3655  005A12  C079  F1CB         	movff	?___flsub+3,_calculate_init_tmr0$1297+3
  3656  005A16                     
  3657                           ;System_init.c: 30:     timer0Counter = powf(2,16) - (uint32_t)((1) * (2 * powf(10,3))) 
      +                          - 1;
  3658  005A16  0E00               	movlw	0
  3659  005A18  0100               	movlb	0	; () banked
  3660  005A1A  6F6A               	movwf	___fladd@a& (0+255),b
  3661  005A1C  0E00               	movlw	0
  3662  005A1E  6F6B               	movwf	(___fladd@a+1)& (0+255),b
  3663  005A20  0E80               	movlw	128
  3664  005A22  6F6C               	movwf	(___fladd@a+2)& (0+255),b
  3665  005A24  0EBF               	movlw	191
  3666  005A26  6F6D               	movwf	(___fladd@a+3)& (0+255),b
  3667  005A28  C1C8  F066         	movff	_calculate_init_tmr0$1297,___fladd@b
  3668  005A2C  C1C9  F067         	movff	_calculate_init_tmr0$1297+1,___fladd@b+1
  3669  005A30  C1CA  F068         	movff	_calculate_init_tmr0$1297+2,___fladd@b+2
  3670  005A34  C1CB  F069         	movff	_calculate_init_tmr0$1297+3,___fladd@b+3
  3671  005A38  EC61  F020         	call	___fladd	;wreg free
  3672  005A3C  C066  F0CC         	movff	?___fladd,___fltol@f1
  3673  005A40  C067  F0CD         	movff	?___fladd+1,___fltol@f1+1
  3674  005A44  C068  F0CE         	movff	?___fladd+2,___fltol@f1+2
  3675  005A48  C069  F0CF         	movff	?___fladd+3,___fltol@f1+3
  3676  005A4C  EC89  F02F         	call	___fltol	;wreg free
  3677  005A50  C0CC  F046         	movff	?___fltol,_timer0Counter
  3678  005A54  C0CD  F047         	movff	?___fltol+1,_timer0Counter+1
  3679  005A58  C0CE  F048         	movff	?___fltol+2,_timer0Counter+2
  3680  005A5C  C0CF  F049         	movff	?___fltol+3,_timer0Counter+3
  3681  005A60  0012               	return		;funcret
  3682  005A62                     __end_of_calculate_init_tmr0:
  3683                           	opt callstack 0
  3684                           
  3685 ;; *************** function _powf *****************
  3686 ;; Defined at:
  3687 ;;		line 52 in file "/opt/microchip/xc8/v2.10/pic/sources/c99/common/powf.c"
  3688 ;; Parameters:    Size  Location     Type
  3689 ;;  x               4   91[BANK0 ] float 
  3690 ;;  y               4   95[BANK0 ] float 
  3691 ;; Auto vars:     Size  Location     Type
  3692 ;;  s2              4  140[BANK1 ] float 
  3693 ;;  s_h             4  108[BANK1 ] float 
  3694 ;;  t_h             4  104[BANK1 ] float 
  3695 ;;  t_l             4   52[BANK1 ] float 
  3696 ;;  s_l             4   48[BANK1 ] float 
  3697 ;;  __xc8_float_    4  184[BANK1 ] struct .
  3698 ;;  z               4  180[BANK1 ] float 
  3699 ;;  t               4  176[BANK1 ] float 
  3700 ;;  j               4  172[BANK1 ] long 
  3701 ;;  ix              4  168[BANK1 ] long 
  3702 ;;  k               4  160[BANK1 ] long 
  3703 ;;  p_h             4  156[BANK1 ] float 
  3704 ;;  is              4  148[BANK1 ] long 
  3705 ;;  iy              4  144[BANK1 ] long 
  3706 ;;  sn              4  136[BANK1 ] float 
  3707 ;;  t1              4  132[BANK1 ] float 
  3708 ;;  n               4  128[BANK1 ] long 
  3709 ;;  hy              4  124[BANK1 ] long 
  3710 ;;  v               4  120[BANK1 ] float 
  3711 ;;  u               4  116[BANK1 ] float 
  3712 ;;  ax              4  112[BANK1 ] float 
  3713 ;;  p_l             4  100[BANK1 ] float 
  3714 ;;  hx              4   96[BANK1 ] long 
  3715 ;;  s               4   92[BANK1 ] float 
  3716 ;;  yisint          4   80[BANK1 ] long 
  3717 ;;  r               4   76[BANK1 ] float 
  3718 ;;  w               4   68[BANK1 ] float 
  3719 ;;  i               4   44[BANK1 ] long 
  3720 ;;  y1              4   40[BANK1 ] float 
  3721 ;;  z_l             4   36[BANK1 ] float 
  3722 ;;  z_h             4   32[BANK1 ] float 
  3723 ;;  t2              4   28[BANK1 ] float 
  3724 ;; Return value:  Size  Location     Type
  3725 ;;                  4   91[BANK0 ] float 
  3726 ;; Registers used:
  3727 ;;		wreg, status,2, status,0, tblptrl, tblptrh, tblptru, prodl, prodh, cstack
  3728 ;; Tracked objects:
  3729 ;;		On entry : 0/0
  3730 ;;		On exit  : 0/0
  3731 ;;		Unchanged: 0/0
  3732 ;; Data sizes:     COMRAM   BANK0   BANK1   BANK2   BANK3   BANK4   BANK5   BANK6   BANK7   BANK8   BANK9  BANK10  BANK1
      +1  BANK12  BANK13  BANK14  BANK15
  3733 ;;      Params:         0       8       0       0       0       0       0       0       0       0       0       0       
      +0       0       0       0       0
  3734 ;;      Locals:         0       0     188       0       0       0       0       0       0       0       0       0       
      +0       0       0       0       0
  3735 ;;      Temps:          0       9       0       0       0       0       0       0       0       0       0       0       
      +0       0       0       0       0
  3736 ;;      Totals:         0      17     188       0       0       0       0       0       0       0       0       0       
      +0       0       0       0       0
  3737 ;;Total ram usage:      205 bytes
  3738 ;; Hardware stack levels used:    1
  3739 ;; Hardware stack levels required when called:    6
  3740 ;; This function calls:
  3741 ;;		___fladd
  3742 ;;		___fldiv
  3743 ;;		___flge
  3744 ;;		___flmul
  3745 ;;		___flneg
  3746 ;;		___flsub
  3747 ;;		___xxtofl
  3748 ;;		_fabsf
  3749 ;;		_scalbnf
  3750 ;;		_sqrtf
  3751 ;; This function is called by:
  3752 ;;		_calculate_init_tmr0
  3753 ;;		_calculate_init_tmr1
  3754 ;; This function uses a non-reentrant model
  3755 ;;
  3756                           
  3757                           	psect	text19
  3758  001080                     __ptext19:
  3759                           	opt callstack 0
  3760  001080                     _powf:
  3761                           	opt callstack 22
  3762  001080  C0BB  F1B8         	movff	powf@x,powf@__xc8_float_word
  3763  001084  C0BC  F1B9         	movff	powf@x+1,powf@__xc8_float_word+1
  3764  001088  C0BD  F1BA         	movff	powf@x+2,powf@__xc8_float_word+2
  3765  00108C  C0BE  F1BB         	movff	powf@x+3,powf@__xc8_float_word+3
  3766  001090  C1B8  F160         	movff	powf@__xc8_float_word,powf@hx
  3767  001094  C1B9  F161         	movff	powf@__xc8_float_word+1,powf@hx+1
  3768  001098  C1BA  F162         	movff	powf@__xc8_float_word+2,powf@hx+2
  3769  00109C  C1BB  F163         	movff	powf@__xc8_float_word+3,powf@hx+3
  3770  0010A0  C0BF  F1B8         	movff	powf@y,powf@__xc8_float_word
  3771  0010A4  C0C0  F1B9         	movff	powf@y+1,powf@__xc8_float_word+1
  3772  0010A8  C0C1  F1BA         	movff	powf@y+2,powf@__xc8_float_word+2
  3773  0010AC  C0C2  F1BB         	movff	powf@y+3,powf@__xc8_float_word+3
  3774  0010B0  C1B8  F17C         	movff	powf@__xc8_float_word,powf@hy
  3775  0010B4  C1B9  F17D         	movff	powf@__xc8_float_word+1,powf@hy+1
  3776  0010B8  C1BA  F17E         	movff	powf@__xc8_float_word+2,powf@hy+2
  3777  0010BC  C1BB  F17F         	movff	powf@__xc8_float_word+3,powf@hy+3
  3778  0010C0  0EFF               	movlw	255
  3779  0010C2  0101               	movlb	1	; () banked
  3780  0010C4  1560               	andwf	powf@hx& (0+255),w,b
  3781  0010C6  6FA8               	movwf	powf@ix& (0+255),b
  3782  0010C8  0EFF               	movlw	255
  3783  0010CA  1561               	andwf	(powf@hx+1)& (0+255),w,b
  3784  0010CC  6FA9               	movwf	(powf@ix+1)& (0+255),b
  3785  0010CE  0EFF               	movlw	255
  3786  0010D0  1562               	andwf	(powf@hx+2)& (0+255),w,b
  3787  0010D2  6FAA               	movwf	(powf@ix+2)& (0+255),b
  3788  0010D4  0E7F               	movlw	127
  3789  0010D6  1563               	andwf	(powf@hx+3)& (0+255),w,b
  3790  0010D8  6FAB               	movwf	(powf@ix+3)& (0+255),b
  3791  0010DA  0EFF               	movlw	255
  3792  0010DC  157C               	andwf	powf@hy& (0+255),w,b
  3793  0010DE  6F90               	movwf	powf@iy& (0+255),b
  3794  0010E0  0EFF               	movlw	255
  3795  0010E2  157D               	andwf	(powf@hy+1)& (0+255),w,b
  3796  0010E4  6F91               	movwf	(powf@iy+1)& (0+255),b
  3797  0010E6  0EFF               	movlw	255
  3798  0010E8  157E               	andwf	(powf@hy+2)& (0+255),w,b
  3799  0010EA  6F92               	movwf	(powf@iy+2)& (0+255),b
  3800  0010EC  0E7F               	movlw	127
  3801  0010EE  157F               	andwf	(powf@hy+3)& (0+255),w,b
  3802  0010F0  6F93               	movwf	(powf@iy+3)& (0+255),b
  3803  0010F2  5190               	movf	powf@iy& (0+255),w,b
  3804  0010F4  1191               	iorwf	(powf@iy+1)& (0+255),w,b
  3805  0010F6  1192               	iorwf	(powf@iy+2)& (0+255),w,b
  3806  0010F8  1193               	iorwf	(powf@iy+3)& (0+255),w,b
  3807  0010FA  A4D8               	btfss	status,2,c
  3808  0010FC  EF82  F008         	goto	u5711
  3809  001100  EF84  F008         	goto	u5710
  3810  001104                     u5711:
  3811  001104  EF8F  F008         	goto	l4728
  3812  001108                     u5710:
  3813  001108                     
  3814                           ; BSR set to: 1
  3815  001108  0E00               	movlw	0
  3816  00110A  0100               	movlb	0	; () banked
  3817  00110C  6FBB               	movwf	?_powf& (0+255),b
  3818  00110E  0E00               	movlw	0
  3819  001110  6FBC               	movwf	(?_powf+1)& (0+255),b
  3820  001112  0E80               	movlw	128
  3821  001114  6FBD               	movwf	(?_powf+2)& (0+255),b
  3822  001116  0E3F               	movlw	63
  3823  001118  6FBE               	movwf	(?_powf+3)& (0+255),b
  3824  00111A  EF6D  F01D         	goto	l1037
  3825  00111E                     l4728:
  3826                           
  3827                           ; BSR set to: 1
  3828  00111E  0E80               	movlw	128
  3829  001120  1962               	xorwf	(powf@hx+2)& (0+255),w,b
  3830  001122  E109               	bnz	u5721
  3831  001124  0E3F               	movlw	63
  3832  001126  1963               	xorwf	(powf@hx+3)& (0+255),w,b
  3833  001128  1160               	iorwf	powf@hx& (0+255),w,b
  3834  00112A  1161               	iorwf	(powf@hx+1)& (0+255),w,b
  3835  00112C  A4D8               	btfss	status,2,c
  3836  00112E  EF9B  F008         	goto	u5721
  3837  001132  EF9D  F008         	goto	u5720
  3838  001136                     u5721:
  3839  001136  EFA8  F008         	goto	l4734
  3840  00113A                     u5720:
  3841  00113A                     
  3842                           ; BSR set to: 1
  3843  00113A  0E00               	movlw	0
  3844  00113C  0100               	movlb	0	; () banked
  3845  00113E  6FBB               	movwf	?_powf& (0+255),b
  3846  001140  0E00               	movlw	0
  3847  001142  6FBC               	movwf	(?_powf+1)& (0+255),b
  3848  001144  0E80               	movlw	128
  3849  001146  6FBD               	movwf	(?_powf+2)& (0+255),b
  3850  001148  0E3F               	movlw	63
  3851  00114A  6FBE               	movwf	(?_powf+3)& (0+255),b
  3852  00114C  EF6D  F01D         	goto	l1037
  3853  001150                     l4734:
  3854                           
  3855                           ; BSR set to: 1
  3856  001150  BFAB               	btfsc	(powf@ix+3)& (0+255),7,b
  3857  001152  EFB9  F008         	goto	u5730
  3858  001156  05A8               	decf	powf@ix& (0+255),w,b
  3859  001158  0E00               	movlw	0
  3860  00115A  59A9               	subwfb	(powf@ix+1)& (0+255),w,b
  3861  00115C  0E80               	movlw	128
  3862  00115E  59AA               	subwfb	(powf@ix+2)& (0+255),w,b
  3863  001160  0E7F               	movlw	127
  3864  001162  59AB               	subwfb	(powf@ix+3)& (0+255),w,b
  3865  001164  B0D8               	btfsc	status,0,c
  3866  001166  EFB7  F008         	goto	u5731
  3867  00116A  EFB9  F008         	goto	u5730
  3868  00116E                     u5731:
  3869  00116E  EFCA  F008         	goto	l4738
  3870  001172                     u5730:
  3871  001172                     
  3872                           ; BSR set to: 1
  3873  001172  BF93               	btfsc	(powf@iy+3)& (0+255),7,b
  3874  001174  EFC8  F008         	goto	u5741
  3875  001178  0590               	decf	powf@iy& (0+255),w,b
  3876  00117A  0E00               	movlw	0
  3877  00117C  5991               	subwfb	(powf@iy+1)& (0+255),w,b
  3878  00117E  0E80               	movlw	128
  3879  001180  5992               	subwfb	(powf@iy+2)& (0+255),w,b
  3880  001182  0E7F               	movlw	127
  3881  001184  5993               	subwfb	(powf@iy+3)& (0+255),w,b
  3882  001186  A0D8               	btfss	status,0,c
  3883  001188  EFC8  F008         	goto	u5741
  3884  00118C  EFCA  F008         	goto	u5740
  3885  001190                     u5741:
  3886  001190  EFE6  F008         	goto	l4742
  3887  001194                     u5740:
  3888  001194                     l4738:
  3889                           
  3890                           ; BSR set to: 1
  3891  001194  C0BB  F066         	movff	powf@x,___fladd@b
  3892  001198  C0BC  F067         	movff	powf@x+1,___fladd@b+1
  3893  00119C  C0BD  F068         	movff	powf@x+2,___fladd@b+2
  3894  0011A0  C0BE  F069         	movff	powf@x+3,___fladd@b+3
  3895  0011A4  C0BF  F06A         	movff	powf@y,___fladd@a
  3896  0011A8  C0C0  F06B         	movff	powf@y+1,___fladd@a+1
  3897  0011AC  C0C1  F06C         	movff	powf@y+2,___fladd@a+2
  3898  0011B0  C0C2  F06D         	movff	powf@y+3,___fladd@a+3
  3899  0011B4  EC61  F020         	call	___fladd	;wreg free
  3900  0011B8  C066  F0BB         	movff	?___fladd,?_powf
  3901  0011BC  C067  F0BC         	movff	?___fladd+1,?_powf+1
  3902  0011C0  C068  F0BD         	movff	?___fladd+2,?_powf+2
  3903  0011C4  C069  F0BE         	movff	?___fladd+3,?_powf+3
  3904  0011C8  EF6D  F01D         	goto	l1037
  3905  0011CC                     l4742:
  3906                           
  3907                           ; BSR set to: 1
  3908  0011CC  0E00               	movlw	0
  3909  0011CE  6F50               	movwf	powf@yisint& (0+255),b
  3910  0011D0  0E00               	movlw	0
  3911  0011D2  6F51               	movwf	(powf@yisint+1)& (0+255),b
  3912  0011D4  0E00               	movlw	0
  3913  0011D6  6F52               	movwf	(powf@yisint+2)& (0+255),b
  3914  0011D8  0E00               	movlw	0
  3915  0011DA  6F53               	movwf	(powf@yisint+3)& (0+255),b
  3916  0011DC                     
  3917                           ; BSR set to: 1
  3918  0011DC  BF63               	btfsc	(powf@hx+3)& (0+255),7,b
  3919  0011DE  EFF5  F008         	goto	u5750
  3920  0011E2  EFF3  F008         	goto	u5751
  3921  0011E6                     u5751:
  3922  0011E6  EFC1  F009         	goto	l1042
  3923  0011EA                     u5750:
  3924  0011EA                     
  3925                           ; BSR set to: 1
  3926  0011EA  BF93               	btfsc	(powf@iy+3)& (0+255),7,b
  3927  0011EC  EF01  F009         	goto	u5761
  3928  0011F0  0E80               	movlw	128
  3929  0011F2  5D92               	subwf	(powf@iy+2)& (0+255),w,b
  3930  0011F4  0E4B               	movlw	75
  3931  0011F6  5993               	subwfb	(powf@iy+3)& (0+255),w,b
  3932  0011F8  A0D8               	btfss	status,0,c
  3933  0011FA  EF01  F009         	goto	u5761
  3934  0011FE  EF03  F009         	goto	u5760
  3935  001202                     u5761:
  3936  001202  EF0D  F009         	goto	l4750
  3937  001206                     u5760:
  3938  001206                     
  3939                           ; BSR set to: 1
  3940  001206  0E02               	movlw	2
  3941  001208  6F50               	movwf	powf@yisint& (0+255),b
  3942  00120A  0E00               	movlw	0
  3943  00120C  6F51               	movwf	(powf@yisint+1)& (0+255),b
  3944  00120E  0E00               	movlw	0
  3945  001210  6F52               	movwf	(powf@yisint+2)& (0+255),b
  3946  001212  0E00               	movlw	0
  3947  001214  6F53               	movwf	(powf@yisint+3)& (0+255),b
  3948  001216  EFC1  F009         	goto	l1042
  3949  00121A                     l4750:
  3950                           
  3951                           ; BSR set to: 1
  3952  00121A  BF93               	btfsc	(powf@iy+3)& (0+255),7,b
  3953  00121C  EF19  F009         	goto	u5771
  3954  001220  0E80               	movlw	128
  3955  001222  5D92               	subwf	(powf@iy+2)& (0+255),w,b
  3956  001224  0E3F               	movlw	63
  3957  001226  5993               	subwfb	(powf@iy+3)& (0+255),w,b
  3958  001228  A0D8               	btfss	status,0,c
  3959  00122A  EF19  F009         	goto	u5771
  3960  00122E  EF1B  F009         	goto	u5770
  3961  001232                     u5771:
  3962  001232  EFC1  F009         	goto	l1042
  3963  001236                     u5770:
  3964  001236                     
  3965                           ; BSR set to: 1
  3966  001236  0E17               	movlw	23
  3967  001238  0100               	movlb	0	; () banked
  3968  00123A  6FC3               	movwf	??_powf& (0+255),b
  3969  00123C  C190  F0C4         	movff	powf@iy,??_powf+1
  3970  001240  C191  F0C5         	movff	powf@iy+1,??_powf+2
  3971  001244  C192  F0C6         	movff	powf@iy+2,??_powf+3
  3972  001248  C193  F0C7         	movff	powf@iy+3,??_powf+4
  3973  00124C                     u5785:
  3974  00124C  67C3               	tstfsz	??_powf& (0+255),b
  3975  00124E  EF2B  F009         	goto	u5786
  3976  001252  EF33  F009         	goto	u5787
  3977  001256                     u5786:
  3978  001256  35C7               	rlcf	(??_powf+4)& (0+255),w,b
  3979  001258  33C7               	rrcf	(??_powf+4)& (0+255),f,b
  3980  00125A  33C6               	rrcf	(??_powf+3)& (0+255),f,b
  3981  00125C  33C5               	rrcf	(??_powf+2)& (0+255),f,b
  3982  00125E  33C4               	rrcf	(??_powf+1)& (0+255),f,b
  3983  001260  2FC3               	decfsz	??_powf& (0+255),f,b
  3984  001262  EF26  F009         	goto	u5785
  3985  001266                     u5787:
  3986  001266  0E81               	movlw	129
  3987  001268  0100               	movlb	0	; () banked
  3988  00126A  25C4               	addwf	(??_powf+1)& (0+255),w,b
  3989  00126C  0101               	movlb	1	; () banked
  3990  00126E  6FA0               	movwf	powf@k& (0+255),b
  3991  001270  0EFF               	movlw	255
  3992  001272  0100               	movlb	0	; () banked
  3993  001274  21C5               	addwfc	(??_powf+2)& (0+255),w,b
  3994  001276  0101               	movlb	1	; () banked
  3995  001278  6FA1               	movwf	(powf@k+1)& (0+255),b
  3996  00127A  0EFF               	movlw	255
  3997  00127C  0100               	movlb	0	; () banked
  3998  00127E  21C6               	addwfc	(??_powf+3)& (0+255),w,b
  3999  001280  0101               	movlb	1	; () banked
  4000  001282  6FA2               	movwf	(powf@k+2)& (0+255),b
  4001  001284  0EFF               	movlw	255
  4002  001286  0100               	movlb	0	; () banked
  4003  001288  21C7               	addwfc	(??_powf+4)& (0+255),w,b
  4004  00128A  0101               	movlb	1	; () banked
  4005  00128C  6FA3               	movwf	(powf@k+3)& (0+255),b
  4006  00128E  51A0               	movf	powf@k& (0+255),w,b
  4007  001290  0817               	sublw	23
  4008  001292  0100               	movlb	0	; () banked
  4009  001294  6FC3               	movwf	??_powf& (0+255),b
  4010  001296  C190  F0C4         	movff	powf@iy,??_powf+1
  4011  00129A  C191  F0C5         	movff	powf@iy+1,??_powf+2
  4012  00129E  C192  F0C6         	movff	powf@iy+2,??_powf+3
  4013  0012A2  C193  F0C7         	movff	powf@iy+3,??_powf+4
  4014  0012A6                     u5795:
  4015  0012A6  67C3               	tstfsz	??_powf& (0+255),b
  4016  0012A8  EF58  F009         	goto	u5796
  4017  0012AC  EF60  F009         	goto	u5797
  4018  0012B0                     u5796:
  4019  0012B0  35C7               	rlcf	(??_powf+4)& (0+255),w,b
  4020  0012B2  33C7               	rrcf	(??_powf+4)& (0+255),f,b
  4021  0012B4  33C6               	rrcf	(??_powf+3)& (0+255),f,b
  4022  0012B6  33C5               	rrcf	(??_powf+2)& (0+255),f,b
  4023  0012B8  33C4               	rrcf	(??_powf+1)& (0+255),f,b
  4024  0012BA  2FC3               	decfsz	??_powf& (0+255),f,b
  4025  0012BC  EF53  F009         	goto	u5795
  4026  0012C0                     u5797:
  4027  0012C0  C0C4  F1AC         	movff	??_powf+1,powf@j
  4028  0012C4  C0C5  F1AD         	movff	??_powf+2,powf@j+1
  4029  0012C8  C0C6  F1AE         	movff	??_powf+3,powf@j+2
  4030  0012CC  C0C7  F1AF         	movff	??_powf+4,powf@j+3
  4031  0012D0  0101               	movlb	1	; () banked
  4032  0012D2  51A0               	movf	powf@k& (0+255),w,b
  4033  0012D4  0817               	sublw	23
  4034  0012D6  0100               	movlb	0	; () banked
  4035  0012D8  6FC3               	movwf	??_powf& (0+255),b
  4036  0012DA  C1AC  F0C4         	movff	powf@j,??_powf+1
  4037  0012DE  C1AD  F0C5         	movff	powf@j+1,??_powf+2
  4038  0012E2  C1AE  F0C6         	movff	powf@j+2,??_powf+3
  4039  0012E6  C1AF  F0C7         	movff	powf@j+3,??_powf+4
  4040  0012EA  2BC3               	incf	??_powf& (0+255),f,b
  4041  0012EC  EF7D  F009         	goto	u5800
  4042  0012F0                     u5805:
  4043  0012F0  90D8               	bcf	status,0,c
  4044  0012F2  37C4               	rlcf	(??_powf+1)& (0+255),f,b
  4045  0012F4  37C5               	rlcf	(??_powf+2)& (0+255),f,b
  4046  0012F6  37C6               	rlcf	(??_powf+3)& (0+255),f,b
  4047  0012F8  37C7               	rlcf	(??_powf+4)& (0+255),f,b
  4048  0012FA                     u5800:
  4049  0012FA  2FC3               	decfsz	??_powf& (0+255),f,b
  4050  0012FC  EF78  F009         	goto	u5805
  4051  001300  0101               	movlb	1	; () banked
  4052  001302  5190               	movf	powf@iy& (0+255),w,b
  4053  001304  0100               	movlb	0	; () banked
  4054  001306  19C4               	xorwf	(??_powf+1)& (0+255),w,b
  4055  001308  E113               	bnz	u5811
  4056  00130A  0101               	movlb	1	; () banked
  4057  00130C  5191               	movf	(powf@iy+1)& (0+255),w,b
  4058  00130E  0100               	movlb	0	; () banked
  4059  001310  19C5               	xorwf	(??_powf+2)& (0+255),w,b
  4060  001312  E10E               	bnz	u5811
  4061  001314  0101               	movlb	1	; () banked
  4062  001316  5192               	movf	(powf@iy+2)& (0+255),w,b
  4063  001318  0100               	movlb	0	; () banked
  4064  00131A  19C6               	xorwf	(??_powf+3)& (0+255),w,b
  4065  00131C  E109               	bnz	u5811
  4066  00131E  0101               	movlb	1	; () banked
  4067  001320  5193               	movf	(powf@iy+3)& (0+255),w,b
  4068  001322  0100               	movlb	0	; () banked
  4069  001324  19C7               	xorwf	(??_powf+4)& (0+255),w,b
  4070  001326  A4D8               	btfss	status,2,c
  4071  001328  EF98  F009         	goto	u5811
  4072  00132C  EF9A  F009         	goto	u5810
  4073  001330                     u5811:
  4074  001330  EFC1  F009         	goto	l1042
  4075  001334                     u5810:
  4076  001334                     
  4077                           ; BSR set to: 0
  4078  001334  0E01               	movlw	1
  4079  001336  0101               	movlb	1	; () banked
  4080  001338  15AC               	andwf	powf@j& (0+255),w,b
  4081  00133A  0100               	movlb	0	; () banked
  4082  00133C  6FC3               	movwf	??_powf& (0+255),b
  4083  00133E  0E00               	movlw	0
  4084  001340  0101               	movlb	1	; () banked
  4085  001342  15AD               	andwf	(powf@j+1)& (0+255),w,b
  4086  001344  0100               	movlb	0	; () banked
  4087  001346  6FC4               	movwf	(??_powf+1)& (0+255),b
  4088  001348  0E00               	movlw	0
  4089  00134A  0101               	movlb	1	; () banked
  4090  00134C  15AE               	andwf	(powf@j+2)& (0+255),w,b
  4091  00134E  0100               	movlb	0	; () banked
  4092  001350  6FC5               	movwf	(??_powf+2)& (0+255),b
  4093  001352  0E00               	movlw	0
  4094  001354  0101               	movlb	1	; () banked
  4095  001356  15AF               	andwf	(powf@j+3)& (0+255),w,b
  4096  001358  0100               	movlb	0	; () banked
  4097  00135A  6FC6               	movwf	(??_powf+3)& (0+255),b
  4098  00135C  51C3               	movf	??_powf& (0+255),w,b
  4099  00135E  0802               	sublw	2
  4100  001360  0101               	movlb	1	; () banked
  4101  001362  6F50               	movwf	powf@yisint& (0+255),b
  4102  001364  0E00               	movlw	0
  4103  001366  0100               	movlb	0	; () banked
  4104  001368  55C4               	subfwb	(??_powf+1)& (0+255),w,b
  4105  00136A  0101               	movlb	1	; () banked
  4106  00136C  6F51               	movwf	(powf@yisint+1)& (0+255),b
  4107  00136E  0E00               	movlw	0
  4108  001370  0100               	movlb	0	; () banked
  4109  001372  55C5               	subfwb	(??_powf+2)& (0+255),w,b
  4110  001374  0101               	movlb	1	; () banked
  4111  001376  6F52               	movwf	(powf@yisint+2)& (0+255),b
  4112  001378  0E00               	movlw	0
  4113  00137A  0100               	movlb	0	; () banked
  4114  00137C  55C6               	subfwb	(??_powf+3)& (0+255),w,b
  4115  00137E  0101               	movlb	1	; () banked
  4116  001380  6F53               	movwf	(powf@yisint+3)& (0+255),b
  4117  001382                     l1042:
  4118  001382  0E80               	movlw	128
  4119  001384  0101               	movlb	1	; () banked
  4120  001386  1992               	xorwf	(powf@iy+2)& (0+255),w,b
  4121  001388  E109               	bnz	u5821
  4122  00138A  0E7F               	movlw	127
  4123  00138C  1993               	xorwf	(powf@iy+3)& (0+255),w,b
  4124  00138E  1190               	iorwf	powf@iy& (0+255),w,b
  4125  001390  1191               	iorwf	(powf@iy+1)& (0+255),w,b
  4126  001392  A4D8               	btfss	status,2,c
  4127  001394  EFCE  F009         	goto	u5821
  4128  001398  EFD0  F009         	goto	u5820
  4129  00139C                     u5821:
  4130  00139C  EF3C  F00A         	goto	l4780
  4131  0013A0                     u5820:
  4132  0013A0                     
  4133                           ; BSR set to: 1
  4134  0013A0  0E80               	movlw	128
  4135  0013A2  19AA               	xorwf	(powf@ix+2)& (0+255),w,b
  4136  0013A4  E109               	bnz	u5831
  4137  0013A6  0E3F               	movlw	63
  4138  0013A8  19AB               	xorwf	(powf@ix+3)& (0+255),w,b
  4139  0013AA  11A8               	iorwf	powf@ix& (0+255),w,b
  4140  0013AC  11A9               	iorwf	(powf@ix+1)& (0+255),w,b
  4141  0013AE  A4D8               	btfss	status,2,c
  4142  0013B0  EFDC  F009         	goto	u5831
  4143  0013B4  EFDE  F009         	goto	u5830
  4144  0013B8                     u5831:
  4145  0013B8  EFE9  F009         	goto	l4764
  4146  0013BC                     u5830:
  4147  0013BC                     
  4148                           ; BSR set to: 1
  4149  0013BC  0E00               	movlw	0
  4150  0013BE  0100               	movlb	0	; () banked
  4151  0013C0  6FBB               	movwf	?_powf& (0+255),b
  4152  0013C2  0E00               	movlw	0
  4153  0013C4  6FBC               	movwf	(?_powf+1)& (0+255),b
  4154  0013C6  0E80               	movlw	128
  4155  0013C8  6FBD               	movwf	(?_powf+2)& (0+255),b
  4156  0013CA  0E3F               	movlw	63
  4157  0013CC  6FBE               	movwf	(?_powf+3)& (0+255),b
  4158  0013CE  EF6D  F01D         	goto	l1037
  4159  0013D2                     l4764:
  4160                           
  4161                           ; BSR set to: 1
  4162  0013D2  BFAB               	btfsc	(powf@ix+3)& (0+255),7,b
  4163  0013D4  EFF8  F009         	goto	u5841
  4164  0013D8  05A8               	decf	powf@ix& (0+255),w,b
  4165  0013DA  0E00               	movlw	0
  4166  0013DC  59A9               	subwfb	(powf@ix+1)& (0+255),w,b
  4167  0013DE  0E80               	movlw	128
  4168  0013E0  59AA               	subwfb	(powf@ix+2)& (0+255),w,b
  4169  0013E2  0E3F               	movlw	63
  4170  0013E4  59AB               	subwfb	(powf@ix+3)& (0+255),w,b
  4171  0013E6  A0D8               	btfss	status,0,c
  4172  0013E8  EFF8  F009         	goto	u5841
  4173  0013EC  EFFA  F009         	goto	u5840
  4174  0013F0                     u5841:
  4175  0013F0  EF16  F00A         	goto	l4772
  4176  0013F4                     u5840:
  4177  0013F4                     
  4178                           ; BSR set to: 1
  4179  0013F4  BF7F               	btfsc	(powf@hy+3)& (0+255),7,b
  4180  0013F6  EF01  F00A         	goto	u5850
  4181  0013FA  EFFF  F009         	goto	u5851
  4182  0013FE                     u5851:
  4183  0013FE  EF0C  F00A         	goto	l1052
  4184  001402                     u5850:
  4185  001402                     
  4186                           ; BSR set to: 1
  4187  001402  0E00               	movlw	0
  4188  001404  0100               	movlb	0	; () banked
  4189  001406  6FBB               	movwf	?_powf& (0+255),b
  4190  001408  0E00               	movlw	0
  4191  00140A  6FBC               	movwf	(?_powf+1)& (0+255),b
  4192  00140C  0E00               	movlw	0
  4193  00140E  6FBD               	movwf	(?_powf+2)& (0+255),b
  4194  001410  0E00               	movlw	0
  4195  001412  6FBE               	movwf	(?_powf+3)& (0+255),b
  4196  001414  EF6D  F01D         	goto	l1037
  4197  001418                     l1052:
  4198                           
  4199                           ; BSR set to: 1
  4200  001418  C0BF  F0BB         	movff	powf@y,?_powf
  4201  00141C  C0C0  F0BC         	movff	powf@y+1,?_powf+1
  4202  001420  C0C1  F0BD         	movff	powf@y+2,?_powf+2
  4203  001424  C0C2  F0BE         	movff	powf@y+3,?_powf+3
  4204  001428  EF6D  F01D         	goto	l1037
  4205  00142C                     l4772:
  4206                           
  4207                           ; BSR set to: 1
  4208  00142C  BF7F               	btfsc	(powf@hy+3)& (0+255),7,b
  4209  00142E  EF1D  F00A         	goto	u5860
  4210  001432  EF1B  F00A         	goto	u5861
  4211  001436                     u5861:
  4212  001436  EF31  F00A         	goto	l4776
  4213  00143A                     u5860:
  4214  00143A                     
  4215                           ; BSR set to: 1
  4216  00143A  C0BF  F015         	movff	powf@y,___flneg@f1
  4217  00143E  C0C0  F016         	movff	powf@y+1,___flneg@f1+1
  4218  001442  C0C1  F017         	movff	powf@y+2,___flneg@f1+2
  4219  001446  C0C2  F018         	movff	powf@y+3,___flneg@f1+3
  4220  00144A  EC63  F031         	call	___flneg	;wreg free
  4221  00144E  C015  F0BB         	movff	?___flneg,?_powf
  4222  001452  C016  F0BC         	movff	?___flneg+1,?_powf+1
  4223  001456  C017  F0BD         	movff	?___flneg+2,?_powf+2
  4224  00145A  C018  F0BE         	movff	?___flneg+3,?_powf+3
  4225  00145E  EF6D  F01D         	goto	l1037
  4226  001462                     l4776:
  4227                           
  4228                           ; BSR set to: 1
  4229  001462  0E00               	movlw	0
  4230  001464  0100               	movlb	0	; () banked
  4231  001466  6FBB               	movwf	?_powf& (0+255),b
  4232  001468  0E00               	movlw	0
  4233  00146A  6FBC               	movwf	(?_powf+1)& (0+255),b
  4234  00146C  0E00               	movlw	0
  4235  00146E  6FBD               	movwf	(?_powf+2)& (0+255),b
  4236  001470  0E00               	movlw	0
  4237  001472  6FBE               	movwf	(?_powf+3)& (0+255),b
  4238  001474  EF6D  F01D         	goto	l1037
  4239  001478                     l4780:
  4240                           
  4241                           ; BSR set to: 1
  4242  001478  0E80               	movlw	128
  4243  00147A  1992               	xorwf	(powf@iy+2)& (0+255),w,b
  4244  00147C  E109               	bnz	u5871
  4245  00147E  0E3F               	movlw	63
  4246  001480  1993               	xorwf	(powf@iy+3)& (0+255),w,b
  4247  001482  1190               	iorwf	powf@iy& (0+255),w,b
  4248  001484  1191               	iorwf	(powf@iy+1)& (0+255),w,b
  4249  001486  A4D8               	btfss	status,2,c
  4250  001488  EF48  F00A         	goto	u5871
  4251  00148C  EF4A  F00A         	goto	u5870
  4252  001490                     u5871:
  4253  001490  EF78  F00A         	goto	l4786
  4254  001494                     u5870:
  4255  001494                     
  4256                           ; BSR set to: 1
  4257  001494  BF7F               	btfsc	(powf@hy+3)& (0+255),7,b
  4258  001496  EF51  F00A         	goto	u5880
  4259  00149A  EF4F  F00A         	goto	u5881
  4260  00149E                     u5881:
  4261  00149E  EF6E  F00A         	goto	l1062
  4262  0014A2                     u5880:
  4263  0014A2                     
  4264                           ; BSR set to: 1
  4265  0014A2  0E00               	movlw	0
  4266  0014A4  0100               	movlb	0	; () banked
  4267  0014A6  6F7E               	movwf	___fldiv@b& (0+255),b
  4268  0014A8  0E00               	movlw	0
  4269  0014AA  6F7F               	movwf	(___fldiv@b+1)& (0+255),b
  4270  0014AC  0E80               	movlw	128
  4271  0014AE  6F80               	movwf	(___fldiv@b+2)& (0+255),b
  4272  0014B0  0E3F               	movlw	63
  4273  0014B2  6F81               	movwf	(___fldiv@b+3)& (0+255),b
  4274  0014B4  C0BB  F082         	movff	powf@x,___fldiv@a
  4275  0014B8  C0BC  F083         	movff	powf@x+1,___fldiv@a+1
  4276  0014BC  C0BD  F084         	movff	powf@x+2,___fldiv@a+2
  4277  0014C0  C0BE  F085         	movff	powf@x+3,___fldiv@a+3
  4278  0014C4  EC35  F027         	call	___fldiv	;wreg free
  4279  0014C8  C07E  F0BB         	movff	?___fldiv,?_powf
  4280  0014CC  C07F  F0BC         	movff	?___fldiv+1,?_powf+1
  4281  0014D0  C080  F0BD         	movff	?___fldiv+2,?_powf+2
  4282  0014D4  C081  F0BE         	movff	?___fldiv+3,?_powf+3
  4283  0014D8  EF6D  F01D         	goto	l1037
  4284  0014DC                     l1062:
  4285                           
  4286                           ; BSR set to: 1
  4287  0014DC  C0BB  F0BB         	movff	powf@x,?_powf
  4288  0014E0  C0BC  F0BC         	movff	powf@x+1,?_powf+1
  4289  0014E4  C0BD  F0BD         	movff	powf@x+2,?_powf+2
  4290  0014E8  C0BE  F0BE         	movff	powf@x+3,?_powf+3
  4291  0014EC  EF6D  F01D         	goto	l1037
  4292  0014F0                     l4786:
  4293                           
  4294                           ; BSR set to: 1
  4295  0014F0  0E40               	movlw	64
  4296  0014F2  197F               	xorwf	(powf@hy+3)& (0+255),w,b
  4297  0014F4  117C               	iorwf	powf@hy& (0+255),w,b
  4298  0014F6  117D               	iorwf	(powf@hy+1)& (0+255),w,b
  4299  0014F8  117E               	iorwf	(powf@hy+2)& (0+255),w,b
  4300  0014FA  A4D8               	btfss	status,2,c
  4301  0014FC  EF82  F00A         	goto	u5891
  4302  001500  EF84  F00A         	goto	u5890
  4303  001504                     u5891:
  4304  001504  EFA0  F00A         	goto	l4792
  4305  001508                     u5890:
  4306  001508                     
  4307                           ; BSR set to: 1
  4308  001508  C0BB  F015         	movff	powf@x,___flmul@b
  4309  00150C  C0BC  F016         	movff	powf@x+1,___flmul@b+1
  4310  001510  C0BD  F017         	movff	powf@x+2,___flmul@b+2
  4311  001514  C0BE  F018         	movff	powf@x+3,___flmul@b+3
  4312  001518  C0BB  F019         	movff	powf@x,___flmul@a
  4313  00151C  C0BC  F01A         	movff	powf@x+1,___flmul@a+1
  4314  001520  C0BD  F01B         	movff	powf@x+2,___flmul@a+2
  4315  001524  C0BE  F01C         	movff	powf@x+3,___flmul@a+3
  4316  001528  EC20  F025         	call	___flmul	;wreg free
  4317  00152C  C015  F0BB         	movff	?___flmul,?_powf
  4318  001530  C016  F0BC         	movff	?___flmul+1,?_powf+1
  4319  001534  C017  F0BD         	movff	?___flmul+2,?_powf+2
  4320  001538  C018  F0BE         	movff	?___flmul+3,?_powf+3
  4321  00153C  EF6D  F01D         	goto	l1037
  4322  001540                     l4792:
  4323                           
  4324                           ; BSR set to: 1
  4325  001540  0E3F               	movlw	63
  4326  001542  197F               	xorwf	(powf@hy+3)& (0+255),w,b
  4327  001544  117C               	iorwf	powf@hy& (0+255),w,b
  4328  001546  117D               	iorwf	(powf@hy+1)& (0+255),w,b
  4329  001548  117E               	iorwf	(powf@hy+2)& (0+255),w,b
  4330  00154A  A4D8               	btfss	status,2,c
  4331  00154C  EFAA  F00A         	goto	u5901
  4332  001550  EFAC  F00A         	goto	u5900
  4333  001554                     u5901:
  4334  001554  EFC7  F00A         	goto	l4800
  4335  001558                     u5900:
  4336  001558                     
  4337                           ; BSR set to: 1
  4338  001558  BF63               	btfsc	(powf@hx+3)& (0+255),7,b
  4339  00155A  EFB1  F00A         	goto	u5911
  4340  00155E  EFB3  F00A         	goto	u5910
  4341  001562                     u5911:
  4342  001562  EFC7  F00A         	goto	l4800
  4343  001566                     u5910:
  4344  001566                     
  4345                           ; BSR set to: 1
  4346  001566  C0BB  F08A         	movff	powf@x,sqrtf@x
  4347  00156A  C0BC  F08B         	movff	powf@x+1,sqrtf@x+1
  4348  00156E  C0BD  F08C         	movff	powf@x+2,sqrtf@x+2
  4349  001572  C0BE  F08D         	movff	powf@x+3,sqrtf@x+3
  4350  001576  ECC2  F022         	call	_sqrtf	;wreg free
  4351  00157A  C08A  F0BB         	movff	?_sqrtf,?_powf
  4352  00157E  C08B  F0BC         	movff	?_sqrtf+1,?_powf+1
  4353  001582  C08C  F0BD         	movff	?_sqrtf+2,?_powf+2
  4354  001586  C08D  F0BE         	movff	?_sqrtf+3,?_powf+3
  4355  00158A  EF6D  F01D         	goto	l1037
  4356  00158E                     l4800:
  4357                           
  4358                           ; BSR set to: 1
  4359  00158E  C0BB  F015         	movff	powf@x,fabsf@x
  4360  001592  C0BC  F016         	movff	powf@x+1,fabsf@x+1
  4361  001596  C0BD  F017         	movff	powf@x+2,fabsf@x+2
  4362  00159A  C0BE  F018         	movff	powf@x+3,fabsf@x+3
  4363  00159E  ECB5  F031         	call	_fabsf	;wreg free
  4364  0015A2  C015  F170         	movff	?_fabsf,powf@ax
  4365  0015A6  C016  F171         	movff	?_fabsf+1,powf@ax+1
  4366  0015AA  C017  F172         	movff	?_fabsf+2,powf@ax+2
  4367  0015AE  C018  F173         	movff	?_fabsf+3,powf@ax+3
  4368  0015B2  0E80               	movlw	128
  4369  0015B4  0101               	movlb	1	; () banked
  4370  0015B6  19AA               	xorwf	(powf@ix+2)& (0+255),w,b
  4371  0015B8  E10B               	bnz	u5920
  4372  0015BA  0E7F               	movlw	127
  4373  0015BC  19AB               	xorwf	(powf@ix+3)& (0+255),w,b
  4374  0015BE  11A8               	iorwf	powf@ix& (0+255),w,b
  4375  0015C0  11A9               	iorwf	(powf@ix+1)& (0+255),w,b
  4376  0015C2  B4D8               	btfsc	status,2,c
  4377  0015C4  EFE6  F00A         	goto	u5921
  4378  0015C8  EFE8  F00A         	goto	u5920
  4379  0015CC                     u5921:
  4380  0015CC  EF01  F00B         	goto	l1070
  4381  0015D0                     u5920:
  4382  0015D0                     
  4383                           ; BSR set to: 1
  4384  0015D0  51A8               	movf	powf@ix& (0+255),w,b
  4385  0015D2  11A9               	iorwf	(powf@ix+1)& (0+255),w,b
  4386  0015D4  11AA               	iorwf	(powf@ix+2)& (0+255),w,b
  4387  0015D6  11AB               	iorwf	(powf@ix+3)& (0+255),w,b
  4388  0015D8  B4D8               	btfsc	status,2,c
  4389  0015DA  EFF1  F00A         	goto	u5931
  4390  0015DE  EFF3  F00A         	goto	u5930
  4391  0015E2                     u5931:
  4392  0015E2  EF01  F00B         	goto	l1070
  4393  0015E6                     u5930:
  4394  0015E6                     
  4395                           ; BSR set to: 1
  4396  0015E6  0E80               	movlw	128
  4397  0015E8  19AA               	xorwf	(powf@ix+2)& (0+255),w,b
  4398  0015EA  E109               	bnz	u5941
  4399  0015EC  0E3F               	movlw	63
  4400  0015EE  19AB               	xorwf	(powf@ix+3)& (0+255),w,b
  4401  0015F0  11A8               	iorwf	powf@ix& (0+255),w,b
  4402  0015F2  11A9               	iorwf	(powf@ix+1)& (0+255),w,b
  4403  0015F4  A4D8               	btfss	status,2,c
  4404  0015F6  EFFF  F00A         	goto	u5941
  4405  0015FA  EF01  F00B         	goto	u5940
  4406  0015FE                     u5941:
  4407  0015FE  EFCD  F00B         	goto	l4826
  4408  001602                     u5940:
  4409  001602                     l1070:
  4410                           
  4411                           ; BSR set to: 1
  4412  001602  C170  F1B4         	movff	powf@ax,powf@z
  4413  001606  C171  F1B5         	movff	powf@ax+1,powf@z+1
  4414  00160A  C172  F1B6         	movff	powf@ax+2,powf@z+2
  4415  00160E  C173  F1B7         	movff	powf@ax+3,powf@z+3
  4416  001612                     
  4417                           ; BSR set to: 1
  4418  001612  BF7F               	btfsc	(powf@hy+3)& (0+255),7,b
  4419  001614  EF10  F00B         	goto	u5950
  4420  001618  EF0E  F00B         	goto	u5951
  4421  00161C                     u5951:
  4422  00161C  EF2B  F00B         	goto	l4812
  4423  001620                     u5950:
  4424  001620                     
  4425                           ; BSR set to: 1
  4426  001620  0E00               	movlw	0
  4427  001622  0100               	movlb	0	; () banked
  4428  001624  6F7E               	movwf	___fldiv@b& (0+255),b
  4429  001626  0E00               	movlw	0
  4430  001628  6F7F               	movwf	(___fldiv@b+1)& (0+255),b
  4431  00162A  0E80               	movlw	128
  4432  00162C  6F80               	movwf	(___fldiv@b+2)& (0+255),b
  4433  00162E  0E3F               	movlw	63
  4434  001630  6F81               	movwf	(___fldiv@b+3)& (0+255),b
  4435  001632  C1B4  F082         	movff	powf@z,___fldiv@a
  4436  001636  C1B5  F083         	movff	powf@z+1,___fldiv@a+1
  4437  00163A  C1B6  F084         	movff	powf@z+2,___fldiv@a+2
  4438  00163E  C1B7  F085         	movff	powf@z+3,___fldiv@a+3
  4439  001642  EC35  F027         	call	___fldiv	;wreg free
  4440  001646  C07E  F1B4         	movff	?___fldiv,powf@z
  4441  00164A  C07F  F1B5         	movff	?___fldiv+1,powf@z+1
  4442  00164E  C080  F1B6         	movff	?___fldiv+2,powf@z+2
  4443  001652  C081  F1B7         	movff	?___fldiv+3,powf@z+3
  4444  001656                     l4812:
  4445  001656  0101               	movlb	1	; () banked
  4446  001658  BF63               	btfsc	(powf@hx+3)& (0+255),7,b
  4447  00165A  EF33  F00B         	goto	u5960
  4448  00165E  EF31  F00B         	goto	u5961
  4449  001662                     u5961:
  4450  001662  EFC3  F00B         	goto	l4822
  4451  001666                     u5960:
  4452  001666                     
  4453                           ; BSR set to: 1
  4454  001666  0E00               	movlw	0
  4455  001668  25A8               	addwf	powf@ix& (0+255),w,b
  4456  00166A  0100               	movlb	0	; () banked
  4457  00166C  6FC3               	movwf	??_powf& (0+255),b
  4458  00166E  0E00               	movlw	0
  4459  001670  0101               	movlb	1	; () banked
  4460  001672  21A9               	addwfc	(powf@ix+1)& (0+255),w,b
  4461  001674  0100               	movlb	0	; () banked
  4462  001676  6FC4               	movwf	(??_powf+1)& (0+255),b
  4463  001678  0E80               	movlw	128
  4464  00167A  0101               	movlb	1	; () banked
  4465  00167C  21AA               	addwfc	(powf@ix+2)& (0+255),w,b
  4466  00167E  0100               	movlb	0	; () banked
  4467  001680  6FC5               	movwf	(??_powf+2)& (0+255),b
  4468  001682  0EC0               	movlw	192
  4469  001684  0101               	movlb	1	; () banked
  4470  001686  21AB               	addwfc	(powf@ix+3)& (0+255),w,b
  4471  001688  0100               	movlb	0	; () banked
  4472  00168A  6FC6               	movwf	(??_powf+3)& (0+255),b
  4473  00168C  0101               	movlb	1	; () banked
  4474  00168E  5150               	movf	powf@yisint& (0+255),w,b
  4475  001690  0100               	movlb	0	; () banked
  4476  001692  11C3               	iorwf	??_powf& (0+255),w,b
  4477  001694  6FC7               	movwf	(??_powf+4)& (0+255),b
  4478  001696  0101               	movlb	1	; () banked
  4479  001698  5151               	movf	(powf@yisint+1)& (0+255),w,b
  4480  00169A  0100               	movlb	0	; () banked
  4481  00169C  11C4               	iorwf	(??_powf+1)& (0+255),w,b
  4482  00169E  6FC8               	movwf	(??_powf+5)& (0+255),b
  4483  0016A0  0101               	movlb	1	; () banked
  4484  0016A2  5152               	movf	(powf@yisint+2)& (0+255),w,b
  4485  0016A4  0100               	movlb	0	; () banked
  4486  0016A6  11C5               	iorwf	(??_powf+2)& (0+255),w,b
  4487  0016A8  6FC9               	movwf	(??_powf+6)& (0+255),b
  4488  0016AA  0101               	movlb	1	; () banked
  4489  0016AC  5153               	movf	(powf@yisint+3)& (0+255),w,b
  4490  0016AE  0100               	movlb	0	; () banked
  4491  0016B0  11C6               	iorwf	(??_powf+3)& (0+255),w,b
  4492  0016B2  6FCA               	movwf	(??_powf+7)& (0+255),b
  4493  0016B4  51C7               	movf	(??_powf+4)& (0+255),w,b
  4494  0016B6  11C8               	iorwf	(??_powf+5)& (0+255),w,b
  4495  0016B8  11C9               	iorwf	(??_powf+6)& (0+255),w,b
  4496  0016BA  11CA               	iorwf	(??_powf+7)& (0+255),w,b
  4497  0016BC  A4D8               	btfss	status,2,c
  4498  0016BE  EF63  F00B         	goto	u5971
  4499  0016C2  EF65  F00B         	goto	u5970
  4500  0016C6                     u5971:
  4501  0016C6  EFA5  F00B         	goto	l4818
  4502  0016CA                     u5970:
  4503  0016CA                     
  4504                           ; BSR set to: 0
  4505  0016CA  C1B4  F07A         	movff	powf@z,___flsub@a
  4506  0016CE  C1B5  F07B         	movff	powf@z+1,___flsub@a+1
  4507  0016D2  C1B6  F07C         	movff	powf@z+2,___flsub@a+2
  4508  0016D6  C1B7  F07D         	movff	powf@z+3,___flsub@a+3
  4509  0016DA  C1B4  F076         	movff	powf@z,___flsub@b
  4510  0016DE  C1B5  F077         	movff	powf@z+1,___flsub@b+1
  4511  0016E2  C1B6  F078         	movff	powf@z+2,___flsub@b+2
  4512  0016E6  C1B7  F079         	movff	powf@z+3,___flsub@b+3
  4513  0016EA  EC3F  F031         	call	___flsub	;wreg free
  4514  0016EE  C076  F07E         	movff	?___flsub,___fldiv@b
  4515  0016F2  C077  F07F         	movff	?___flsub+1,___fldiv@b+1
  4516  0016F6  C078  F080         	movff	?___flsub+2,___fldiv@b+2
  4517  0016FA  C079  F081         	movff	?___flsub+3,___fldiv@b+3
  4518  0016FE  C1B4  F07A         	movff	powf@z,___flsub@a
  4519  001702  C1B5  F07B         	movff	powf@z+1,___flsub@a+1
  4520  001706  C1B6  F07C         	movff	powf@z+2,___flsub@a+2
  4521  00170A  C1B7  F07D         	movff	powf@z+3,___flsub@a+3
  4522  00170E  C1B4  F076         	movff	powf@z,___flsub@b
  4523  001712  C1B5  F077         	movff	powf@z+1,___flsub@b+1
  4524  001716  C1B6  F078         	movff	powf@z+2,___flsub@b+2
  4525  00171A  C1B7  F079         	movff	powf@z+3,___flsub@b+3
  4526  00171E  EC3F  F031         	call	___flsub	;wreg free
  4527  001722  C076  F082         	movff	?___flsub,___fldiv@a
  4528  001726  C077  F083         	movff	?___flsub+1,___fldiv@a+1
  4529  00172A  C078  F084         	movff	?___flsub+2,___fldiv@a+2
  4530  00172E  C079  F085         	movff	?___flsub+3,___fldiv@a+3
  4531  001732  EC35  F027         	call	___fldiv	;wreg free
  4532  001736  C07E  F1B4         	movff	?___fldiv,powf@z
  4533  00173A  C07F  F1B5         	movff	?___fldiv+1,powf@z+1
  4534  00173E  C080  F1B6         	movff	?___fldiv+2,powf@z+2
  4535  001742  C081  F1B7         	movff	?___fldiv+3,powf@z+3
  4536  001746  EFC3  F00B         	goto	l4822
  4537  00174A                     l4818:
  4538                           
  4539                           ; BSR set to: 0
  4540  00174A  0101               	movlb	1	; () banked
  4541  00174C  0550               	decf	powf@yisint& (0+255),w,b
  4542  00174E  1151               	iorwf	(powf@yisint+1)& (0+255),w,b
  4543  001750  1152               	iorwf	(powf@yisint+2)& (0+255),w,b
  4544  001752  1153               	iorwf	(powf@yisint+3)& (0+255),w,b
  4545  001754  A4D8               	btfss	status,2,c
  4546  001756  EFAF  F00B         	goto	u5981
  4547  00175A  EFB1  F00B         	goto	u5980
  4548  00175E                     u5981:
  4549  00175E  EFC3  F00B         	goto	l4822
  4550  001762                     u5980:
  4551  001762                     
  4552                           ; BSR set to: 1
  4553  001762  C1B4  F015         	movff	powf@z,___flneg@f1
  4554  001766  C1B5  F016         	movff	powf@z+1,___flneg@f1+1
  4555  00176A  C1B6  F017         	movff	powf@z+2,___flneg@f1+2
  4556  00176E  C1B7  F018         	movff	powf@z+3,___flneg@f1+3
  4557  001772  EC63  F031         	call	___flneg	;wreg free
  4558  001776  C015  F1B4         	movff	?___flneg,powf@z
  4559  00177A  C016  F1B5         	movff	?___flneg+1,powf@z+1
  4560  00177E  C017  F1B6         	movff	?___flneg+2,powf@z+2
  4561  001782  C018  F1B7         	movff	?___flneg+3,powf@z+3
  4562  001786                     l4822:
  4563  001786  C1B4  F0BB         	movff	powf@z,?_powf
  4564  00178A  C1B5  F0BC         	movff	powf@z+1,?_powf+1
  4565  00178E  C1B6  F0BD         	movff	powf@z+2,?_powf+2
  4566  001792  C1B7  F0BE         	movff	powf@z+3,?_powf+3
  4567  001796  EF6D  F01D         	goto	l1037
  4568  00179A                     l4826:
  4569                           
  4570                           ; BSR set to: 1
  4571  00179A  0E00               	movlw	0
  4572  00179C  6F88               	movwf	powf@sn& (0+255),b
  4573  00179E  0E00               	movlw	0
  4574  0017A0  6F89               	movwf	(powf@sn+1)& (0+255),b
  4575  0017A2  0E80               	movlw	128
  4576  0017A4  6F8A               	movwf	(powf@sn+2)& (0+255),b
  4577  0017A6  0E3F               	movlw	63
  4578  0017A8  6F8B               	movwf	(powf@sn+3)& (0+255),b
  4579  0017AA                     
  4580                           ; BSR set to: 1
  4581  0017AA  BF63               	btfsc	(powf@hx+3)& (0+255),7,b
  4582  0017AC  EFDC  F00B         	goto	u5990
  4583  0017B0  EFDA  F00B         	goto	u5991
  4584  0017B4                     u5991:
  4585  0017B4  EF3A  F00C         	goto	l4840
  4586  0017B8                     u5990:
  4587  0017B8                     
  4588                           ; BSR set to: 1
  4589  0017B8  5150               	movf	powf@yisint& (0+255),w,b
  4590  0017BA  1151               	iorwf	(powf@yisint+1)& (0+255),w,b
  4591  0017BC  1152               	iorwf	(powf@yisint+2)& (0+255),w,b
  4592  0017BE  1153               	iorwf	(powf@yisint+3)& (0+255),w,b
  4593  0017C0  A4D8               	btfss	status,2,c
  4594  0017C2  EFE5  F00B         	goto	u6001
  4595  0017C6  EFE7  F00B         	goto	u6000
  4596  0017CA                     u6001:
  4597  0017CA  EF27  F00C         	goto	l4836
  4598  0017CE                     u6000:
  4599  0017CE                     
  4600                           ; BSR set to: 1
  4601  0017CE  C0BB  F07A         	movff	powf@x,___flsub@a
  4602  0017D2  C0BC  F07B         	movff	powf@x+1,___flsub@a+1
  4603  0017D6  C0BD  F07C         	movff	powf@x+2,___flsub@a+2
  4604  0017DA  C0BE  F07D         	movff	powf@x+3,___flsub@a+3
  4605  0017DE  C0BB  F076         	movff	powf@x,___flsub@b
  4606  0017E2  C0BC  F077         	movff	powf@x+1,___flsub@b+1
  4607  0017E6  C0BD  F078         	movff	powf@x+2,___flsub@b+2
  4608  0017EA  C0BE  F079         	movff	powf@x+3,___flsub@b+3
  4609  0017EE  EC3F  F031         	call	___flsub	;wreg free
  4610  0017F2  C076  F07E         	movff	?___flsub,___fldiv@b
  4611  0017F6  C077  F07F         	movff	?___flsub+1,___fldiv@b+1
  4612  0017FA  C078  F080         	movff	?___flsub+2,___fldiv@b+2
  4613  0017FE  C079  F081         	movff	?___flsub+3,___fldiv@b+3
  4614  001802  C0BB  F07A         	movff	powf@x,___flsub@a
  4615  001806  C0BC  F07B         	movff	powf@x+1,___flsub@a+1
  4616  00180A  C0BD  F07C         	movff	powf@x+2,___flsub@a+2
  4617  00180E  C0BE  F07D         	movff	powf@x+3,___flsub@a+3
  4618  001812  C0BB  F076         	movff	powf@x,___flsub@b
  4619  001816  C0BC  F077         	movff	powf@x+1,___flsub@b+1
  4620  00181A  C0BD  F078         	movff	powf@x+2,___flsub@b+2
  4621  00181E  C0BE  F079         	movff	powf@x+3,___flsub@b+3
  4622  001822  EC3F  F031         	call	___flsub	;wreg free
  4623  001826  C076  F082         	movff	?___flsub,___fldiv@a
  4624  00182A  C077  F083         	movff	?___flsub+1,___fldiv@a+1
  4625  00182E  C078  F084         	movff	?___flsub+2,___fldiv@a+2
  4626  001832  C079  F085         	movff	?___flsub+3,___fldiv@a+3
  4627  001836  EC35  F027         	call	___fldiv	;wreg free
  4628  00183A  C07E  F0BB         	movff	?___fldiv,?_powf
  4629  00183E  C07F  F0BC         	movff	?___fldiv+1,?_powf+1
  4630  001842  C080  F0BD         	movff	?___fldiv+2,?_powf+2
  4631  001846  C081  F0BE         	movff	?___fldiv+3,?_powf+3
  4632  00184A  EF6D  F01D         	goto	l1037
  4633  00184E                     l4836:
  4634                           
  4635                           ; BSR set to: 1
  4636  00184E  0550               	decf	powf@yisint& (0+255),w,b
  4637  001850  1151               	iorwf	(powf@yisint+1)& (0+255),w,b
  4638  001852  1152               	iorwf	(powf@yisint+2)& (0+255),w,b
  4639  001854  1153               	iorwf	(powf@yisint+3)& (0+255),w,b
  4640  001856  A4D8               	btfss	status,2,c
  4641  001858  EF30  F00C         	goto	u6011
  4642  00185C  EF32  F00C         	goto	u6010
  4643  001860                     u6011:
  4644  001860  EF3A  F00C         	goto	l4840
  4645  001864                     u6010:
  4646  001864                     
  4647                           ; BSR set to: 1
  4648  001864  0E00               	movlw	0
  4649  001866  6F88               	movwf	powf@sn& (0+255),b
  4650  001868  0E00               	movlw	0
  4651  00186A  6F89               	movwf	(powf@sn+1)& (0+255),b
  4652  00186C  0E80               	movlw	128
  4653  00186E  6F8A               	movwf	(powf@sn+2)& (0+255),b
  4654  001870  0EBF               	movlw	191
  4655  001872  6F8B               	movwf	(powf@sn+3)& (0+255),b
  4656  001874                     l4840:
  4657                           
  4658                           ; BSR set to: 1
  4659  001874  BF93               	btfsc	(powf@iy+3)& (0+255),7,b
  4660  001876  EF49  F00C         	goto	u6021
  4661  00187A  0590               	decf	powf@iy& (0+255),w,b
  4662  00187C  0E00               	movlw	0
  4663  00187E  5991               	subwfb	(powf@iy+1)& (0+255),w,b
  4664  001880  0E00               	movlw	0
  4665  001882  5992               	subwfb	(powf@iy+2)& (0+255),w,b
  4666  001884  0E4D               	movlw	77
  4667  001886  5993               	subwfb	(powf@iy+3)& (0+255),w,b
  4668  001888  A0D8               	btfss	status,0,c
  4669  00188A  EF49  F00C         	goto	u6021
  4670  00188E  EF4B  F00C         	goto	u6020
  4671  001892                     u6021:
  4672  001892  EFD3  F00E         	goto	l4888
  4673  001896                     u6020:
  4674  001896                     
  4675                           ; BSR set to: 1
  4676  001896  BFAB               	btfsc	(powf@ix+3)& (0+255),7,b
  4677  001898  EF5D  F00C         	goto	u6030
  4678  00189C  0EF8               	movlw	248
  4679  00189E  5DA8               	subwf	powf@ix& (0+255),w,b
  4680  0018A0  0EFF               	movlw	255
  4681  0018A2  59A9               	subwfb	(powf@ix+1)& (0+255),w,b
  4682  0018A4  0E7F               	movlw	127
  4683  0018A6  59AA               	subwfb	(powf@ix+2)& (0+255),w,b
  4684  0018A8  0E3F               	movlw	63
  4685  0018AA  59AB               	subwfb	(powf@ix+3)& (0+255),w,b
  4686  0018AC  B0D8               	btfsc	status,0,c
  4687  0018AE  EF5B  F00C         	goto	u6031
  4688  0018B2  EF5D  F00C         	goto	u6030
  4689  0018B6                     u6031:
  4690  0018B6  EFD0  F00C         	goto	l4852
  4691  0018BA                     u6030:
  4692  0018BA                     
  4693                           ; BSR set to: 1
  4694  0018BA  BF7F               	btfsc	(powf@hy+3)& (0+255),7,b
  4695  0018BC  EF62  F00C         	goto	u6041
  4696  0018C0  EF64  F00C         	goto	u6040
  4697  0018C4                     u6041:
  4698  0018C4  EF9A  F00C         	goto	l4848
  4699  0018C8                     u6040:
  4700  0018C8                     
  4701                           ; BSR set to: 1
  4702  0018C8  0E60               	movlw	96
  4703  0018CA  6E19               	movwf	___flmul@a^0,c
  4704  0018CC  0E42               	movlw	66
  4705  0018CE  6E1A               	movwf	(___flmul@a+1)^0,c
  4706  0018D0  0EA2               	movlw	162
  4707  0018D2  6E1B               	movwf	(___flmul@a+2)^0,c
  4708  0018D4  0E0D               	movlw	13
  4709  0018D6  6E1C               	movwf	(___flmul@a+3)^0,c
  4710  0018D8  C188  F015         	movff	powf@sn,___flmul@b
  4711  0018DC  C189  F016         	movff	powf@sn+1,___flmul@b+1
  4712  0018E0  C18A  F017         	movff	powf@sn+2,___flmul@b+2
  4713  0018E4  C18B  F018         	movff	powf@sn+3,___flmul@b+3
  4714  0018E8  EC20  F025         	call	___flmul	;wreg free
  4715  0018EC  C015  F1A4         	movff	?___flmul,_powf$1302
  4716  0018F0  C016  F1A5         	movff	?___flmul+1,_powf$1302+1
  4717  0018F4  C017  F1A6         	movff	?___flmul+2,_powf$1302+2
  4718  0018F8  C018  F1A7         	movff	?___flmul+3,_powf$1302+3
  4719  0018FC  C1A4  F015         	movff	_powf$1302,___flmul@b
  4720  001900  C1A5  F016         	movff	_powf$1302+1,___flmul@b+1
  4721  001904  C1A6  F017         	movff	_powf$1302+2,___flmul@b+2
  4722  001908  C1A7  F018         	movff	_powf$1302+3,___flmul@b+3
  4723  00190C  0E60               	movlw	96
  4724  00190E  6E19               	movwf	___flmul@a^0,c
  4725  001910  0E42               	movlw	66
  4726  001912  6E1A               	movwf	(___flmul@a+1)^0,c
  4727  001914  0EA2               	movlw	162
  4728  001916  6E1B               	movwf	(___flmul@a+2)^0,c
  4729  001918  0E0D               	movlw	13
  4730  00191A  6E1C               	movwf	(___flmul@a+3)^0,c
  4731  00191C  EC20  F025         	call	___flmul	;wreg free
  4732  001920  C015  F0BB         	movff	?___flmul,?_powf
  4733  001924  C016  F0BC         	movff	?___flmul+1,?_powf+1
  4734  001928  C017  F0BD         	movff	?___flmul+2,?_powf+2
  4735  00192C  C018  F0BE         	movff	?___flmul+3,?_powf+3
  4736  001930  EF6D  F01D         	goto	l1037
  4737  001934                     l4848:
  4738                           
  4739                           ; BSR set to: 1
  4740  001934  0ECA               	movlw	202
  4741  001936  6E19               	movwf	___flmul@a^0,c
  4742  001938  0EF2               	movlw	242
  4743  00193A  6E1A               	movwf	(___flmul@a+1)^0,c
  4744  00193C  0E49               	movlw	73
  4745  00193E  6E1B               	movwf	(___flmul@a+2)^0,c
  4746  001940  0E71               	movlw	113
  4747  001942  6E1C               	movwf	(___flmul@a+3)^0,c
  4748  001944  C188  F015         	movff	powf@sn,___flmul@b
  4749  001948  C189  F016         	movff	powf@sn+1,___flmul@b+1
  4750  00194C  C18A  F017         	movff	powf@sn+2,___flmul@b+2
  4751  001950  C18B  F018         	movff	powf@sn+3,___flmul@b+3
  4752  001954  EC20  F025         	call	___flmul	;wreg free
  4753  001958  C015  F1A4         	movff	?___flmul,_powf$1302
  4754  00195C  C016  F1A5         	movff	?___flmul+1,_powf$1302+1
  4755  001960  C017  F1A6         	movff	?___flmul+2,_powf$1302+2
  4756  001964  C018  F1A7         	movff	?___flmul+3,_powf$1302+3
  4757  001968  C1A4  F015         	movff	_powf$1302,___flmul@b
  4758  00196C  C1A5  F016         	movff	_powf$1302+1,___flmul@b+1
  4759  001970  C1A6  F017         	movff	_powf$1302+2,___flmul@b+2
  4760  001974  C1A7  F018         	movff	_powf$1302+3,___flmul@b+3
  4761  001978  0ECA               	movlw	202
  4762  00197A  6E19               	movwf	___flmul@a^0,c
  4763  00197C  0EF2               	movlw	242
  4764  00197E  6E1A               	movwf	(___flmul@a+1)^0,c
  4765  001980  0E49               	movlw	73
  4766  001982  6E1B               	movwf	(___flmul@a+2)^0,c
  4767  001984  0E71               	movlw	113
  4768  001986  6E1C               	movwf	(___flmul@a+3)^0,c
  4769  001988  EC20  F025         	call	___flmul	;wreg free
  4770  00198C  C015  F0BB         	movff	?___flmul,?_powf
  4771  001990  C016  F0BC         	movff	?___flmul+1,?_powf+1
  4772  001994  C017  F0BD         	movff	?___flmul+2,?_powf+2
  4773  001998  C018  F0BE         	movff	?___flmul+3,?_powf+3
  4774  00199C  EF6D  F01D         	goto	l1037
  4775  0019A0                     l4852:
  4776                           
  4777                           ; BSR set to: 1
  4778  0019A0  BFAB               	btfsc	(powf@ix+3)& (0+255),7,b
  4779  0019A2  EFE0  F00C         	goto	u6051
  4780  0019A6  0E08               	movlw	8
  4781  0019A8  5DA8               	subwf	powf@ix& (0+255),w,b
  4782  0019AA  0E00               	movlw	0
  4783  0019AC  59A9               	subwfb	(powf@ix+1)& (0+255),w,b
  4784  0019AE  0E80               	movlw	128
  4785  0019B0  59AA               	subwfb	(powf@ix+2)& (0+255),w,b
  4786  0019B2  0E3F               	movlw	63
  4787  0019B4  59AB               	subwfb	(powf@ix+3)& (0+255),w,b
  4788  0019B6  A0D8               	btfss	status,0,c
  4789  0019B8  EFE0  F00C         	goto	u6051
  4790  0019BC  EFE2  F00C         	goto	u6050
  4791  0019C0                     u6051:
  4792  0019C0  EF5D  F00D         	goto	l4862
  4793  0019C4                     u6050:
  4794  0019C4                     
  4795                           ; BSR set to: 1
  4796  0019C4  BF7F               	btfsc	(powf@hy+3)& (0+255),7,b
  4797  0019C6  EFF1  F00C         	goto	u6060
  4798  0019CA  517F               	movf	(powf@hy+3)& (0+255),w,b
  4799  0019CC  117E               	iorwf	(powf@hy+2)& (0+255),w,b
  4800  0019CE  117D               	iorwf	(powf@hy+1)& (0+255),w,b
  4801  0019D0  E106               	bnz	u6061
  4802  0019D2  057C               	decf	powf@hy& (0+255),w,b
  4803  0019D4  B0D8               	btfsc	status,0,c
  4804  0019D6  EFEF  F00C         	goto	u6061
  4805  0019DA  EFF1  F00C         	goto	u6060
  4806  0019DE                     u6061:
  4807  0019DE  EF27  F00D         	goto	l4858
  4808  0019E2                     u6060:
  4809  0019E2                     
  4810                           ; BSR set to: 1
  4811  0019E2  0E60               	movlw	96
  4812  0019E4  6E19               	movwf	___flmul@a^0,c
  4813  0019E6  0E42               	movlw	66
  4814  0019E8  6E1A               	movwf	(___flmul@a+1)^0,c
  4815  0019EA  0EA2               	movlw	162
  4816  0019EC  6E1B               	movwf	(___flmul@a+2)^0,c
  4817  0019EE  0E0D               	movlw	13
  4818  0019F0  6E1C               	movwf	(___flmul@a+3)^0,c
  4819  0019F2  C188  F015         	movff	powf@sn,___flmul@b
  4820  0019F6  C189  F016         	movff	powf@sn+1,___flmul@b+1
  4821  0019FA  C18A  F017         	movff	powf@sn+2,___flmul@b+2
  4822  0019FE  C18B  F018         	movff	powf@sn+3,___flmul@b+3
  4823  001A02  EC20  F025         	call	___flmul	;wreg free
  4824  001A06  C015  F1A4         	movff	?___flmul,_powf$1302
  4825  001A0A  C016  F1A5         	movff	?___flmul+1,_powf$1302+1
  4826  001A0E  C017  F1A6         	movff	?___flmul+2,_powf$1302+2
  4827  001A12  C018  F1A7         	movff	?___flmul+3,_powf$1302+3
  4828  001A16  C1A4  F015         	movff	_powf$1302,___flmul@b
  4829  001A1A  C1A5  F016         	movff	_powf$1302+1,___flmul@b+1
  4830  001A1E  C1A6  F017         	movff	_powf$1302+2,___flmul@b+2
  4831  001A22  C1A7  F018         	movff	_powf$1302+3,___flmul@b+3
  4832  001A26  0E60               	movlw	96
  4833  001A28  6E19               	movwf	___flmul@a^0,c
  4834  001A2A  0E42               	movlw	66
  4835  001A2C  6E1A               	movwf	(___flmul@a+1)^0,c
  4836  001A2E  0EA2               	movlw	162
  4837  001A30  6E1B               	movwf	(___flmul@a+2)^0,c
  4838  001A32  0E0D               	movlw	13
  4839  001A34  6E1C               	movwf	(___flmul@a+3)^0,c
  4840  001A36  EC20  F025         	call	___flmul	;wreg free
  4841  001A3A  C015  F0BB         	movff	?___flmul,?_powf
  4842  001A3E  C016  F0BC         	movff	?___flmul+1,?_powf+1
  4843  001A42  C017  F0BD         	movff	?___flmul+2,?_powf+2
  4844  001A46  C018  F0BE         	movff	?___flmul+3,?_powf+3
  4845  001A4A  EF6D  F01D         	goto	l1037
  4846  001A4E                     l4858:
  4847                           
  4848                           ; BSR set to: 1
  4849  001A4E  0ECA               	movlw	202
  4850  001A50  6E19               	movwf	___flmul@a^0,c
  4851  001A52  0EF2               	movlw	242
  4852  001A54  6E1A               	movwf	(___flmul@a+1)^0,c
  4853  001A56  0E49               	movlw	73
  4854  001A58  6E1B               	movwf	(___flmul@a+2)^0,c
  4855  001A5A  0E71               	movlw	113
  4856  001A5C  6E1C               	movwf	(___flmul@a+3)^0,c
  4857  001A5E  C188  F015         	movff	powf@sn,___flmul@b
  4858  001A62  C189  F016         	movff	powf@sn+1,___flmul@b+1
  4859  001A66  C18A  F017         	movff	powf@sn+2,___flmul@b+2
  4860  001A6A  C18B  F018         	movff	powf@sn+3,___flmul@b+3
  4861  001A6E  EC20  F025         	call	___flmul	;wreg free
  4862  001A72  C015  F1A4         	movff	?___flmul,_powf$1302
  4863  001A76  C016  F1A5         	movff	?___flmul+1,_powf$1302+1
  4864  001A7A  C017  F1A6         	movff	?___flmul+2,_powf$1302+2
  4865  001A7E  C018  F1A7         	movff	?___flmul+3,_powf$1302+3
  4866  001A82  C1A4  F015         	movff	_powf$1302,___flmul@b
  4867  001A86  C1A5  F016         	movff	_powf$1302+1,___flmul@b+1
  4868  001A8A  C1A6  F017         	movff	_powf$1302+2,___flmul@b+2
  4869  001A8E  C1A7  F018         	movff	_powf$1302+3,___flmul@b+3
  4870  001A92  0ECA               	movlw	202
  4871  001A94  6E19               	movwf	___flmul@a^0,c
  4872  001A96  0EF2               	movlw	242
  4873  001A98  6E1A               	movwf	(___flmul@a+1)^0,c
  4874  001A9A  0E49               	movlw	73
  4875  001A9C  6E1B               	movwf	(___flmul@a+2)^0,c
  4876  001A9E  0E71               	movlw	113
  4877  001AA0  6E1C               	movwf	(___flmul@a+3)^0,c
  4878  001AA2  EC20  F025         	call	___flmul	;wreg free
  4879  001AA6  C015  F0BB         	movff	?___flmul,?_powf
  4880  001AAA  C016  F0BC         	movff	?___flmul+1,?_powf+1
  4881  001AAE  C017  F0BD         	movff	?___flmul+2,?_powf+2
  4882  001AB2  C018  F0BE         	movff	?___flmul+3,?_powf+3
  4883  001AB6  EF6D  F01D         	goto	l1037
  4884  001ABA                     l4862:
  4885                           
  4886                           ; BSR set to: 1
  4887  001ABA  C170  F066         	movff	powf@ax,___fladd@b
  4888  001ABE  C171  F067         	movff	powf@ax+1,___fladd@b+1
  4889  001AC2  C172  F068         	movff	powf@ax+2,___fladd@b+2
  4890  001AC6  C173  F069         	movff	powf@ax+3,___fladd@b+3
  4891  001ACA  0E00               	movlw	0
  4892  001ACC  0100               	movlb	0	; () banked
  4893  001ACE  6F6A               	movwf	___fladd@a& (0+255),b
  4894  001AD0  0E00               	movlw	0
  4895  001AD2  6F6B               	movwf	(___fladd@a+1)& (0+255),b
  4896  001AD4  0E80               	movlw	128
  4897  001AD6  6F6C               	movwf	(___fladd@a+2)& (0+255),b
  4898  001AD8  0EBF               	movlw	191
  4899  001ADA  6F6D               	movwf	(___fladd@a+3)& (0+255),b
  4900  001ADC  EC61  F020         	call	___fladd	;wreg free
  4901  001AE0  C066  F1B0         	movff	?___fladd,powf@t
  4902  001AE4  C067  F1B1         	movff	?___fladd+1,powf@t+1
  4903  001AE8  C068  F1B2         	movff	?___fladd+2,powf@t+2
  4904  001AEC  C069  F1B3         	movff	?___fladd+3,powf@t+3
  4905  001AF0  0E00               	movlw	0
  4906  001AF2  6E19               	movwf	___flmul@a^0,c
  4907  001AF4  0E00               	movlw	0
  4908  001AF6  6E1A               	movwf	(___flmul@a+1)^0,c
  4909  001AF8  0E80               	movlw	128
  4910  001AFA  6E1B               	movwf	(___flmul@a+2)^0,c
  4911  001AFC  0E3E               	movlw	62
  4912  001AFE  6E1C               	movwf	(___flmul@a+3)^0,c
  4913  001B00  C1B0  F015         	movff	powf@t,___flmul@b
  4914  001B04  C1B1  F016         	movff	powf@t+1,___flmul@b+1
  4915  001B08  C1B2  F017         	movff	powf@t+2,___flmul@b+2
  4916  001B0C  C1B3  F018         	movff	powf@t+3,___flmul@b+3
  4917  001B10  EC20  F025         	call	___flmul	;wreg free
  4918  001B14  C015  F07A         	movff	?___flmul,___flsub@a
  4919  001B18  C016  F07B         	movff	?___flmul+1,___flsub@a+1
  4920  001B1C  C017  F07C         	movff	?___flmul+2,___flsub@a+2
  4921  001B20  C018  F07D         	movff	?___flmul+3,___flsub@a+3
  4922  001B24  0EAB               	movlw	171
  4923  001B26  0100               	movlb	0	; () banked
  4924  001B28  6F76               	movwf	___flsub@b& (0+255),b
  4925  001B2A  0EAA               	movlw	170
  4926  001B2C  6F77               	movwf	(___flsub@b+1)& (0+255),b
  4927  001B2E  0EAA               	movlw	170
  4928  001B30  6F78               	movwf	(___flsub@b+2)& (0+255),b
  4929  001B32  0E3E               	movlw	62
  4930  001B34  6F79               	movwf	(___flsub@b+3)& (0+255),b
  4931  001B36  EC3F  F031         	call	___flsub	;wreg free
  4932  001B3A  C076  F1A4         	movff	?___flsub,_powf$1302
  4933  001B3E  C077  F1A5         	movff	?___flsub+1,_powf$1302+1
  4934  001B42  C078  F1A6         	movff	?___flsub+2,_powf$1302+2
  4935  001B46  C079  F1A7         	movff	?___flsub+3,_powf$1302+3
  4936  001B4A  C1B0  F019         	movff	powf@t,___flmul@a
  4937  001B4E  C1B1  F01A         	movff	powf@t+1,___flmul@a+1
  4938  001B52  C1B2  F01B         	movff	powf@t+2,___flmul@a+2
  4939  001B56  C1B3  F01C         	movff	powf@t+3,___flmul@a+3
  4940  001B5A  C1B0  F015         	movff	powf@t,___flmul@b
  4941  001B5E  C1B1  F016         	movff	powf@t+1,___flmul@b+1
  4942  001B62  C1B2  F017         	movff	powf@t+2,___flmul@b+2
  4943  001B66  C1B3  F018         	movff	powf@t+3,___flmul@b+3
  4944  001B6A  EC20  F025         	call	___flmul	;wreg free
  4945  001B6E  C015  F154         	movff	?___flmul,_powf$1303
  4946  001B72  C016  F155         	movff	?___flmul+1,_powf$1303+1
  4947  001B76  C017  F156         	movff	?___flmul+2,_powf$1303+2
  4948  001B7A  C018  F157         	movff	?___flmul+3,_powf$1303+3
  4949  001B7E  C1B0  F019         	movff	powf@t,___flmul@a
  4950  001B82  C1B1  F01A         	movff	powf@t+1,___flmul@a+1
  4951  001B86  C1B2  F01B         	movff	powf@t+2,___flmul@a+2
  4952  001B8A  C1B3  F01C         	movff	powf@t+3,___flmul@a+3
  4953  001B8E  C1A4  F015         	movff	_powf$1302,___flmul@b
  4954  001B92  C1A5  F016         	movff	_powf$1302+1,___flmul@b+1
  4955  001B96  C1A6  F017         	movff	_powf$1302+2,___flmul@b+2
  4956  001B9A  C1A7  F018         	movff	_powf$1302+3,___flmul@b+3
  4957  001B9E  EC20  F025         	call	___flmul	;wreg free
  4958  001BA2  C015  F07A         	movff	?___flmul,___flsub@a
  4959  001BA6  C016  F07B         	movff	?___flmul+1,___flsub@a+1
  4960  001BAA  C017  F07C         	movff	?___flmul+2,___flsub@a+2
  4961  001BAE  C018  F07D         	movff	?___flmul+3,___flsub@a+3
  4962  001BB2  0E00               	movlw	0
  4963  001BB4  0100               	movlb	0	; () banked
  4964  001BB6  6F76               	movwf	___flsub@b& (0+255),b
  4965  001BB8  0E00               	movlw	0
  4966  001BBA  6F77               	movwf	(___flsub@b+1)& (0+255),b
  4967  001BBC  0E00               	movlw	0
  4968  001BBE  6F78               	movwf	(___flsub@b+2)& (0+255),b
  4969  001BC0  0E3F               	movlw	63
  4970  001BC2  6F79               	movwf	(___flsub@b+3)& (0+255),b
  4971  001BC4  EC3F  F031         	call	___flsub	;wreg free
  4972  001BC8  C076  F148         	movff	?___flsub,_powf$1304
  4973  001BCC  C077  F149         	movff	?___flsub+1,_powf$1304+1
  4974  001BD0  C078  F14A         	movff	?___flsub+2,_powf$1304+2
  4975  001BD4  C079  F14B         	movff	?___flsub+3,_powf$1304+3
  4976  001BD8  C154  F015         	movff	_powf$1303,___flmul@b
  4977  001BDC  C155  F016         	movff	_powf$1303+1,___flmul@b+1
  4978  001BE0  C156  F017         	movff	_powf$1303+2,___flmul@b+2
  4979  001BE4  C157  F018         	movff	_powf$1303+3,___flmul@b+3
  4980  001BE8  C148  F019         	movff	_powf$1304,___flmul@a
  4981  001BEC  C149  F01A         	movff	_powf$1304+1,___flmul@a+1
  4982  001BF0  C14A  F01B         	movff	_powf$1304+2,___flmul@a+2
  4983  001BF4  C14B  F01C         	movff	_powf$1304+3,___flmul@a+3
  4984  001BF8  EC20  F025         	call	___flmul	;wreg free
  4985  001BFC  C015  F144         	movff	?___flmul,powf@w
  4986  001C00  C016  F145         	movff	?___flmul+1,powf@w+1
  4987  001C04  C017  F146         	movff	?___flmul+2,powf@w+2
  4988  001C08  C018  F147         	movff	?___flmul+3,powf@w+3
  4989  001C0C  C1B0  F015         	movff	powf@t,___flmul@b
  4990  001C10  C1B1  F016         	movff	powf@t+1,___flmul@b+1
  4991  001C14  C1B2  F017         	movff	powf@t+2,___flmul@b+2
  4992  001C18  C1B3  F018         	movff	powf@t+3,___flmul@b+3
  4993  001C1C  0E00               	movlw	0
  4994  001C1E  6E19               	movwf	___flmul@a^0,c
  4995  001C20  0EAA               	movlw	170
  4996  001C22  6E1A               	movwf	(___flmul@a+1)^0,c
  4997  001C24  0EB8               	movlw	184
  4998  001C26  6E1B               	movwf	(___flmul@a+2)^0,c
  4999  001C28  0E3F               	movlw	63
  5000  001C2A  6E1C               	movwf	(___flmul@a+3)^0,c
  5001  001C2C  EC20  F025         	call	___flmul	;wreg free
  5002  001C30  C015  F174         	movff	?___flmul,powf@u
  5003  001C34  C016  F175         	movff	?___flmul+1,powf@u+1
  5004  001C38  C017  F176         	movff	?___flmul+2,powf@u+2
  5005  001C3C  C018  F177         	movff	?___flmul+3,powf@u+3
  5006  001C40  0E70               	movlw	112
  5007  001C42  6E19               	movwf	___flmul@a^0,c
  5008  001C44  0EA5               	movlw	165
  5009  001C46  6E1A               	movwf	(___flmul@a+1)^0,c
  5010  001C48  0EEC               	movlw	236
  5011  001C4A  6E1B               	movwf	(___flmul@a+2)^0,c
  5012  001C4C  0E36               	movlw	54
  5013  001C4E  6E1C               	movwf	(___flmul@a+3)^0,c
  5014  001C50  C1B0  F015         	movff	powf@t,___flmul@b
  5015  001C54  C1B1  F016         	movff	powf@t+1,___flmul@b+1
  5016  001C58  C1B2  F017         	movff	powf@t+2,___flmul@b+2
  5017  001C5C  C1B3  F018         	movff	powf@t+3,___flmul@b+3
  5018  001C60  EC20  F025         	call	___flmul	;wreg free
  5019  001C64  C015  F076         	movff	?___flmul,___flsub@b
  5020  001C68  C016  F077         	movff	?___flmul+1,___flsub@b+1
  5021  001C6C  C017  F078         	movff	?___flmul+2,___flsub@b+2
  5022  001C70  C018  F079         	movff	?___flmul+3,___flsub@b+3
  5023  001C74  0E3B               	movlw	59
  5024  001C76  6E19               	movwf	___flmul@a^0,c
  5025  001C78  0EAA               	movlw	170
  5026  001C7A  6E1A               	movwf	(___flmul@a+1)^0,c
  5027  001C7C  0EB8               	movlw	184
  5028  001C7E  6E1B               	movwf	(___flmul@a+2)^0,c
  5029  001C80  0E3F               	movlw	63
  5030  001C82  6E1C               	movwf	(___flmul@a+3)^0,c
  5031  001C84  C144  F015         	movff	powf@w,___flmul@b
  5032  001C88  C145  F016         	movff	powf@w+1,___flmul@b+1
  5033  001C8C  C146  F017         	movff	powf@w+2,___flmul@b+2
  5034  001C90  C147  F018         	movff	powf@w+3,___flmul@b+3
  5035  001C94  EC20  F025         	call	___flmul	;wreg free
  5036  001C98  C015  F07A         	movff	?___flmul,___flsub@a
  5037  001C9C  C016  F07B         	movff	?___flmul+1,___flsub@a+1
  5038  001CA0  C017  F07C         	movff	?___flmul+2,___flsub@a+2
  5039  001CA4  C018  F07D         	movff	?___flmul+3,___flsub@a+3
  5040  001CA8  EC3F  F031         	call	___flsub	;wreg free
  5041  001CAC  C076  F178         	movff	?___flsub,powf@v
  5042  001CB0  C077  F179         	movff	?___flsub+1,powf@v+1
  5043  001CB4  C078  F17A         	movff	?___flsub+2,powf@v+2
  5044  001CB8  C079  F17B         	movff	?___flsub+3,powf@v+3
  5045  001CBC  C174  F066         	movff	powf@u,___fladd@b
  5046  001CC0  C175  F067         	movff	powf@u+1,___fladd@b+1
  5047  001CC4  C176  F068         	movff	powf@u+2,___fladd@b+2
  5048  001CC8  C177  F069         	movff	powf@u+3,___fladd@b+3
  5049  001CCC  C178  F06A         	movff	powf@v,___fladd@a
  5050  001CD0  C179  F06B         	movff	powf@v+1,___fladd@a+1
  5051  001CD4  C17A  F06C         	movff	powf@v+2,___fladd@a+2
  5052  001CD8  C17B  F06D         	movff	powf@v+3,___fladd@a+3
  5053  001CDC  EC61  F020         	call	___fladd	;wreg free
  5054  001CE0  C066  F184         	movff	?___fladd,powf@t1
  5055  001CE4  C067  F185         	movff	?___fladd+1,powf@t1+1
  5056  001CE8  C068  F186         	movff	?___fladd+2,powf@t1+2
  5057  001CEC  C069  F187         	movff	?___fladd+3,powf@t1+3
  5058  001CF0  C184  F1B8         	movff	powf@t1,powf@__xc8_float_word
  5059  001CF4  C185  F1B9         	movff	powf@t1+1,powf@__xc8_float_word+1
  5060  001CF8  C186  F1BA         	movff	powf@t1+2,powf@__xc8_float_word+2
  5061  001CFC  C187  F1BB         	movff	powf@t1+3,powf@__xc8_float_word+3
  5062  001D00  C1B8  F194         	movff	powf@__xc8_float_word,powf@is
  5063  001D04  C1B9  F195         	movff	powf@__xc8_float_word+1,powf@is+1
  5064  001D08  C1BA  F196         	movff	powf@__xc8_float_word+2,powf@is+2
  5065  001D0C  C1BB  F197         	movff	powf@__xc8_float_word+3,powf@is+3
  5066  001D10  0E00               	movlw	0
  5067  001D12  0101               	movlb	1	; () banked
  5068  001D14  1594               	andwf	powf@is& (0+255),w,b
  5069  001D16  6FB8               	movwf	powf@__xc8_float_word& (0+255),b
  5070  001D18  0EF0               	movlw	240
  5071  001D1A  1595               	andwf	(powf@is+1)& (0+255),w,b
  5072  001D1C  6FB9               	movwf	(powf@__xc8_float_word+1)& (0+255),b
  5073  001D1E  0EFF               	movlw	255
  5074  001D20  1596               	andwf	(powf@is+2)& (0+255),w,b
  5075  001D22  6FBA               	movwf	(powf@__xc8_float_word+2)& (0+255),b
  5076  001D24  0EFF               	movlw	255
  5077  001D26  1597               	andwf	(powf@is+3)& (0+255),w,b
  5078  001D28  6FBB               	movwf	(powf@__xc8_float_word+3)& (0+255),b
  5079  001D2A                     
  5080                           ; BSR set to: 1
  5081  001D2A  C1B8  F184         	movff	powf@__xc8_float_word,powf@t1
  5082  001D2E  C1B9  F185         	movff	powf@__xc8_float_word+1,powf@t1+1
  5083  001D32  C1BA  F186         	movff	powf@__xc8_float_word+2,powf@t1+2
  5084  001D36  C1BB  F187         	movff	powf@__xc8_float_word+3,powf@t1+3
  5085  001D3A                     
  5086                           ; BSR set to: 1
  5087  001D3A  C174  F07A         	movff	powf@u,___flsub@a
  5088  001D3E  C175  F07B         	movff	powf@u+1,___flsub@a+1
  5089  001D42  C176  F07C         	movff	powf@u+2,___flsub@a+2
  5090  001D46  C177  F07D         	movff	powf@u+3,___flsub@a+3
  5091  001D4A  C184  F076         	movff	powf@t1,___flsub@b
  5092  001D4E  C185  F077         	movff	powf@t1+1,___flsub@b+1
  5093  001D52  C186  F078         	movff	powf@t1+2,___flsub@b+2
  5094  001D56  C187  F079         	movff	powf@t1+3,___flsub@b+3
  5095  001D5A  EC3F  F031         	call	___flsub	;wreg free
  5096  001D5E  C076  F198         	movff	?___flsub,_powf$1305
  5097  001D62  C077  F199         	movff	?___flsub+1,_powf$1305+1
  5098  001D66  C078  F19A         	movff	?___flsub+2,_powf$1305+2
  5099  001D6A  C079  F19B         	movff	?___flsub+3,_powf$1305+3
  5100  001D6E  C178  F076         	movff	powf@v,___flsub@b
  5101  001D72  C179  F077         	movff	powf@v+1,___flsub@b+1
  5102  001D76  C17A  F078         	movff	powf@v+2,___flsub@b+2
  5103  001D7A  C17B  F079         	movff	powf@v+3,___flsub@b+3
  5104  001D7E  C198  F07A         	movff	_powf$1305,___flsub@a
  5105  001D82  C199  F07B         	movff	_powf$1305+1,___flsub@a+1
  5106  001D86  C19A  F07C         	movff	_powf$1305+2,___flsub@a+2
  5107  001D8A  C19B  F07D         	movff	_powf$1305+3,___flsub@a+3
  5108  001D8E  EC3F  F031         	call	___flsub	;wreg free
  5109  001D92  C076  F11C         	movff	?___flsub,powf@t2
  5110  001D96  C077  F11D         	movff	?___flsub+1,powf@t2+1
  5111  001D9A  C078  F11E         	movff	?___flsub+2,powf@t2+2
  5112  001D9E  C079  F11F         	movff	?___flsub+3,powf@t2+3
  5113  001DA2  EF5A  F016         	goto	l5044
  5114  001DA6                     l4888:
  5115                           
  5116                           ; BSR set to: 1
  5117  001DA6  0E00               	movlw	0
  5118  001DA8  6F80               	movwf	powf@n& (0+255),b
  5119  001DAA  0E00               	movlw	0
  5120  001DAC  6F81               	movwf	(powf@n+1)& (0+255),b
  5121  001DAE  0E00               	movlw	0
  5122  001DB0  6F82               	movwf	(powf@n+2)& (0+255),b
  5123  001DB2  0E00               	movlw	0
  5124  001DB4  6F83               	movwf	(powf@n+3)& (0+255),b
  5125  001DB6                     
  5126                           ; BSR set to: 1
  5127  001DB6  BFAB               	btfsc	(powf@ix+3)& (0+255),7,b
  5128  001DB8  EFE9  F00E         	goto	u6070
  5129  001DBC  51AB               	movf	(powf@ix+3)& (0+255),w,b
  5130  001DBE  E107               	bnz	u6071
  5131  001DC0  0E80               	movlw	128
  5132  001DC2  5DAA               	subwf	(powf@ix+2)& (0+255),w,b
  5133  001DC4  B0D8               	btfsc	status,0,c
  5134  001DC6  EFE7  F00E         	goto	u6071
  5135  001DCA  EFE9  F00E         	goto	u6070
  5136  001DCE                     u6071:
  5137  001DCE  EF1C  F00F         	goto	l4900
  5138  001DD2                     u6070:
  5139  001DD2                     
  5140                           ; BSR set to: 1
  5141  001DD2  C170  F015         	movff	powf@ax,___flmul@b
  5142  001DD6  C171  F016         	movff	powf@ax+1,___flmul@b+1
  5143  001DDA  C172  F017         	movff	powf@ax+2,___flmul@b+2
  5144  001DDE  C173  F018         	movff	powf@ax+3,___flmul@b+3
  5145  001DE2  0E00               	movlw	0
  5146  001DE4  6E19               	movwf	___flmul@a^0,c
  5147  001DE6  0E00               	movlw	0
  5148  001DE8  6E1A               	movwf	(___flmul@a+1)^0,c
  5149  001DEA  0E80               	movlw	128
  5150  001DEC  6E1B               	movwf	(___flmul@a+2)^0,c
  5151  001DEE  0E4B               	movlw	75
  5152  001DF0  6E1C               	movwf	(___flmul@a+3)^0,c
  5153  001DF2  EC20  F025         	call	___flmul	;wreg free
  5154  001DF6  C015  F170         	movff	?___flmul,powf@ax
  5155  001DFA  C016  F171         	movff	?___flmul+1,powf@ax+1
  5156  001DFE  C017  F172         	movff	?___flmul+2,powf@ax+2
  5157  001E02  C018  F173         	movff	?___flmul+3,powf@ax+3
  5158  001E06  0EE8               	movlw	232
  5159  001E08  0101               	movlb	1	; () banked
  5160  001E0A  2780               	addwf	powf@n& (0+255),f,b
  5161  001E0C  0EFF               	movlw	255
  5162  001E0E  2381               	addwfc	(powf@n+1)& (0+255),f,b
  5163  001E10  0EFF               	movlw	255
  5164  001E12  2382               	addwfc	(powf@n+2)& (0+255),f,b
  5165  001E14  0EFF               	movlw	255
  5166  001E16  2383               	addwfc	(powf@n+3)& (0+255),f,b
  5167  001E18                     
  5168                           ; BSR set to: 1
  5169  001E18  C170  F1B8         	movff	powf@ax,powf@__xc8_float_word
  5170  001E1C  C171  F1B9         	movff	powf@ax+1,powf@__xc8_float_word+1
  5171  001E20  C172  F1BA         	movff	powf@ax+2,powf@__xc8_float_word+2
  5172  001E24  C173  F1BB         	movff	powf@ax+3,powf@__xc8_float_word+3
  5173  001E28                     
  5174                           ; BSR set to: 1
  5175  001E28  C1B8  F1A8         	movff	powf@__xc8_float_word,powf@ix
  5176  001E2C  C1B9  F1A9         	movff	powf@__xc8_float_word+1,powf@ix+1
  5177  001E30  C1BA  F1AA         	movff	powf@__xc8_float_word+2,powf@ix+2
  5178  001E34  C1BB  F1AB         	movff	powf@__xc8_float_word+3,powf@ix+3
  5179  001E38                     l4900:
  5180                           
  5181                           ; BSR set to: 1
  5182  001E38  0E17               	movlw	23
  5183  001E3A  0100               	movlb	0	; () banked
  5184  001E3C  6FC3               	movwf	??_powf& (0+255),b
  5185  001E3E  C1A8  F0C4         	movff	powf@ix,??_powf+1
  5186  001E42  C1A9  F0C5         	movff	powf@ix+1,??_powf+2
  5187  001E46  C1AA  F0C6         	movff	powf@ix+2,??_powf+3
  5188  001E4A  C1AB  F0C7         	movff	powf@ix+3,??_powf+4
  5189  001E4E                     u6085:
  5190  001E4E  67C3               	tstfsz	??_powf& (0+255),b
  5191  001E50  EF2C  F00F         	goto	u6086
  5192  001E54  EF34  F00F         	goto	u6087
  5193  001E58                     u6086:
  5194  001E58  35C7               	rlcf	(??_powf+4)& (0+255),w,b
  5195  001E5A  33C7               	rrcf	(??_powf+4)& (0+255),f,b
  5196  001E5C  33C6               	rrcf	(??_powf+3)& (0+255),f,b
  5197  001E5E  33C5               	rrcf	(??_powf+2)& (0+255),f,b
  5198  001E60  33C4               	rrcf	(??_powf+1)& (0+255),f,b
  5199  001E62  2FC3               	decfsz	??_powf& (0+255),f,b
  5200  001E64  EF27  F00F         	goto	u6085
  5201  001E68                     u6087:
  5202  001E68  0E81               	movlw	129
  5203  001E6A  0100               	movlb	0	; () banked
  5204  001E6C  25C4               	addwf	(??_powf+1)& (0+255),w,b
  5205  001E6E  6FC8               	movwf	(??_powf+5)& (0+255),b
  5206  001E70  0EFF               	movlw	255
  5207  001E72  21C5               	addwfc	(??_powf+2)& (0+255),w,b
  5208  001E74  6FC9               	movwf	(??_powf+6)& (0+255),b
  5209  001E76  0EFF               	movlw	255
  5210  001E78  21C6               	addwfc	(??_powf+3)& (0+255),w,b
  5211  001E7A  6FCA               	movwf	(??_powf+7)& (0+255),b
  5212  001E7C  0EFF               	movlw	255
  5213  001E7E  21C7               	addwfc	(??_powf+4)& (0+255),w,b
  5214  001E80  6FCB               	movwf	(??_powf+8)& (0+255),b
  5215  001E82  51C8               	movf	(??_powf+5)& (0+255),w,b
  5216  001E84  0101               	movlb	1	; () banked
  5217  001E86  2780               	addwf	powf@n& (0+255),f,b
  5218  001E88  0100               	movlb	0	; () banked
  5219  001E8A  51C9               	movf	(??_powf+6)& (0+255),w,b
  5220  001E8C  0101               	movlb	1	; () banked
  5221  001E8E  2381               	addwfc	(powf@n+1)& (0+255),f,b
  5222  001E90  0100               	movlb	0	; () banked
  5223  001E92  51CA               	movf	(??_powf+7)& (0+255),w,b
  5224  001E94  0101               	movlb	1	; () banked
  5225  001E96  2382               	addwfc	(powf@n+2)& (0+255),f,b
  5226  001E98  0100               	movlb	0	; () banked
  5227  001E9A  51CB               	movf	(??_powf+8)& (0+255),w,b
  5228  001E9C  0101               	movlb	1	; () banked
  5229  001E9E  2383               	addwfc	(powf@n+3)& (0+255),f,b
  5230  001EA0                     
  5231                           ; BSR set to: 1
  5232  001EA0  0EFF               	movlw	255
  5233  001EA2  15A8               	andwf	powf@ix& (0+255),w,b
  5234  001EA4  6FAC               	movwf	powf@j& (0+255),b
  5235  001EA6  0EFF               	movlw	255
  5236  001EA8  15A9               	andwf	(powf@ix+1)& (0+255),w,b
  5237  001EAA  6FAD               	movwf	(powf@j+1)& (0+255),b
  5238  001EAC  0E7F               	movlw	127
  5239  001EAE  15AA               	andwf	(powf@ix+2)& (0+255),w,b
  5240  001EB0  6FAE               	movwf	(powf@j+2)& (0+255),b
  5241  001EB2  0E00               	movlw	0
  5242  001EB4  15AB               	andwf	(powf@ix+3)& (0+255),w,b
  5243  001EB6  6FAF               	movwf	(powf@j+3)& (0+255),b
  5244  001EB8                     
  5245                           ; BSR set to: 1
  5246  001EB8  0E00               	movlw	0
  5247  001EBA  11AC               	iorwf	powf@j& (0+255),w,b
  5248  001EBC  6FA8               	movwf	powf@ix& (0+255),b
  5249  001EBE  0E00               	movlw	0
  5250  001EC0  11AD               	iorwf	(powf@j+1)& (0+255),w,b
  5251  001EC2  6FA9               	movwf	(powf@ix+1)& (0+255),b
  5252  001EC4  0E80               	movlw	128
  5253  001EC6  11AE               	iorwf	(powf@j+2)& (0+255),w,b
  5254  001EC8  6FAA               	movwf	(powf@ix+2)& (0+255),b
  5255  001ECA  0E3F               	movlw	63
  5256  001ECC  11AF               	iorwf	(powf@j+3)& (0+255),w,b
  5257  001ECE  6FAB               	movwf	(powf@ix+3)& (0+255),b
  5258  001ED0                     
  5259                           ; BSR set to: 1
  5260  001ED0  BFAF               	btfsc	(powf@j+3)& (0+255),7,b
  5261  001ED2  EF7A  F00F         	goto	u6090
  5262  001ED6  51AF               	movf	(powf@j+3)& (0+255),w,b
  5263  001ED8  E10B               	bnz	u6091
  5264  001EDA  0E72               	movlw	114
  5265  001EDC  5DAC               	subwf	powf@j& (0+255),w,b
  5266  001EDE  0EC4               	movlw	196
  5267  001EE0  59AD               	subwfb	(powf@j+1)& (0+255),w,b
  5268  001EE2  0E1C               	movlw	28
  5269  001EE4  59AE               	subwfb	(powf@j+2)& (0+255),w,b
  5270  001EE6  B0D8               	btfsc	status,0,c
  5271  001EE8  EF78  F00F         	goto	u6091
  5272  001EEC  EF7A  F00F         	goto	u6090
  5273  001EF0                     u6091:
  5274  001EF0  EF84  F00F         	goto	l4910
  5275  001EF4                     u6090:
  5276  001EF4                     
  5277                           ; BSR set to: 1
  5278  001EF4  0E00               	movlw	0
  5279  001EF6  6FA0               	movwf	powf@k& (0+255),b
  5280  001EF8  0E00               	movlw	0
  5281  001EFA  6FA1               	movwf	(powf@k+1)& (0+255),b
  5282  001EFC  0E00               	movlw	0
  5283  001EFE  6FA2               	movwf	(powf@k+2)& (0+255),b
  5284  001F00  0E00               	movlw	0
  5285  001F02  6FA3               	movwf	(powf@k+3)& (0+255),b
  5286  001F04  EFB6  F00F         	goto	l4920
  5287  001F08                     l4910:
  5288                           
  5289                           ; BSR set to: 1
  5290  001F08  BFAF               	btfsc	(powf@j+3)& (0+255),7,b
  5291  001F0A  EF96  F00F         	goto	u6100
  5292  001F0E  51AF               	movf	(powf@j+3)& (0+255),w,b
  5293  001F10  E10B               	bnz	u6101
  5294  001F12  0ED7               	movlw	215
  5295  001F14  5DAC               	subwf	powf@j& (0+255),w,b
  5296  001F16  0EB3               	movlw	179
  5297  001F18  59AD               	subwfb	(powf@j+1)& (0+255),w,b
  5298  001F1A  0E5D               	movlw	93
  5299  001F1C  59AE               	subwfb	(powf@j+2)& (0+255),w,b
  5300  001F1E  B0D8               	btfsc	status,0,c
  5301  001F20  EF94  F00F         	goto	u6101
  5302  001F24  EF96  F00F         	goto	u6100
  5303  001F28                     u6101:
  5304  001F28  EFA0  F00F         	goto	l4914
  5305  001F2C                     u6100:
  5306  001F2C                     
  5307                           ; BSR set to: 1
  5308  001F2C  0E01               	movlw	1
  5309  001F2E  6FA0               	movwf	powf@k& (0+255),b
  5310  001F30  0E00               	movlw	0
  5311  001F32  6FA1               	movwf	(powf@k+1)& (0+255),b
  5312  001F34  0E00               	movlw	0
  5313  001F36  6FA2               	movwf	(powf@k+2)& (0+255),b
  5314  001F38  0E00               	movlw	0
  5315  001F3A  6FA3               	movwf	(powf@k+3)& (0+255),b
  5316  001F3C  EFB6  F00F         	goto	l4920
  5317  001F40                     l4914:
  5318                           
  5319                           ; BSR set to: 1
  5320  001F40  0E00               	movlw	0
  5321  001F42  6FA0               	movwf	powf@k& (0+255),b
  5322  001F44  0E00               	movlw	0
  5323  001F46  6FA1               	movwf	(powf@k+1)& (0+255),b
  5324  001F48  0E00               	movlw	0
  5325  001F4A  6FA2               	movwf	(powf@k+2)& (0+255),b
  5326  001F4C  0E00               	movlw	0
  5327  001F4E  6FA3               	movwf	(powf@k+3)& (0+255),b
  5328  001F50                     
  5329                           ; BSR set to: 1
  5330  001F50  0E01               	movlw	1
  5331  001F52  2780               	addwf	powf@n& (0+255),f,b
  5332  001F54  0E00               	movlw	0
  5333  001F56  2381               	addwfc	(powf@n+1)& (0+255),f,b
  5334  001F58  2382               	addwfc	(powf@n+2)& (0+255),f,b
  5335  001F5A  2383               	addwfc	(powf@n+3)& (0+255),f,b
  5336  001F5C                     
  5337                           ; BSR set to: 1
  5338  001F5C  0E00               	movlw	0
  5339  001F5E  27A8               	addwf	powf@ix& (0+255),f,b
  5340  001F60  0E00               	movlw	0
  5341  001F62  23A9               	addwfc	(powf@ix+1)& (0+255),f,b
  5342  001F64  0E80               	movlw	128
  5343  001F66  23AA               	addwfc	(powf@ix+2)& (0+255),f,b
  5344  001F68  0EFF               	movlw	255
  5345  001F6A  23AB               	addwfc	(powf@ix+3)& (0+255),f,b
  5346  001F6C                     l4920:
  5347                           
  5348                           ; BSR set to: 1
  5349  001F6C  C1A8  F1B8         	movff	powf@ix,powf@__xc8_float_word
  5350  001F70  C1A9  F1B9         	movff	powf@ix+1,powf@__xc8_float_word+1
  5351  001F74  C1AA  F1BA         	movff	powf@ix+2,powf@__xc8_float_word+2
  5352  001F78  C1AB  F1BB         	movff	powf@ix+3,powf@__xc8_float_word+3
  5353  001F7C                     
  5354                           ; BSR set to: 1
  5355  001F7C  C1B8  F170         	movff	powf@__xc8_float_word,powf@ax
  5356  001F80  C1B9  F171         	movff	powf@__xc8_float_word+1,powf@ax+1
  5357  001F84  C1BA  F172         	movff	powf@__xc8_float_word+2,powf@ax+2
  5358  001F88  C1BB  F173         	movff	powf@__xc8_float_word+3,powf@ax+3
  5359  001F8C                     
  5360                           ; BSR set to: 1
  5361  001F8C  C170  F076         	movff	powf@ax,___flsub@b
  5362  001F90  C171  F077         	movff	powf@ax+1,___flsub@b+1
  5363  001F94  C172  F078         	movff	powf@ax+2,___flsub@b+2
  5364  001F98  C173  F079         	movff	powf@ax+3,___flsub@b+3
  5365  001F9C  C1A0  F0C3         	movff	powf@k,??_powf
  5366  001FA0  C1A1  F0C4         	movff	powf@k+1,??_powf+1
  5367  001FA4  0100               	movlb	0	; () banked
  5368  001FA6  90D8               	bcf	status,0,c
  5369  001FA8  37C3               	rlcf	??_powf& (0+255),f,b
  5370  001FAA  37C4               	rlcf	(??_powf+1)& (0+255),f,b
  5371  001FAC  90D8               	bcf	status,0,c
  5372  001FAE  37C3               	rlcf	??_powf& (0+255),f,b
  5373  001FB0  37C4               	rlcf	(??_powf+1)& (0+255),f,b
  5374  001FB2  0E69               	movlw	low _bp
  5375  001FB4  25C3               	addwf	??_powf& (0+255),w,b
  5376  001FB6  6EF6               	movwf	tblptrl,c
  5377  001FB8  0E10               	movlw	high _bp
  5378  001FBA  21C4               	addwfc	(??_powf+1)& (0+255),w,b
  5379  001FBC  6EF7               	movwf	tblptrh,c
  5380  001FBE                     	if	1	;There are 3 active tblptr bytes
  5381  001FBE  6AF8               	clrf	tblptru,c
  5382  001FC0  0E00               	movlw	low (__mediumconst shr (0+16))
  5383  001FC2  22F8               	addwfc	tblptru,f,c
  5384  001FC4                     	endif
  5385  001FC4  0009               	tblrd		*+
  5386  001FC6  CFF5 F07A          	movff	tablat,___flsub@a
  5387  001FCA  0009               	tblrd		*+
  5388  001FCC  CFF5 F07B          	movff	tablat,___flsub@a+1
  5389  001FD0  0009               	tblrd		*+
  5390  001FD2  CFF5 F07C          	movff	tablat,___flsub@a+2
  5391  001FD6  000A               	tblrd		*-
  5392  001FD8  CFF5 F07D          	movff	tablat,___flsub@a+3
  5393  001FDC  EC3F  F031         	call	___flsub	;wreg free
  5394  001FE0  C076  F174         	movff	?___flsub,powf@u
  5395  001FE4  C077  F175         	movff	?___flsub+1,powf@u+1
  5396  001FE8  C078  F176         	movff	?___flsub+2,powf@u+2
  5397  001FEC  C079  F177         	movff	?___flsub+3,powf@u+3
  5398  001FF0  0E00               	movlw	0
  5399  001FF2  0100               	movlb	0	; () banked
  5400  001FF4  6F7E               	movwf	___fldiv@b& (0+255),b
  5401  001FF6  0E00               	movlw	0
  5402  001FF8  6F7F               	movwf	(___fldiv@b+1)& (0+255),b
  5403  001FFA  0E80               	movlw	128
  5404  001FFC  6F80               	movwf	(___fldiv@b+2)& (0+255),b
  5405  001FFE  0E3F               	movlw	63
  5406  002000  6F81               	movwf	(___fldiv@b+3)& (0+255),b
  5407  002002  C170  F06A         	movff	powf@ax,___fladd@a
  5408  002006  C171  F06B         	movff	powf@ax+1,___fladd@a+1
  5409  00200A  C172  F06C         	movff	powf@ax+2,___fladd@a+2
  5410  00200E  C173  F06D         	movff	powf@ax+3,___fladd@a+3
  5411  002012  C1A0  F0C3         	movff	powf@k,??_powf
  5412  002016  C1A1  F0C4         	movff	powf@k+1,??_powf+1
  5413  00201A  90D8               	bcf	status,0,c
  5414  00201C  37C3               	rlcf	??_powf& (0+255),f,b
  5415  00201E  37C4               	rlcf	(??_powf+1)& (0+255),f,b
  5416  002020  90D8               	bcf	status,0,c
  5417  002022  37C3               	rlcf	??_powf& (0+255),f,b
  5418  002024  37C4               	rlcf	(??_powf+1)& (0+255),f,b
  5419  002026  0E69               	movlw	low _bp
  5420  002028  25C3               	addwf	??_powf& (0+255),w,b
  5421  00202A  6EF6               	movwf	tblptrl,c
  5422  00202C  0E10               	movlw	high _bp
  5423  00202E  21C4               	addwfc	(??_powf+1)& (0+255),w,b
  5424  002030  6EF7               	movwf	tblptrh,c
  5425  002032                     	if	1	;There are 3 active tblptr bytes
  5426  002032  6AF8               	clrf	tblptru,c
  5427  002034  0E00               	movlw	low (__mediumconst shr (0+16))
  5428  002036  22F8               	addwfc	tblptru,f,c
  5429  002038                     	endif
  5430  002038  0009               	tblrd		*+
  5431  00203A  CFF5 F066          	movff	tablat,___fladd@b
  5432  00203E  0009               	tblrd		*+
  5433  002040  CFF5 F067          	movff	tablat,___fladd@b+1
  5434  002044  0009               	tblrd		*+
  5435  002046  CFF5 F068          	movff	tablat,___fladd@b+2
  5436  00204A  000A               	tblrd		*-
  5437  00204C  CFF5 F069          	movff	tablat,___fladd@b+3
  5438  002050  EC61  F020         	call	___fladd	;wreg free
  5439  002054  C066  F082         	movff	?___fladd,___fldiv@a
  5440  002058  C067  F083         	movff	?___fladd+1,___fldiv@a+1
  5441  00205C  C068  F084         	movff	?___fladd+2,___fldiv@a+2
  5442  002060  C069  F085         	movff	?___fladd+3,___fldiv@a+3
  5443  002064  EC35  F027         	call	___fldiv	;wreg free
  5444  002068  C07E  F178         	movff	?___fldiv,powf@v
  5445  00206C  C07F  F179         	movff	?___fldiv+1,powf@v+1
  5446  002070  C080  F17A         	movff	?___fldiv+2,powf@v+2
  5447  002074  C081  F17B         	movff	?___fldiv+3,powf@v+3
  5448  002078  C174  F015         	movff	powf@u,___flmul@b
  5449  00207C  C175  F016         	movff	powf@u+1,___flmul@b+1
  5450  002080  C176  F017         	movff	powf@u+2,___flmul@b+2
  5451  002084  C177  F018         	movff	powf@u+3,___flmul@b+3
  5452  002088  C178  F019         	movff	powf@v,___flmul@a
  5453  00208C  C179  F01A         	movff	powf@v+1,___flmul@a+1
  5454  002090  C17A  F01B         	movff	powf@v+2,___flmul@a+2
  5455  002094  C17B  F01C         	movff	powf@v+3,___flmul@a+3
  5456  002098  EC20  F025         	call	___flmul	;wreg free
  5457  00209C  C015  F15C         	movff	?___flmul,powf@s
  5458  0020A0  C016  F15D         	movff	?___flmul+1,powf@s+1
  5459  0020A4  C017  F15E         	movff	?___flmul+2,powf@s+2
  5460  0020A8  C018  F15F         	movff	?___flmul+3,powf@s+3
  5461  0020AC  C15C  F16C         	movff	powf@s,powf@s_h
  5462  0020B0  C15D  F16D         	movff	powf@s+1,powf@s_h+1
  5463  0020B4  C15E  F16E         	movff	powf@s+2,powf@s_h+2
  5464  0020B8  C15F  F16F         	movff	powf@s+3,powf@s_h+3
  5465  0020BC  C16C  F1B8         	movff	powf@s_h,powf@__xc8_float_word
  5466  0020C0  C16D  F1B9         	movff	powf@s_h+1,powf@__xc8_float_word+1
  5467  0020C4  C16E  F1BA         	movff	powf@s_h+2,powf@__xc8_float_word+2
  5468  0020C8  C16F  F1BB         	movff	powf@s_h+3,powf@__xc8_float_word+3
  5469  0020CC  C1B8  F194         	movff	powf@__xc8_float_word,powf@is
  5470  0020D0  C1B9  F195         	movff	powf@__xc8_float_word+1,powf@is+1
  5471  0020D4  C1BA  F196         	movff	powf@__xc8_float_word+2,powf@is+2
  5472  0020D8  C1BB  F197         	movff	powf@__xc8_float_word+3,powf@is+3
  5473  0020DC  0E00               	movlw	0
  5474  0020DE  0101               	movlb	1	; () banked
  5475  0020E0  1594               	andwf	powf@is& (0+255),w,b
  5476  0020E2  6FB8               	movwf	powf@__xc8_float_word& (0+255),b
  5477  0020E4  0EF0               	movlw	240
  5478  0020E6  1595               	andwf	(powf@is+1)& (0+255),w,b
  5479  0020E8  6FB9               	movwf	(powf@__xc8_float_word+1)& (0+255),b
  5480  0020EA  0EFF               	movlw	255
  5481  0020EC  1596               	andwf	(powf@is+2)& (0+255),w,b
  5482  0020EE  6FBA               	movwf	(powf@__xc8_float_word+2)& (0+255),b
  5483  0020F0  0EFF               	movlw	255
  5484  0020F2  1597               	andwf	(powf@is+3)& (0+255),w,b
  5485  0020F4  6FBB               	movwf	(powf@__xc8_float_word+3)& (0+255),b
  5486  0020F6                     
  5487                           ; BSR set to: 1
  5488  0020F6  C1B8  F16C         	movff	powf@__xc8_float_word,powf@s_h
  5489  0020FA  C1B9  F16D         	movff	powf@__xc8_float_word+1,powf@s_h+1
  5490  0020FE  C1BA  F16E         	movff	powf@__xc8_float_word+2,powf@s_h+2
  5491  002102  C1BB  F16F         	movff	powf@__xc8_float_word+3,powf@s_h+3
  5492  002106                     
  5493                           ; BSR set to: 1
  5494  002106  C1A8  F0C3         	movff	powf@ix,??_powf
  5495  00210A  C1A9  F0C4         	movff	powf@ix+1,??_powf+1
  5496  00210E  C1AA  F0C5         	movff	powf@ix+2,??_powf+2
  5497  002112  C1AB  F0C6         	movff	powf@ix+3,??_powf+3
  5498  002116  0100               	movlb	0	; () banked
  5499  002118  35C6               	rlcf	(??_powf+3)& (0+255),w,b
  5500  00211A  33C6               	rrcf	(??_powf+3)& (0+255),f,b
  5501  00211C  33C5               	rrcf	(??_powf+2)& (0+255),f,b
  5502  00211E  33C4               	rrcf	(??_powf+1)& (0+255),f,b
  5503  002120  33C3               	rrcf	??_powf& (0+255),f,b
  5504  002122  0E00               	movlw	0
  5505  002124  15C3               	andwf	??_powf& (0+255),w,b
  5506  002126  6FC7               	movwf	(??_powf+4)& (0+255),b
  5507  002128  0EF0               	movlw	240
  5508  00212A  15C4               	andwf	(??_powf+1)& (0+255),w,b
  5509  00212C  6FC8               	movwf	(??_powf+5)& (0+255),b
  5510  00212E  0EFF               	movlw	255
  5511  002130  15C5               	andwf	(??_powf+2)& (0+255),w,b
  5512  002132  6FC9               	movwf	(??_powf+6)& (0+255),b
  5513  002134  0EFF               	movlw	255
  5514  002136  15C6               	andwf	(??_powf+3)& (0+255),w,b
  5515  002138  6FCA               	movwf	(??_powf+7)& (0+255),b
  5516  00213A  0E00               	movlw	0
  5517  00213C  11C7               	iorwf	(??_powf+4)& (0+255),w,b
  5518  00213E  0101               	movlb	1	; () banked
  5519  002140  6F94               	movwf	powf@is& (0+255),b
  5520  002142  0E00               	movlw	0
  5521  002144  0100               	movlb	0	; () banked
  5522  002146  11C8               	iorwf	(??_powf+5)& (0+255),w,b
  5523  002148  0101               	movlb	1	; () banked
  5524  00214A  6F95               	movwf	(powf@is+1)& (0+255),b
  5525  00214C  0E00               	movlw	0
  5526  00214E  0100               	movlb	0	; () banked
  5527  002150  11C9               	iorwf	(??_powf+6)& (0+255),w,b
  5528  002152  0101               	movlb	1	; () banked
  5529  002154  6F96               	movwf	(powf@is+2)& (0+255),b
  5530  002156  0E20               	movlw	32
  5531  002158  0100               	movlb	0	; () banked
  5532  00215A  11CA               	iorwf	(??_powf+7)& (0+255),w,b
  5533  00215C  0101               	movlb	1	; () banked
  5534  00215E  6F97               	movwf	(powf@is+3)& (0+255),b
  5535  002160                     
  5536                           ; BSR set to: 1
  5537  002160  C1A0  F0C3         	movff	powf@k,??_powf
  5538  002164  C1A1  F0C4         	movff	powf@k+1,??_powf+1
  5539  002168  C1A2  F0C5         	movff	powf@k+2,??_powf+2
  5540  00216C  C1A3  F0C6         	movff	powf@k+3,??_powf+3
  5541  002170  0E15               	movlw	21
  5542  002172                     u6115:
  5543  002172  90D8               	bcf	status,0,c
  5544  002174  0100               	movlb	0	; () banked
  5545  002176  37C3               	rlcf	??_powf& (0+255),f,b
  5546  002178  37C4               	rlcf	(??_powf+1)& (0+255),f,b
  5547  00217A  37C5               	rlcf	(??_powf+2)& (0+255),f,b
  5548  00217C  37C6               	rlcf	(??_powf+3)& (0+255),f,b
  5549  00217E  2EE8               	decfsz	wreg,f,c
  5550  002180  EFB9  F010         	goto	u6115
  5551  002184  0101               	movlb	1	; () banked
  5552  002186  5194               	movf	powf@is& (0+255),w,b
  5553  002188  0100               	movlb	0	; () banked
  5554  00218A  25C3               	addwf	??_powf& (0+255),w,b
  5555  00218C  6FC7               	movwf	(??_powf+4)& (0+255),b
  5556  00218E  0101               	movlb	1	; () banked
  5557  002190  5195               	movf	(powf@is+1)& (0+255),w,b
  5558  002192  0100               	movlb	0	; () banked
  5559  002194  21C4               	addwfc	(??_powf+1)& (0+255),w,b
  5560  002196  6FC8               	movwf	(??_powf+5)& (0+255),b
  5561  002198  0101               	movlb	1	; () banked
  5562  00219A  5196               	movf	(powf@is+2)& (0+255),w,b
  5563  00219C  0100               	movlb	0	; () banked
  5564  00219E  21C5               	addwfc	(??_powf+2)& (0+255),w,b
  5565  0021A0  6FC9               	movwf	(??_powf+6)& (0+255),b
  5566  0021A2  0101               	movlb	1	; () banked
  5567  0021A4  5197               	movf	(powf@is+3)& (0+255),w,b
  5568  0021A6  0100               	movlb	0	; () banked
  5569  0021A8  21C6               	addwfc	(??_powf+3)& (0+255),w,b
  5570  0021AA  6FCA               	movwf	(??_powf+7)& (0+255),b
  5571  0021AC  0E00               	movlw	0
  5572  0021AE  25C7               	addwf	(??_powf+4)& (0+255),w,b
  5573  0021B0  0101               	movlb	1	; () banked
  5574  0021B2  6FB8               	movwf	powf@__xc8_float_word& (0+255),b
  5575  0021B4  0E00               	movlw	0
  5576  0021B6  0100               	movlb	0	; () banked
  5577  0021B8  21C8               	addwfc	(??_powf+5)& (0+255),w,b
  5578  0021BA  0101               	movlb	1	; () banked
  5579  0021BC  6FB9               	movwf	(powf@__xc8_float_word+1)& (0+255),b
  5580  0021BE  0E40               	movlw	64
  5581  0021C0  0100               	movlb	0	; () banked
  5582  0021C2  21C9               	addwfc	(??_powf+6)& (0+255),w,b
  5583  0021C4  0101               	movlb	1	; () banked
  5584  0021C6  6FBA               	movwf	(powf@__xc8_float_word+2)& (0+255),b
  5585  0021C8  0E00               	movlw	0
  5586  0021CA  0100               	movlb	0	; () banked
  5587  0021CC  21CA               	addwfc	(??_powf+7)& (0+255),w,b
  5588  0021CE  0101               	movlb	1	; () banked
  5589  0021D0  6FBB               	movwf	(powf@__xc8_float_word+3)& (0+255),b
  5590  0021D2                     
  5591                           ; BSR set to: 1
  5592  0021D2  C1B8  F168         	movff	powf@__xc8_float_word,powf@t_h
  5593  0021D6  C1B9  F169         	movff	powf@__xc8_float_word+1,powf@t_h+1
  5594  0021DA  C1BA  F16A         	movff	powf@__xc8_float_word+2,powf@t_h+2
  5595  0021DE  C1BB  F16B         	movff	powf@__xc8_float_word+3,powf@t_h+3
  5596  0021E2                     
  5597                           ; BSR set to: 1
  5598  0021E2  C1A0  F0C3         	movff	powf@k,??_powf
  5599  0021E6  C1A1  F0C4         	movff	powf@k+1,??_powf+1
  5600  0021EA  0100               	movlb	0	; () banked
  5601  0021EC  90D8               	bcf	status,0,c
  5602  0021EE  37C3               	rlcf	??_powf& (0+255),f,b
  5603  0021F0  37C4               	rlcf	(??_powf+1)& (0+255),f,b
  5604  0021F2  90D8               	bcf	status,0,c
  5605  0021F4  37C3               	rlcf	??_powf& (0+255),f,b
  5606  0021F6  37C4               	rlcf	(??_powf+1)& (0+255),f,b
  5607  0021F8  0E69               	movlw	low _bp
  5608  0021FA  25C3               	addwf	??_powf& (0+255),w,b
  5609  0021FC  6EF6               	movwf	tblptrl,c
  5610  0021FE  0E10               	movlw	high _bp
  5611  002200  21C4               	addwfc	(??_powf+1)& (0+255),w,b
  5612  002202  6EF7               	movwf	tblptrh,c
  5613  002204                     	if	1	;There are 3 active tblptr bytes
  5614  002204  6AF8               	clrf	tblptru,c
  5615  002206  0E00               	movlw	low (__mediumconst shr (0+16))
  5616  002208  22F8               	addwfc	tblptru,f,c
  5617  00220A                     	endif
  5618  00220A  0009               	tblrd		*+
  5619  00220C  CFF5 F07A          	movff	tablat,___flsub@a
  5620  002210  0009               	tblrd		*+
  5621  002212  CFF5 F07B          	movff	tablat,___flsub@a+1
  5622  002216  0009               	tblrd		*+
  5623  002218  CFF5 F07C          	movff	tablat,___flsub@a+2
  5624  00221C  000A               	tblrd		*-
  5625  00221E  CFF5 F07D          	movff	tablat,___flsub@a+3
  5626  002222  C168  F076         	movff	powf@t_h,___flsub@b
  5627  002226  C169  F077         	movff	powf@t_h+1,___flsub@b+1
  5628  00222A  C16A  F078         	movff	powf@t_h+2,___flsub@b+2
  5629  00222E  C16B  F079         	movff	powf@t_h+3,___flsub@b+3
  5630  002232  EC3F  F031         	call	___flsub	;wreg free
  5631  002236  C076  F198         	movff	?___flsub,_powf$1305
  5632  00223A  C077  F199         	movff	?___flsub+1,_powf$1305+1
  5633  00223E  C078  F19A         	movff	?___flsub+2,_powf$1305+2
  5634  002242  C079  F19B         	movff	?___flsub+3,_powf$1305+3
  5635  002246  C170  F076         	movff	powf@ax,___flsub@b
  5636  00224A  C171  F077         	movff	powf@ax+1,___flsub@b+1
  5637  00224E  C172  F078         	movff	powf@ax+2,___flsub@b+2
  5638  002252  C173  F079         	movff	powf@ax+3,___flsub@b+3
  5639  002256  C198  F07A         	movff	_powf$1305,___flsub@a
  5640  00225A  C199  F07B         	movff	_powf$1305+1,___flsub@a+1
  5641  00225E  C19A  F07C         	movff	_powf$1305+2,___flsub@a+2
  5642  002262  C19B  F07D         	movff	_powf$1305+3,___flsub@a+3
  5643  002266  EC3F  F031         	call	___flsub	;wreg free
  5644  00226A  C076  F134         	movff	?___flsub,powf@t_l
  5645  00226E  C077  F135         	movff	?___flsub+1,powf@t_l+1
  5646  002272  C078  F136         	movff	?___flsub+2,powf@t_l+2
  5647  002276  C079  F137         	movff	?___flsub+3,powf@t_l+3
  5648  00227A  C168  F019         	movff	powf@t_h,___flmul@a
  5649  00227E  C169  F01A         	movff	powf@t_h+1,___flmul@a+1
  5650  002282  C16A  F01B         	movff	powf@t_h+2,___flmul@a+2
  5651  002286  C16B  F01C         	movff	powf@t_h+3,___flmul@a+3
  5652  00228A  C16C  F015         	movff	powf@s_h,___flmul@b
  5653  00228E  C16D  F016         	movff	powf@s_h+1,___flmul@b+1
  5654  002292  C16E  F017         	movff	powf@s_h+2,___flmul@b+2
  5655  002296  C16F  F018         	movff	powf@s_h+3,___flmul@b+3
  5656  00229A  EC20  F025         	call	___flmul	;wreg free
  5657  00229E  C015  F07A         	movff	?___flmul,___flsub@a
  5658  0022A2  C016  F07B         	movff	?___flmul+1,___flsub@a+1
  5659  0022A6  C017  F07C         	movff	?___flmul+2,___flsub@a+2
  5660  0022AA  C018  F07D         	movff	?___flmul+3,___flsub@a+3
  5661  0022AE  C174  F076         	movff	powf@u,___flsub@b
  5662  0022B2  C175  F077         	movff	powf@u+1,___flsub@b+1
  5663  0022B6  C176  F078         	movff	powf@u+2,___flsub@b+2
  5664  0022BA  C177  F079         	movff	powf@u+3,___flsub@b+3
  5665  0022BE  EC3F  F031         	call	___flsub	;wreg free
  5666  0022C2  C076  F198         	movff	?___flsub,_powf$1305
  5667  0022C6  C077  F199         	movff	?___flsub+1,_powf$1305+1
  5668  0022CA  C078  F19A         	movff	?___flsub+2,_powf$1305+2
  5669  0022CE  C079  F19B         	movff	?___flsub+3,_powf$1305+3
  5670  0022D2  C134  F019         	movff	powf@t_l,___flmul@a
  5671  0022D6  C135  F01A         	movff	powf@t_l+1,___flmul@a+1
  5672  0022DA  C136  F01B         	movff	powf@t_l+2,___flmul@a+2
  5673  0022DE  C137  F01C         	movff	powf@t_l+3,___flmul@a+3
  5674  0022E2  C16C  F015         	movff	powf@s_h,___flmul@b
  5675  0022E6  C16D  F016         	movff	powf@s_h+1,___flmul@b+1
  5676  0022EA  C16E  F017         	movff	powf@s_h+2,___flmul@b+2
  5677  0022EE  C16F  F018         	movff	powf@s_h+3,___flmul@b+3
  5678  0022F2  EC20  F025         	call	___flmul	;wreg free
  5679  0022F6  C015  F07A         	movff	?___flmul,___flsub@a
  5680  0022FA  C016  F07B         	movff	?___flmul+1,___flsub@a+1
  5681  0022FE  C017  F07C         	movff	?___flmul+2,___flsub@a+2
  5682  002302  C018  F07D         	movff	?___flmul+3,___flsub@a+3
  5683  002306  C198  F076         	movff	_powf$1305,___flsub@b
  5684  00230A  C199  F077         	movff	_powf$1305+1,___flsub@b+1
  5685  00230E  C19A  F078         	movff	_powf$1305+2,___flsub@b+2
  5686  002312  C19B  F079         	movff	_powf$1305+3,___flsub@b+3
  5687  002316  EC3F  F031         	call	___flsub	;wreg free
  5688  00231A  C076  F154         	movff	?___flsub,_powf$1303
  5689  00231E  C077  F155         	movff	?___flsub+1,_powf$1303+1
  5690  002322  C078  F156         	movff	?___flsub+2,_powf$1303+2
  5691  002326  C079  F157         	movff	?___flsub+3,_powf$1303+3
  5692  00232A  C154  F015         	movff	_powf$1303,___flmul@b
  5693  00232E  C155  F016         	movff	_powf$1303+1,___flmul@b+1
  5694  002332  C156  F017         	movff	_powf$1303+2,___flmul@b+2
  5695  002336  C157  F018         	movff	_powf$1303+3,___flmul@b+3
  5696  00233A  C178  F019         	movff	powf@v,___flmul@a
  5697  00233E  C179  F01A         	movff	powf@v+1,___flmul@a+1
  5698  002342  C17A  F01B         	movff	powf@v+2,___flmul@a+2
  5699  002346  C17B  F01C         	movff	powf@v+3,___flmul@a+3
  5700  00234A  EC20  F025         	call	___flmul	;wreg free
  5701  00234E  C015  F130         	movff	?___flmul,powf@s_l
  5702  002352  C016  F131         	movff	?___flmul+1,powf@s_l+1
  5703  002356  C017  F132         	movff	?___flmul+2,powf@s_l+2
  5704  00235A  C018  F133         	movff	?___flmul+3,powf@s_l+3
  5705  00235E  C15C  F015         	movff	powf@s,___flmul@b
  5706  002362  C15D  F016         	movff	powf@s+1,___flmul@b+1
  5707  002366  C15E  F017         	movff	powf@s+2,___flmul@b+2
  5708  00236A  C15F  F018         	movff	powf@s+3,___flmul@b+3
  5709  00236E  C15C  F019         	movff	powf@s,___flmul@a
  5710  002372  C15D  F01A         	movff	powf@s+1,___flmul@a+1
  5711  002376  C15E  F01B         	movff	powf@s+2,___flmul@a+2
  5712  00237A  C15F  F01C         	movff	powf@s+3,___flmul@a+3
  5713  00237E  EC20  F025         	call	___flmul	;wreg free
  5714  002382  C015  F18C         	movff	?___flmul,powf@s2
  5715  002386  C016  F18D         	movff	?___flmul+1,powf@s2+1
  5716  00238A  C017  F18E         	movff	?___flmul+2,powf@s2+2
  5717  00238E  C018  F18F         	movff	?___flmul+3,powf@s2+3
  5718  002392  0E55               	movlw	85
  5719  002394  0100               	movlb	0	; () banked
  5720  002396  6F6A               	movwf	___fladd@a& (0+255),b
  5721  002398  0E32               	movlw	50
  5722  00239A  6F6B               	movwf	(___fladd@a+1)& (0+255),b
  5723  00239C  0E6C               	movlw	108
  5724  00239E  6F6C               	movwf	(___fladd@a+2)& (0+255),b
  5725  0023A0  0E3E               	movlw	62
  5726  0023A2  6F6D               	movwf	(___fladd@a+3)& (0+255),b
  5727  0023A4  0E42               	movlw	66
  5728  0023A6  6E19               	movwf	___flmul@a^0,c
  5729  0023A8  0EF1               	movlw	241
  5730  0023AA  6E1A               	movwf	(___flmul@a+1)^0,c
  5731  0023AC  0E53               	movlw	83
  5732  0023AE  6E1B               	movwf	(___flmul@a+2)^0,c
  5733  0023B0  0E3E               	movlw	62
  5734  0023B2  6E1C               	movwf	(___flmul@a+3)^0,c
  5735  0023B4  C18C  F015         	movff	powf@s2,___flmul@b
  5736  0023B8  C18D  F016         	movff	powf@s2+1,___flmul@b+1
  5737  0023BC  C18E  F017         	movff	powf@s2+2,___flmul@b+2
  5738  0023C0  C18F  F018         	movff	powf@s2+3,___flmul@b+3
  5739  0023C4  EC20  F025         	call	___flmul	;wreg free
  5740  0023C8  C015  F066         	movff	?___flmul,___fladd@b
  5741  0023CC  C016  F067         	movff	?___flmul+1,___fladd@b+1
  5742  0023D0  C017  F068         	movff	?___flmul+2,___fladd@b+2
  5743  0023D4  C018  F069         	movff	?___flmul+3,___fladd@b+3
  5744  0023D8  EC61  F020         	call	___fladd	;wreg free
  5745  0023DC  C066  F1A4         	movff	?___fladd,_powf$1302
  5746  0023E0  C067  F1A5         	movff	?___fladd+1,_powf$1302+1
  5747  0023E4  C068  F1A6         	movff	?___fladd+2,_powf$1302+2
  5748  0023E8  C069  F1A7         	movff	?___fladd+3,_powf$1302+3
  5749  0023EC  0E05               	movlw	5
  5750  0023EE  0100               	movlb	0	; () banked
  5751  0023F0  6F6A               	movwf	___fladd@a& (0+255),b
  5752  0023F2  0EA3               	movlw	163
  5753  0023F4  6F6B               	movwf	(___fladd@a+1)& (0+255),b
  5754  0023F6  0E8B               	movlw	139
  5755  0023F8  6F6C               	movwf	(___fladd@a+2)& (0+255),b
  5756  0023FA  0E3E               	movlw	62
  5757  0023FC  6F6D               	movwf	(___fladd@a+3)& (0+255),b
  5758  0023FE  C18C  F019         	movff	powf@s2,___flmul@a
  5759  002402  C18D  F01A         	movff	powf@s2+1,___flmul@a+1
  5760  002406  C18E  F01B         	movff	powf@s2+2,___flmul@a+2
  5761  00240A  C18F  F01C         	movff	powf@s2+3,___flmul@a+3
  5762  00240E  C1A4  F015         	movff	_powf$1302,___flmul@b
  5763  002412  C1A5  F016         	movff	_powf$1302+1,___flmul@b+1
  5764  002416  C1A6  F017         	movff	_powf$1302+2,___flmul@b+2
  5765  00241A  C1A7  F018         	movff	_powf$1302+3,___flmul@b+3
  5766  00241E  EC20  F025         	call	___flmul	;wreg free
  5767  002422  C015  F066         	movff	?___flmul,___fladd@b
  5768  002426  C016  F067         	movff	?___flmul+1,___fladd@b+1
  5769  00242A  C017  F068         	movff	?___flmul+2,___fladd@b+2
  5770  00242E  C018  F069         	movff	?___flmul+3,___fladd@b+3
  5771  002432  EC61  F020         	call	___fladd	;wreg free
  5772  002436  C066  F154         	movff	?___fladd,_powf$1303
  5773  00243A  C067  F155         	movff	?___fladd+1,_powf$1303+1
  5774  00243E  C068  F156         	movff	?___fladd+2,_powf$1303+2
  5775  002442  C069  F157         	movff	?___fladd+3,_powf$1303+3
  5776  002446  0EAB               	movlw	171
  5777  002448  0100               	movlb	0	; () banked
  5778  00244A  6F6A               	movwf	___fladd@a& (0+255),b
  5779  00244C  0EAA               	movlw	170
  5780  00244E  6F6B               	movwf	(___fladd@a+1)& (0+255),b
  5781  002450  0EAA               	movlw	170
  5782  002452  6F6C               	movwf	(___fladd@a+2)& (0+255),b
  5783  002454  0E3E               	movlw	62
  5784  002456  6F6D               	movwf	(___fladd@a+3)& (0+255),b
  5785  002458  C18C  F019         	movff	powf@s2,___flmul@a
  5786  00245C  C18D  F01A         	movff	powf@s2+1,___flmul@a+1
  5787  002460  C18E  F01B         	movff	powf@s2+2,___flmul@a+2
  5788  002464  C18F  F01C         	movff	powf@s2+3,___flmul@a+3
  5789  002468  C154  F015         	movff	_powf$1303,___flmul@b
  5790  00246C  C155  F016         	movff	_powf$1303+1,___flmul@b+1
  5791  002470  C156  F017         	movff	_powf$1303+2,___flmul@b+2
  5792  002474  C157  F018         	movff	_powf$1303+3,___flmul@b+3
  5793  002478  EC20  F025         	call	___flmul	;wreg free
  5794  00247C  C015  F066         	movff	?___flmul,___fladd@b
  5795  002480  C016  F067         	movff	?___flmul+1,___fladd@b+1
  5796  002484  C017  F068         	movff	?___flmul+2,___fladd@b+2
  5797  002488  C018  F069         	movff	?___flmul+3,___fladd@b+3
  5798  00248C  EC61  F020         	call	___fladd	;wreg free
  5799  002490  C066  F148         	movff	?___fladd,_powf$1304
  5800  002494  C067  F149         	movff	?___fladd+1,_powf$1304+1
  5801  002498  C068  F14A         	movff	?___fladd+2,_powf$1304+2
  5802  00249C  C069  F14B         	movff	?___fladd+3,_powf$1304+3
  5803  0024A0  0EB7               	movlw	183
  5804  0024A2  0100               	movlb	0	; () banked
  5805  0024A4  6F6A               	movwf	___fladd@a& (0+255),b
  5806  0024A6  0E6D               	movlw	109
  5807  0024A8  6F6B               	movwf	(___fladd@a+1)& (0+255),b
  5808  0024AA  0EDB               	movlw	219
  5809  0024AC  6F6C               	movwf	(___fladd@a+2)& (0+255),b
  5810  0024AE  0E3E               	movlw	62
  5811  0024B0  6F6D               	movwf	(___fladd@a+3)& (0+255),b
  5812  0024B2  C18C  F019         	movff	powf@s2,___flmul@a
  5813  0024B6  C18D  F01A         	movff	powf@s2+1,___flmul@a+1
  5814  0024BA  C18E  F01B         	movff	powf@s2+2,___flmul@a+2
  5815  0024BE  C18F  F01C         	movff	powf@s2+3,___flmul@a+3
  5816  0024C2  C148  F015         	movff	_powf$1304,___flmul@b
  5817  0024C6  C149  F016         	movff	_powf$1304+1,___flmul@b+1
  5818  0024CA  C14A  F017         	movff	_powf$1304+2,___flmul@b+2
  5819  0024CE  C14B  F018         	movff	_powf$1304+3,___flmul@b+3
  5820  0024D2  EC20  F025         	call	___flmul	;wreg free
  5821  0024D6  C015  F066         	movff	?___flmul,___fladd@b
  5822  0024DA  C016  F067         	movff	?___flmul+1,___fladd@b+1
  5823  0024DE  C017  F068         	movff	?___flmul+2,___fladd@b+2
  5824  0024E2  C018  F069         	movff	?___flmul+3,___fladd@b+3
  5825  0024E6  EC61  F020         	call	___fladd	;wreg free
  5826  0024EA  C066  F138         	movff	?___fladd,_powf$1306
  5827  0024EE  C067  F139         	movff	?___fladd+1,_powf$1306+1
  5828  0024F2  C068  F13A         	movff	?___fladd+2,_powf$1306+2
  5829  0024F6  C069  F13B         	movff	?___fladd+3,_powf$1306+3
  5830  0024FA  0E9A               	movlw	154
  5831  0024FC  0100               	movlb	0	; () banked
  5832  0024FE  6F6A               	movwf	___fladd@a& (0+255),b
  5833  002500  0E99               	movlw	153
  5834  002502  6F6B               	movwf	(___fladd@a+1)& (0+255),b
  5835  002504  0E19               	movlw	25
  5836  002506  6F6C               	movwf	(___fladd@a+2)& (0+255),b
  5837  002508  0E3F               	movlw	63
  5838  00250A  6F6D               	movwf	(___fladd@a+3)& (0+255),b
  5839  00250C  C18C  F019         	movff	powf@s2,___flmul@a
  5840  002510  C18D  F01A         	movff	powf@s2+1,___flmul@a+1
  5841  002514  C18E  F01B         	movff	powf@s2+2,___flmul@a+2
  5842  002518  C18F  F01C         	movff	powf@s2+3,___flmul@a+3
  5843  00251C  C138  F015         	movff	_powf$1306,___flmul@b
  5844  002520  C139  F016         	movff	_powf$1306+1,___flmul@b+1
  5845  002524  C13A  F017         	movff	_powf$1306+2,___flmul@b+2
  5846  002528  C13B  F018         	movff	_powf$1306+3,___flmul@b+3
  5847  00252C  EC20  F025         	call	___flmul	;wreg free
  5848  002530  C015  F066         	movff	?___flmul,___fladd@b
  5849  002534  C016  F067         	movff	?___flmul+1,___fladd@b+1
  5850  002538  C017  F068         	movff	?___flmul+2,___fladd@b+2
  5851  00253C  C018  F069         	movff	?___flmul+3,___fladd@b+3
  5852  002540  EC61  F020         	call	___fladd	;wreg free
  5853  002544  C066  F100         	movff	?___fladd,_powf$1307
  5854  002548  C067  F101         	movff	?___fladd+1,_powf$1307+1
  5855  00254C  C068  F102         	movff	?___fladd+2,_powf$1307+2
  5856  002550  C069  F103         	movff	?___fladd+3,_powf$1307+3
  5857  002554  C18C  F019         	movff	powf@s2,___flmul@a
  5858  002558  C18D  F01A         	movff	powf@s2+1,___flmul@a+1
  5859  00255C  C18E  F01B         	movff	powf@s2+2,___flmul@a+2
  5860  002560  C18F  F01C         	movff	powf@s2+3,___flmul@a+3
  5861  002564  C18C  F015         	movff	powf@s2,___flmul@b
  5862  002568  C18D  F016         	movff	powf@s2+1,___flmul@b+1
  5863  00256C  C18E  F017         	movff	powf@s2+2,___flmul@b+2
  5864  002570  C18F  F018         	movff	powf@s2+3,___flmul@b+3
  5865  002574  EC20  F025         	call	___flmul	;wreg free
  5866  002578  C015  F104         	movff	?___flmul,_powf$1308
  5867  00257C  C016  F105         	movff	?___flmul+1,_powf$1308+1
  5868  002580  C017  F106         	movff	?___flmul+2,_powf$1308+2
  5869  002584  C018  F107         	movff	?___flmul+3,_powf$1308+3
  5870  002588  C100  F015         	movff	_powf$1307,___flmul@b
  5871  00258C  C101  F016         	movff	_powf$1307+1,___flmul@b+1
  5872  002590  C102  F017         	movff	_powf$1307+2,___flmul@b+2
  5873  002594  C103  F018         	movff	_powf$1307+3,___flmul@b+3
  5874  002598  C104  F019         	movff	_powf$1308,___flmul@a
  5875  00259C  C105  F01A         	movff	_powf$1308+1,___flmul@a+1
  5876  0025A0  C106  F01B         	movff	_powf$1308+2,___flmul@a+2
  5877  0025A4  C107  F01C         	movff	_powf$1308+3,___flmul@a+3
  5878  0025A8  EC20  F025         	call	___flmul	;wreg free
  5879  0025AC  C015  F14C         	movff	?___flmul,powf@r
  5880  0025B0  C016  F14D         	movff	?___flmul+1,powf@r+1
  5881  0025B4  C017  F14E         	movff	?___flmul+2,powf@r+2
  5882  0025B8  C018  F14F         	movff	?___flmul+3,powf@r+3
  5883  0025BC  C130  F019         	movff	powf@s_l,___flmul@a
  5884  0025C0  C131  F01A         	movff	powf@s_l+1,___flmul@a+1
  5885  0025C4  C132  F01B         	movff	powf@s_l+2,___flmul@a+2
  5886  0025C8  C133  F01C         	movff	powf@s_l+3,___flmul@a+3
  5887  0025CC  C15C  F06A         	movff	powf@s,___fladd@a
  5888  0025D0  C15D  F06B         	movff	powf@s+1,___fladd@a+1
  5889  0025D4  C15E  F06C         	movff	powf@s+2,___fladd@a+2
  5890  0025D8  C15F  F06D         	movff	powf@s+3,___fladd@a+3
  5891  0025DC  C16C  F066         	movff	powf@s_h,___fladd@b
  5892  0025E0  C16D  F067         	movff	powf@s_h+1,___fladd@b+1
  5893  0025E4  C16E  F068         	movff	powf@s_h+2,___fladd@b+2
  5894  0025E8  C16F  F069         	movff	powf@s_h+3,___fladd@b+3
  5895  0025EC  EC61  F020         	call	___fladd	;wreg free
  5896  0025F0  C066  F015         	movff	?___fladd,___flmul@b
  5897  0025F4  C067  F016         	movff	?___fladd+1,___flmul@b+1
  5898  0025F8  C068  F017         	movff	?___fladd+2,___flmul@b+2
  5899  0025FC  C069  F018         	movff	?___fladd+3,___flmul@b+3
  5900  002600  EC20  F025         	call	___flmul	;wreg free
  5901  002604  C015  F158         	movff	?___flmul,_powf$1309
  5902  002608  C016  F159         	movff	?___flmul+1,_powf$1309+1
  5903  00260C  C017  F15A         	movff	?___flmul+2,_powf$1309+2
  5904  002610  C018  F15B         	movff	?___flmul+3,_powf$1309+3
  5905  002614  C14C  F066         	movff	powf@r,___fladd@b
  5906  002618  C14D  F067         	movff	powf@r+1,___fladd@b+1
  5907  00261C  C14E  F068         	movff	powf@r+2,___fladd@b+2
  5908  002620  C14F  F069         	movff	powf@r+3,___fladd@b+3
  5909  002624  C158  F06A         	movff	_powf$1309,___fladd@a
  5910  002628  C159  F06B         	movff	_powf$1309+1,___fladd@a+1
  5911  00262C  C15A  F06C         	movff	_powf$1309+2,___fladd@a+2
  5912  002630  C15B  F06D         	movff	_powf$1309+3,___fladd@a+3
  5913  002634  EC61  F020         	call	___fladd	;wreg free
  5914  002638  C066  F14C         	movff	?___fladd,powf@r
  5915  00263C  C067  F14D         	movff	?___fladd+1,powf@r+1
  5916  002640  C068  F14E         	movff	?___fladd+2,powf@r+2
  5917  002644  C069  F14F         	movff	?___fladd+3,powf@r+3
  5918  002648  C16C  F015         	movff	powf@s_h,___flmul@b
  5919  00264C  C16D  F016         	movff	powf@s_h+1,___flmul@b+1
  5920  002650  C16E  F017         	movff	powf@s_h+2,___flmul@b+2
  5921  002654  C16F  F018         	movff	powf@s_h+3,___flmul@b+3
  5922  002658  C16C  F019         	movff	powf@s_h,___flmul@a
  5923  00265C  C16D  F01A         	movff	powf@s_h+1,___flmul@a+1
  5924  002660  C16E  F01B         	movff	powf@s_h+2,___flmul@a+2
  5925  002664  C16F  F01C         	movff	powf@s_h+3,___flmul@a+3
  5926  002668  EC20  F025         	call	___flmul	;wreg free
  5927  00266C  C015  F18C         	movff	?___flmul,powf@s2
  5928  002670  C016  F18D         	movff	?___flmul+1,powf@s2+1
  5929  002674  C017  F18E         	movff	?___flmul+2,powf@s2+2
  5930  002678  C018  F18F         	movff	?___flmul+3,powf@s2+3
  5931  00267C  0E00               	movlw	0
  5932  00267E  0100               	movlb	0	; () banked
  5933  002680  6F6A               	movwf	___fladd@a& (0+255),b
  5934  002682  0E00               	movlw	0
  5935  002684  6F6B               	movwf	(___fladd@a+1)& (0+255),b
  5936  002686  0E40               	movlw	64
  5937  002688  6F6C               	movwf	(___fladd@a+2)& (0+255),b
  5938  00268A  0E40               	movlw	64
  5939  00268C  6F6D               	movwf	(___fladd@a+3)& (0+255),b
  5940  00268E  C18C  F066         	movff	powf@s2,___fladd@b
  5941  002692  C18D  F067         	movff	powf@s2+1,___fladd@b+1
  5942  002696  C18E  F068         	movff	powf@s2+2,___fladd@b+2
  5943  00269A  C18F  F069         	movff	powf@s2+3,___fladd@b+3
  5944  00269E  EC61  F020         	call	___fladd	;wreg free
  5945  0026A2  C066  F158         	movff	?___fladd,_powf$1309
  5946  0026A6  C067  F159         	movff	?___fladd+1,_powf$1309+1
  5947  0026AA  C068  F15A         	movff	?___fladd+2,_powf$1309+2
  5948  0026AE  C069  F15B         	movff	?___fladd+3,_powf$1309+3
  5949  0026B2  C158  F066         	movff	_powf$1309,___fladd@b
  5950  0026B6  C159  F067         	movff	_powf$1309+1,___fladd@b+1
  5951  0026BA  C15A  F068         	movff	_powf$1309+2,___fladd@b+2
  5952  0026BE  C15B  F069         	movff	_powf$1309+3,___fladd@b+3
  5953  0026C2  C14C  F06A         	movff	powf@r,___fladd@a
  5954  0026C6  C14D  F06B         	movff	powf@r+1,___fladd@a+1
  5955  0026CA  C14E  F06C         	movff	powf@r+2,___fladd@a+2
  5956  0026CE  C14F  F06D         	movff	powf@r+3,___fladd@a+3
  5957  0026D2  EC61  F020         	call	___fladd	;wreg free
  5958  0026D6  C066  F168         	movff	?___fladd,powf@t_h
  5959  0026DA  C067  F169         	movff	?___fladd+1,powf@t_h+1
  5960  0026DE  C068  F16A         	movff	?___fladd+2,powf@t_h+2
  5961  0026E2  C069  F16B         	movff	?___fladd+3,powf@t_h+3
  5962  0026E6  C168  F1B8         	movff	powf@t_h,powf@__xc8_float_word
  5963  0026EA  C169  F1B9         	movff	powf@t_h+1,powf@__xc8_float_word+1
  5964  0026EE  C16A  F1BA         	movff	powf@t_h+2,powf@__xc8_float_word+2
  5965  0026F2  C16B  F1BB         	movff	powf@t_h+3,powf@__xc8_float_word+3
  5966  0026F6  C1B8  F194         	movff	powf@__xc8_float_word,powf@is
  5967  0026FA  C1B9  F195         	movff	powf@__xc8_float_word+1,powf@is+1
  5968  0026FE  C1BA  F196         	movff	powf@__xc8_float_word+2,powf@is+2
  5969  002702  C1BB  F197         	movff	powf@__xc8_float_word+3,powf@is+3
  5970  002706  0E00               	movlw	0
  5971  002708  0101               	movlb	1	; () banked
  5972  00270A  1594               	andwf	powf@is& (0+255),w,b
  5973  00270C  6FB8               	movwf	powf@__xc8_float_word& (0+255),b
  5974  00270E  0EF0               	movlw	240
  5975  002710  1595               	andwf	(powf@is+1)& (0+255),w,b
  5976  002712  6FB9               	movwf	(powf@__xc8_float_word+1)& (0+255),b
  5977  002714  0EFF               	movlw	255
  5978  002716  1596               	andwf	(powf@is+2)& (0+255),w,b
  5979  002718  6FBA               	movwf	(powf@__xc8_float_word+2)& (0+255),b
  5980  00271A  0EFF               	movlw	255
  5981  00271C  1597               	andwf	(powf@is+3)& (0+255),w,b
  5982  00271E  6FBB               	movwf	(powf@__xc8_float_word+3)& (0+255),b
  5983  002720                     
  5984                           ; BSR set to: 1
  5985  002720  C1B8  F168         	movff	powf@__xc8_float_word,powf@t_h
  5986  002724  C1B9  F169         	movff	powf@__xc8_float_word+1,powf@t_h+1
  5987  002728  C1BA  F16A         	movff	powf@__xc8_float_word+2,powf@t_h+2
  5988  00272C  C1BB  F16B         	movff	powf@__xc8_float_word+3,powf@t_h+3
  5989  002730                     
  5990                           ; BSR set to: 1
  5991  002730  0E00               	movlw	0
  5992  002732  0100               	movlb	0	; () banked
  5993  002734  6F6A               	movwf	___fladd@a& (0+255),b
  5994  002736  0E00               	movlw	0
  5995  002738  6F6B               	movwf	(___fladd@a+1)& (0+255),b
  5996  00273A  0E40               	movlw	64
  5997  00273C  6F6C               	movwf	(___fladd@a+2)& (0+255),b
  5998  00273E  0EC0               	movlw	192
  5999  002740  6F6D               	movwf	(___fladd@a+3)& (0+255),b
  6000  002742  C168  F066         	movff	powf@t_h,___fladd@b
  6001  002746  C169  F067         	movff	powf@t_h+1,___fladd@b+1
  6002  00274A  C16A  F068         	movff	powf@t_h+2,___fladd@b+2
  6003  00274E  C16B  F069         	movff	powf@t_h+3,___fladd@b+3
  6004  002752  EC61  F020         	call	___fladd	;wreg free
  6005  002756  C066  F13C         	movff	?___fladd,_powf$1310
  6006  00275A  C067  F13D         	movff	?___fladd+1,_powf$1310+1
  6007  00275E  C068  F13E         	movff	?___fladd+2,_powf$1310+2
  6008  002762  C069  F13F         	movff	?___fladd+3,_powf$1310+3
  6009  002766  C18C  F07A         	movff	powf@s2,___flsub@a
  6010  00276A  C18D  F07B         	movff	powf@s2+1,___flsub@a+1
  6011  00276E  C18E  F07C         	movff	powf@s2+2,___flsub@a+2
  6012  002772  C18F  F07D         	movff	powf@s2+3,___flsub@a+3
  6013  002776  C13C  F076         	movff	_powf$1310,___flsub@b
  6014  00277A  C13D  F077         	movff	_powf$1310+1,___flsub@b+1
  6015  00277E  C13E  F078         	movff	_powf$1310+2,___flsub@b+2
  6016  002782  C13F  F079         	movff	_powf$1310+3,___flsub@b+3
  6017  002786  EC3F  F031         	call	___flsub	;wreg free
  6018  00278A  C076  F140         	movff	?___flsub,_powf$1311
  6019  00278E  C077  F141         	movff	?___flsub+1,_powf$1311+1
  6020  002792  C078  F142         	movff	?___flsub+2,_powf$1311+2
  6021  002796  C079  F143         	movff	?___flsub+3,_powf$1311+3
  6022  00279A  C14C  F076         	movff	powf@r,___flsub@b
  6023  00279E  C14D  F077         	movff	powf@r+1,___flsub@b+1
  6024  0027A2  C14E  F078         	movff	powf@r+2,___flsub@b+2
  6025  0027A6  C14F  F079         	movff	powf@r+3,___flsub@b+3
  6026  0027AA  C140  F07A         	movff	_powf$1311,___flsub@a
  6027  0027AE  C141  F07B         	movff	_powf$1311+1,___flsub@a+1
  6028  0027B2  C142  F07C         	movff	_powf$1311+2,___flsub@a+2
  6029  0027B6  C143  F07D         	movff	_powf$1311+3,___flsub@a+3
  6030  0027BA  EC3F  F031         	call	___flsub	;wreg free
  6031  0027BE  C076  F134         	movff	?___flsub,powf@t_l
  6032  0027C2  C077  F135         	movff	?___flsub+1,powf@t_l+1
  6033  0027C6  C078  F136         	movff	?___flsub+2,powf@t_l+2
  6034  0027CA  C079  F137         	movff	?___flsub+3,powf@t_l+3
  6035  0027CE  C16C  F015         	movff	powf@s_h,___flmul@b
  6036  0027D2  C16D  F016         	movff	powf@s_h+1,___flmul@b+1
  6037  0027D6  C16E  F017         	movff	powf@s_h+2,___flmul@b+2
  6038  0027DA  C16F  F018         	movff	powf@s_h+3,___flmul@b+3
  6039  0027DE  C168  F019         	movff	powf@t_h,___flmul@a
  6040  0027E2  C169  F01A         	movff	powf@t_h+1,___flmul@a+1
  6041  0027E6  C16A  F01B         	movff	powf@t_h+2,___flmul@a+2
  6042  0027EA  C16B  F01C         	movff	powf@t_h+3,___flmul@a+3
  6043  0027EE  EC20  F025         	call	___flmul	;wreg free
  6044  0027F2  C015  F174         	movff	?___flmul,powf@u
  6045  0027F6  C016  F175         	movff	?___flmul+1,powf@u+1
  6046  0027FA  C017  F176         	movff	?___flmul+2,powf@u+2
  6047  0027FE  C018  F177         	movff	?___flmul+3,powf@u+3
  6048  002802  C168  F019         	movff	powf@t_h,___flmul@a
  6049  002806  C169  F01A         	movff	powf@t_h+1,___flmul@a+1
  6050  00280A  C16A  F01B         	movff	powf@t_h+2,___flmul@a+2
  6051  00280E  C16B  F01C         	movff	powf@t_h+3,___flmul@a+3
  6052  002812  C130  F015         	movff	powf@s_l,___flmul@b
  6053  002816  C131  F016         	movff	powf@s_l+1,___flmul@b+1
  6054  00281A  C132  F017         	movff	powf@s_l+2,___flmul@b+2
  6055  00281E  C133  F018         	movff	powf@s_l+3,___flmul@b+3
  6056  002822  EC20  F025         	call	___flmul	;wreg free
  6057  002826  C015  F066         	movff	?___flmul,___fladd@b
  6058  00282A  C016  F067         	movff	?___flmul+1,___fladd@b+1
  6059  00282E  C017  F068         	movff	?___flmul+2,___fladd@b+2
  6060  002832  C018  F069         	movff	?___flmul+3,___fladd@b+3
  6061  002836  C15C  F019         	movff	powf@s,___flmul@a
  6062  00283A  C15D  F01A         	movff	powf@s+1,___flmul@a+1
  6063  00283E  C15E  F01B         	movff	powf@s+2,___flmul@a+2
  6064  002842  C15F  F01C         	movff	powf@s+3,___flmul@a+3
  6065  002846  C134  F015         	movff	powf@t_l,___flmul@b
  6066  00284A  C135  F016         	movff	powf@t_l+1,___flmul@b+1
  6067  00284E  C136  F017         	movff	powf@t_l+2,___flmul@b+2
  6068  002852  C137  F018         	movff	powf@t_l+3,___flmul@b+3
  6069  002856  EC20  F025         	call	___flmul	;wreg free
  6070  00285A  C015  F06A         	movff	?___flmul,___fladd@a
  6071  00285E  C016  F06B         	movff	?___flmul+1,___fladd@a+1
  6072  002862  C017  F06C         	movff	?___flmul+2,___fladd@a+2
  6073  002866  C018  F06D         	movff	?___flmul+3,___fladd@a+3
  6074  00286A  EC61  F020         	call	___fladd	;wreg free
  6075  00286E  C066  F178         	movff	?___fladd,powf@v
  6076  002872  C067  F179         	movff	?___fladd+1,powf@v+1
  6077  002876  C068  F17A         	movff	?___fladd+2,powf@v+2
  6078  00287A  C069  F17B         	movff	?___fladd+3,powf@v+3
  6079  00287E  C174  F066         	movff	powf@u,___fladd@b
  6080  002882  C175  F067         	movff	powf@u+1,___fladd@b+1
  6081  002886  C176  F068         	movff	powf@u+2,___fladd@b+2
  6082  00288A  C177  F069         	movff	powf@u+3,___fladd@b+3
  6083  00288E  C178  F06A         	movff	powf@v,___fladd@a
  6084  002892  C179  F06B         	movff	powf@v+1,___fladd@a+1
  6085  002896  C17A  F06C         	movff	powf@v+2,___fladd@a+2
  6086  00289A  C17B  F06D         	movff	powf@v+3,___fladd@a+3
  6087  00289E  EC61  F020         	call	___fladd	;wreg free
  6088  0028A2  C066  F19C         	movff	?___fladd,powf@p_h
  6089  0028A6  C067  F19D         	movff	?___fladd+1,powf@p_h+1
  6090  0028AA  C068  F19E         	movff	?___fladd+2,powf@p_h+2
  6091  0028AE  C069  F19F         	movff	?___fladd+3,powf@p_h+3
  6092  0028B2  C19C  F1B8         	movff	powf@p_h,powf@__xc8_float_word
  6093  0028B6  C19D  F1B9         	movff	powf@p_h+1,powf@__xc8_float_word+1
  6094  0028BA  C19E  F1BA         	movff	powf@p_h+2,powf@__xc8_float_word+2
  6095  0028BE  C19F  F1BB         	movff	powf@p_h+3,powf@__xc8_float_word+3
  6096  0028C2  C1B8  F194         	movff	powf@__xc8_float_word,powf@is
  6097  0028C6  C1B9  F195         	movff	powf@__xc8_float_word+1,powf@is+1
  6098  0028CA  C1BA  F196         	movff	powf@__xc8_float_word+2,powf@is+2
  6099  0028CE  C1BB  F197         	movff	powf@__xc8_float_word+3,powf@is+3
  6100  0028D2  0E00               	movlw	0
  6101  0028D4  0101               	movlb	1	; () banked
  6102  0028D6  1594               	andwf	powf@is& (0+255),w,b
  6103  0028D8  6FB8               	movwf	powf@__xc8_float_word& (0+255),b
  6104  0028DA  0EF0               	movlw	240
  6105  0028DC  1595               	andwf	(powf@is+1)& (0+255),w,b
  6106  0028DE  6FB9               	movwf	(powf@__xc8_float_word+1)& (0+255),b
  6107  0028E0  0EFF               	movlw	255
  6108  0028E2  1596               	andwf	(powf@is+2)& (0+255),w,b
  6109  0028E4  6FBA               	movwf	(powf@__xc8_float_word+2)& (0+255),b
  6110  0028E6  0EFF               	movlw	255
  6111  0028E8  1597               	andwf	(powf@is+3)& (0+255),w,b
  6112  0028EA  6FBB               	movwf	(powf@__xc8_float_word+3)& (0+255),b
  6113  0028EC                     
  6114                           ; BSR set to: 1
  6115  0028EC  C1B8  F19C         	movff	powf@__xc8_float_word,powf@p_h
  6116  0028F0  C1B9  F19D         	movff	powf@__xc8_float_word+1,powf@p_h+1
  6117  0028F4  C1BA  F19E         	movff	powf@__xc8_float_word+2,powf@p_h+2
  6118  0028F8  C1BB  F19F         	movff	powf@__xc8_float_word+3,powf@p_h+3
  6119  0028FC                     
  6120                           ; BSR set to: 1
  6121  0028FC  C174  F07A         	movff	powf@u,___flsub@a
  6122  002900  C175  F07B         	movff	powf@u+1,___flsub@a+1
  6123  002904  C176  F07C         	movff	powf@u+2,___flsub@a+2
  6124  002908  C177  F07D         	movff	powf@u+3,___flsub@a+3
  6125  00290C  C19C  F076         	movff	powf@p_h,___flsub@b
  6126  002910  C19D  F077         	movff	powf@p_h+1,___flsub@b+1
  6127  002914  C19E  F078         	movff	powf@p_h+2,___flsub@b+2
  6128  002918  C19F  F079         	movff	powf@p_h+3,___flsub@b+3
  6129  00291C  EC3F  F031         	call	___flsub	;wreg free
  6130  002920  C076  F198         	movff	?___flsub,_powf$1305
  6131  002924  C077  F199         	movff	?___flsub+1,_powf$1305+1
  6132  002928  C078  F19A         	movff	?___flsub+2,_powf$1305+2
  6133  00292C  C079  F19B         	movff	?___flsub+3,_powf$1305+3
  6134  002930  C178  F076         	movff	powf@v,___flsub@b
  6135  002934  C179  F077         	movff	powf@v+1,___flsub@b+1
  6136  002938  C17A  F078         	movff	powf@v+2,___flsub@b+2
  6137  00293C  C17B  F079         	movff	powf@v+3,___flsub@b+3
  6138  002940  C198  F07A         	movff	_powf$1305,___flsub@a
  6139  002944  C199  F07B         	movff	_powf$1305+1,___flsub@a+1
  6140  002948  C19A  F07C         	movff	_powf$1305+2,___flsub@a+2
  6141  00294C  C19B  F07D         	movff	_powf$1305+3,___flsub@a+3
  6142  002950  EC3F  F031         	call	___flsub	;wreg free
  6143  002954  C076  F164         	movff	?___flsub,powf@p_l
  6144  002958  C077  F165         	movff	?___flsub+1,powf@p_l+1
  6145  00295C  C078  F166         	movff	?___flsub+2,powf@p_l+2
  6146  002960  C079  F167         	movff	?___flsub+3,powf@p_l+3
  6147  002964  C19C  F015         	movff	powf@p_h,___flmul@b
  6148  002968  C19D  F016         	movff	powf@p_h+1,___flmul@b+1
  6149  00296C  C19E  F017         	movff	powf@p_h+2,___flmul@b+2
  6150  002970  C19F  F018         	movff	powf@p_h+3,___flmul@b+3
  6151  002974  0E00               	movlw	0
  6152  002976  6E19               	movwf	___flmul@a^0,c
  6153  002978  0E40               	movlw	64
  6154  00297A  6E1A               	movwf	(___flmul@a+1)^0,c
  6155  00297C  0E76               	movlw	118
  6156  00297E  6E1B               	movwf	(___flmul@a+2)^0,c
  6157  002980  0E3F               	movlw	63
  6158  002982  6E1C               	movwf	(___flmul@a+3)^0,c
  6159  002984  EC20  F025         	call	___flmul	;wreg free
  6160  002988  C015  F120         	movff	?___flmul,powf@z_h
  6161  00298C  C016  F121         	movff	?___flmul+1,powf@z_h+1
  6162  002990  C017  F122         	movff	?___flmul+2,powf@z_h+2
  6163  002994  C018  F123         	movff	?___flmul+3,powf@z_h+3
  6164  002998  0E4F               	movlw	79
  6165  00299A  6E19               	movwf	___flmul@a^0,c
  6166  00299C  0E38               	movlw	56
  6167  00299E  6E1A               	movwf	(___flmul@a+1)^0,c
  6168  0029A0  0E76               	movlw	118
  6169  0029A2  6E1B               	movwf	(___flmul@a+2)^0,c
  6170  0029A4  0E3F               	movlw	63
  6171  0029A6  6E1C               	movwf	(___flmul@a+3)^0,c
  6172  0029A8  C164  F015         	movff	powf@p_l,___flmul@b
  6173  0029AC  C165  F016         	movff	powf@p_l+1,___flmul@b+1
  6174  0029B0  C166  F017         	movff	powf@p_l+2,___flmul@b+2
  6175  0029B4  C167  F018         	movff	powf@p_l+3,___flmul@b+3
  6176  0029B8  EC20  F025         	call	___flmul	;wreg free
  6177  0029BC  C015  F06A         	movff	?___flmul,___fladd@a
  6178  0029C0  C016  F06B         	movff	?___flmul+1,___fladd@a+1
  6179  0029C4  C017  F06C         	movff	?___flmul+2,___fladd@a+2
  6180  0029C8  C018  F06D         	movff	?___flmul+3,___fladd@a+3
  6181  0029CC  0EC6               	movlw	198
  6182  0029CE  6E19               	movwf	___flmul@a^0,c
  6183  0029D0  0E23               	movlw	35
  6184  0029D2  6E1A               	movwf	(___flmul@a+1)^0,c
  6185  0029D4  0EF6               	movlw	246
  6186  0029D6  6E1B               	movwf	(___flmul@a+2)^0,c
  6187  0029D8  0EB8               	movlw	184
  6188  0029DA  6E1C               	movwf	(___flmul@a+3)^0,c
  6189  0029DC  C19C  F015         	movff	powf@p_h,___flmul@b
  6190  0029E0  C19D  F016         	movff	powf@p_h+1,___flmul@b+1
  6191  0029E4  C19E  F017         	movff	powf@p_h+2,___flmul@b+2
  6192  0029E8  C19F  F018         	movff	powf@p_h+3,___flmul@b+3
  6193  0029EC  EC20  F025         	call	___flmul	;wreg free
  6194  0029F0  C015  F066         	movff	?___flmul,___fladd@b
  6195  0029F4  C016  F067         	movff	?___flmul+1,___fladd@b+1
  6196  0029F8  C017  F068         	movff	?___flmul+2,___fladd@b+2
  6197  0029FC  C018  F069         	movff	?___flmul+3,___fladd@b+3
  6198  002A00  EC61  F020         	call	___fladd	;wreg free
  6199  002A04  C066  F158         	movff	?___fladd,_powf$1309
  6200  002A08  C067  F159         	movff	?___fladd+1,_powf$1309+1
  6201  002A0C  C068  F15A         	movff	?___fladd+2,_powf$1309+2
  6202  002A10  C069  F15B         	movff	?___fladd+3,_powf$1309+3
  6203  002A14  C158  F066         	movff	_powf$1309,___fladd@b
  6204  002A18  C159  F067         	movff	_powf$1309+1,___fladd@b+1
  6205  002A1C  C15A  F068         	movff	_powf$1309+2,___fladd@b+2
  6206  002A20  C15B  F069         	movff	_powf$1309+3,___fladd@b+3
  6207  002A24  C1A0  F0C3         	movff	powf@k,??_powf
  6208  002A28  C1A1  F0C4         	movff	powf@k+1,??_powf+1
  6209  002A2C  0100               	movlb	0	; () banked
  6210  002A2E  90D8               	bcf	status,0,c
  6211  002A30  37C3               	rlcf	??_powf& (0+255),f,b
  6212  002A32  37C4               	rlcf	(??_powf+1)& (0+255),f,b
  6213  002A34  90D8               	bcf	status,0,c
  6214  002A36  37C3               	rlcf	??_powf& (0+255),f,b
  6215  002A38  37C4               	rlcf	(??_powf+1)& (0+255),f,b
  6216  002A3A  0E01               	movlw	low _dp_l
  6217  002A3C  25C3               	addwf	??_powf& (0+255),w,b
  6218  002A3E  6EF6               	movwf	tblptrl,c
  6219  002A40  0E10               	movlw	high _dp_l
  6220  002A42  21C4               	addwfc	(??_powf+1)& (0+255),w,b
  6221  002A44  6EF7               	movwf	tblptrh,c
  6222  002A46                     	if	1	;There are 3 active tblptr bytes
  6223  002A46  6AF8               	clrf	tblptru,c
  6224  002A48  0E00               	movlw	low (__mediumconst shr (0+16))
  6225  002A4A  22F8               	addwfc	tblptru,f,c
  6226  002A4C                     	endif
  6227  002A4C  0009               	tblrd		*+
  6228  002A4E  CFF5 F06A          	movff	tablat,___fladd@a
  6229  002A52  0009               	tblrd		*+
  6230  002A54  CFF5 F06B          	movff	tablat,___fladd@a+1
  6231  002A58  0009               	tblrd		*+
  6232  002A5A  CFF5 F06C          	movff	tablat,___fladd@a+2
  6233  002A5E  000A               	tblrd		*-
  6234  002A60  CFF5 F06D          	movff	tablat,___fladd@a+3
  6235  002A64  EC61  F020         	call	___fladd	;wreg free
  6236  002A68  C066  F124         	movff	?___fladd,powf@z_l
  6237  002A6C  C067  F125         	movff	?___fladd+1,powf@z_l+1
  6238  002A70  C068  F126         	movff	?___fladd+2,powf@z_l+2
  6239  002A74  C069  F127         	movff	?___fladd+3,powf@z_l+3
  6240  002A78  C180  F02E         	movff	powf@n,___xxtofl@val
  6241  002A7C  C181  F02F         	movff	powf@n+1,___xxtofl@val+1
  6242  002A80  C182  F030         	movff	powf@n+2,___xxtofl@val+2
  6243  002A84  C183  F031         	movff	powf@n+3,___xxtofl@val+3
  6244  002A88  0E01               	movlw	1
  6245  002A8A  EC9E  F02B         	call	___xxtofl
  6246  002A8E  C02E  F1B0         	movff	?___xxtofl,powf@t
  6247  002A92  C02F  F1B1         	movff	?___xxtofl+1,powf@t+1
  6248  002A96  C030  F1B2         	movff	?___xxtofl+2,powf@t+2
  6249  002A9A  C031  F1B3         	movff	?___xxtofl+3,powf@t+3
  6250  002A9E  C124  F06A         	movff	powf@z_l,___fladd@a
  6251  002AA2  C125  F06B         	movff	powf@z_l+1,___fladd@a+1
  6252  002AA6  C126  F06C         	movff	powf@z_l+2,___fladd@a+2
  6253  002AAA  C127  F06D         	movff	powf@z_l+3,___fladd@a+3
  6254  002AAE  C120  F066         	movff	powf@z_h,___fladd@b
  6255  002AB2  C121  F067         	movff	powf@z_h+1,___fladd@b+1
  6256  002AB6  C122  F068         	movff	powf@z_h+2,___fladd@b+2
  6257  002ABA  C123  F069         	movff	powf@z_h+3,___fladd@b+3
  6258  002ABE  EC61  F020         	call	___fladd	;wreg free
  6259  002AC2  C066  F158         	movff	?___fladd,_powf$1309
  6260  002AC6  C067  F159         	movff	?___fladd+1,_powf$1309+1
  6261  002ACA  C068  F15A         	movff	?___fladd+2,_powf$1309+2
  6262  002ACE  C069  F15B         	movff	?___fladd+3,_powf$1309+3
  6263  002AD2  C1A0  F0C3         	movff	powf@k,??_powf
  6264  002AD6  C1A1  F0C4         	movff	powf@k+1,??_powf+1
  6265  002ADA  0100               	movlb	0	; () banked
  6266  002ADC  90D8               	bcf	status,0,c
  6267  002ADE  37C3               	rlcf	??_powf& (0+255),f,b
  6268  002AE0  37C4               	rlcf	(??_powf+1)& (0+255),f,b
  6269  002AE2  90D8               	bcf	status,0,c
  6270  002AE4  37C3               	rlcf	??_powf& (0+255),f,b
  6271  002AE6  37C4               	rlcf	(??_powf+1)& (0+255),f,b
  6272  002AE8  0E09               	movlw	low _dp_h
  6273  002AEA  25C3               	addwf	??_powf& (0+255),w,b
  6274  002AEC  6EF6               	movwf	tblptrl,c
  6275  002AEE  0E10               	movlw	high _dp_h
  6276  002AF0  21C4               	addwfc	(??_powf+1)& (0+255),w,b
  6277  002AF2  6EF7               	movwf	tblptrh,c
  6278  002AF4                     	if	1	;There are 3 active tblptr bytes
  6279  002AF4  6AF8               	clrf	tblptru,c
  6280  002AF6  0E00               	movlw	low (__mediumconst shr (0+16))
  6281  002AF8  22F8               	addwfc	tblptru,f,c
  6282  002AFA                     	endif
  6283  002AFA  0009               	tblrd		*+
  6284  002AFC  CFF5 F06A          	movff	tablat,___fladd@a
  6285  002B00  0009               	tblrd		*+
  6286  002B02  CFF5 F06B          	movff	tablat,___fladd@a+1
  6287  002B06  0009               	tblrd		*+
  6288  002B08  CFF5 F06C          	movff	tablat,___fladd@a+2
  6289  002B0C  000A               	tblrd		*-
  6290  002B0E  CFF5 F06D          	movff	tablat,___fladd@a+3
  6291  002B12  C158  F066         	movff	_powf$1309,___fladd@b
  6292  002B16  C159  F067         	movff	_powf$1309+1,___fladd@b+1
  6293  002B1A  C15A  F068         	movff	_powf$1309+2,___fladd@b+2
  6294  002B1E  C15B  F069         	movff	_powf$1309+3,___fladd@b+3
  6295  002B22  EC61  F020         	call	___fladd	;wreg free
  6296  002B26  C066  F108         	movff	?___fladd,_powf$1312
  6297  002B2A  C067  F109         	movff	?___fladd+1,_powf$1312+1
  6298  002B2E  C068  F10A         	movff	?___fladd+2,_powf$1312+2
  6299  002B32  C069  F10B         	movff	?___fladd+3,_powf$1312+3
  6300  002B36  C108  F066         	movff	_powf$1312,___fladd@b
  6301  002B3A  C109  F067         	movff	_powf$1312+1,___fladd@b+1
  6302  002B3E  C10A  F068         	movff	_powf$1312+2,___fladd@b+2
  6303  002B42  C10B  F069         	movff	_powf$1312+3,___fladd@b+3
  6304  002B46  C1B0  F06A         	movff	powf@t,___fladd@a
  6305  002B4A  C1B1  F06B         	movff	powf@t+1,___fladd@a+1
  6306  002B4E  C1B2  F06C         	movff	powf@t+2,___fladd@a+2
  6307  002B52  C1B3  F06D         	movff	powf@t+3,___fladd@a+3
  6308  002B56  EC61  F020         	call	___fladd	;wreg free
  6309  002B5A  C066  F184         	movff	?___fladd,powf@t1
  6310  002B5E  C067  F185         	movff	?___fladd+1,powf@t1+1
  6311  002B62  C068  F186         	movff	?___fladd+2,powf@t1+2
  6312  002B66  C069  F187         	movff	?___fladd+3,powf@t1+3
  6313  002B6A  C184  F1B8         	movff	powf@t1,powf@__xc8_float_word
  6314  002B6E  C185  F1B9         	movff	powf@t1+1,powf@__xc8_float_word+1
  6315  002B72  C186  F1BA         	movff	powf@t1+2,powf@__xc8_float_word+2
  6316  002B76  C187  F1BB         	movff	powf@t1+3,powf@__xc8_float_word+3
  6317  002B7A  C1B8  F194         	movff	powf@__xc8_float_word,powf@is
  6318  002B7E  C1B9  F195         	movff	powf@__xc8_float_word+1,powf@is+1
  6319  002B82  C1BA  F196         	movff	powf@__xc8_float_word+2,powf@is+2
  6320  002B86  C1BB  F197         	movff	powf@__xc8_float_word+3,powf@is+3
  6321  002B8A  0E00               	movlw	0
  6322  002B8C  0101               	movlb	1	; () banked
  6323  002B8E  1594               	andwf	powf@is& (0+255),w,b
  6324  002B90  6FB8               	movwf	powf@__xc8_float_word& (0+255),b
  6325  002B92  0EF0               	movlw	240
  6326  002B94  1595               	andwf	(powf@is+1)& (0+255),w,b
  6327  002B96  6FB9               	movwf	(powf@__xc8_float_word+1)& (0+255),b
  6328  002B98  0EFF               	movlw	255
  6329  002B9A  1596               	andwf	(powf@is+2)& (0+255),w,b
  6330  002B9C  6FBA               	movwf	(powf@__xc8_float_word+2)& (0+255),b
  6331  002B9E  0EFF               	movlw	255
  6332  002BA0  1597               	andwf	(powf@is+3)& (0+255),w,b
  6333  002BA2  6FBB               	movwf	(powf@__xc8_float_word+3)& (0+255),b
  6334  002BA4                     
  6335                           ; BSR set to: 1
  6336  002BA4  C1B8  F184         	movff	powf@__xc8_float_word,powf@t1
  6337  002BA8  C1B9  F185         	movff	powf@__xc8_float_word+1,powf@t1+1
  6338  002BAC  C1BA  F186         	movff	powf@__xc8_float_word+2,powf@t1+2
  6339  002BB0  C1BB  F187         	movff	powf@__xc8_float_word+3,powf@t1+3
  6340  002BB4                     
  6341                           ; BSR set to: 1
  6342  002BB4  C1B0  F07A         	movff	powf@t,___flsub@a
  6343  002BB8  C1B1  F07B         	movff	powf@t+1,___flsub@a+1
  6344  002BBC  C1B2  F07C         	movff	powf@t+2,___flsub@a+2
  6345  002BC0  C1B3  F07D         	movff	powf@t+3,___flsub@a+3
  6346  002BC4  C184  F076         	movff	powf@t1,___flsub@b
  6347  002BC8  C185  F077         	movff	powf@t1+1,___flsub@b+1
  6348  002BCC  C186  F078         	movff	powf@t1+2,___flsub@b+2
  6349  002BD0  C187  F079         	movff	powf@t1+3,___flsub@b+3
  6350  002BD4  EC3F  F031         	call	___flsub	;wreg free
  6351  002BD8  C076  F198         	movff	?___flsub,_powf$1305
  6352  002BDC  C077  F199         	movff	?___flsub+1,_powf$1305+1
  6353  002BE0  C078  F19A         	movff	?___flsub+2,_powf$1305+2
  6354  002BE4  C079  F19B         	movff	?___flsub+3,_powf$1305+3
  6355  002BE8  C1A0  F0C3         	movff	powf@k,??_powf
  6356  002BEC  C1A1  F0C4         	movff	powf@k+1,??_powf+1
  6357  002BF0  0100               	movlb	0	; () banked
  6358  002BF2  90D8               	bcf	status,0,c
  6359  002BF4  37C3               	rlcf	??_powf& (0+255),f,b
  6360  002BF6  37C4               	rlcf	(??_powf+1)& (0+255),f,b
  6361  002BF8  90D8               	bcf	status,0,c
  6362  002BFA  37C3               	rlcf	??_powf& (0+255),f,b
  6363  002BFC  37C4               	rlcf	(??_powf+1)& (0+255),f,b
  6364  002BFE  0E09               	movlw	low _dp_h
  6365  002C00  25C3               	addwf	??_powf& (0+255),w,b
  6366  002C02  6EF6               	movwf	tblptrl,c
  6367  002C04  0E10               	movlw	high _dp_h
  6368  002C06  21C4               	addwfc	(??_powf+1)& (0+255),w,b
  6369  002C08  6EF7               	movwf	tblptrh,c
  6370  002C0A                     	if	1	;There are 3 active tblptr bytes
  6371  002C0A  6AF8               	clrf	tblptru,c
  6372  002C0C  0E00               	movlw	low (__mediumconst shr (0+16))
  6373  002C0E  22F8               	addwfc	tblptru,f,c
  6374  002C10                     	endif
  6375  002C10  0009               	tblrd		*+
  6376  002C12  CFF5 F07A          	movff	tablat,___flsub@a
  6377  002C16  0009               	tblrd		*+
  6378  002C18  CFF5 F07B          	movff	tablat,___flsub@a+1
  6379  002C1C  0009               	tblrd		*+
  6380  002C1E  CFF5 F07C          	movff	tablat,___flsub@a+2
  6381  002C22  000A               	tblrd		*-
  6382  002C24  CFF5 F07D          	movff	tablat,___flsub@a+3
  6383  002C28  C198  F076         	movff	_powf$1305,___flsub@b
  6384  002C2C  C199  F077         	movff	_powf$1305+1,___flsub@b+1
  6385  002C30  C19A  F078         	movff	_powf$1305+2,___flsub@b+2
  6386  002C34  C19B  F079         	movff	_powf$1305+3,___flsub@b+3
  6387  002C38  EC3F  F031         	call	___flsub	;wreg free
  6388  002C3C  C076  F140         	movff	?___flsub,_powf$1311
  6389  002C40  C077  F141         	movff	?___flsub+1,_powf$1311+1
  6390  002C44  C078  F142         	movff	?___flsub+2,_powf$1311+2
  6391  002C48  C079  F143         	movff	?___flsub+3,_powf$1311+3
  6392  002C4C  C120  F07A         	movff	powf@z_h,___flsub@a
  6393  002C50  C121  F07B         	movff	powf@z_h+1,___flsub@a+1
  6394  002C54  C122  F07C         	movff	powf@z_h+2,___flsub@a+2
  6395  002C58  C123  F07D         	movff	powf@z_h+3,___flsub@a+3
  6396  002C5C  C140  F076         	movff	_powf$1311,___flsub@b
  6397  002C60  C141  F077         	movff	_powf$1311+1,___flsub@b+1
  6398  002C64  C142  F078         	movff	_powf$1311+2,___flsub@b+2
  6399  002C68  C143  F079         	movff	_powf$1311+3,___flsub@b+3
  6400  002C6C  EC3F  F031         	call	___flsub	;wreg free
  6401  002C70  C076  F10C         	movff	?___flsub,_powf$1313
  6402  002C74  C077  F10D         	movff	?___flsub+1,_powf$1313+1
  6403  002C78  C078  F10E         	movff	?___flsub+2,_powf$1313+2
  6404  002C7C  C079  F10F         	movff	?___flsub+3,_powf$1313+3
  6405  002C80  C124  F076         	movff	powf@z_l,___flsub@b
  6406  002C84  C125  F077         	movff	powf@z_l+1,___flsub@b+1
  6407  002C88  C126  F078         	movff	powf@z_l+2,___flsub@b+2
  6408  002C8C  C127  F079         	movff	powf@z_l+3,___flsub@b+3
  6409  002C90  C10C  F07A         	movff	_powf$1313,___flsub@a
  6410  002C94  C10D  F07B         	movff	_powf$1313+1,___flsub@a+1
  6411  002C98  C10E  F07C         	movff	_powf$1313+2,___flsub@a+2
  6412  002C9C  C10F  F07D         	movff	_powf$1313+3,___flsub@a+3
  6413  002CA0  EC3F  F031         	call	___flsub	;wreg free
  6414  002CA4  C076  F11C         	movff	?___flsub,powf@t2
  6415  002CA8  C077  F11D         	movff	?___flsub+1,powf@t2+1
  6416  002CAC  C078  F11E         	movff	?___flsub+2,powf@t2+2
  6417  002CB0  C079  F11F         	movff	?___flsub+3,powf@t2+3
  6418  002CB4                     l5044:
  6419  002CB4  C0BF  F1B8         	movff	powf@y,powf@__xc8_float_word
  6420  002CB8  C0C0  F1B9         	movff	powf@y+1,powf@__xc8_float_word+1
  6421  002CBC  C0C1  F1BA         	movff	powf@y+2,powf@__xc8_float_word+2
  6422  002CC0  C0C2  F1BB         	movff	powf@y+3,powf@__xc8_float_word+3
  6423  002CC4  C1B8  F194         	movff	powf@__xc8_float_word,powf@is
  6424  002CC8  C1B9  F195         	movff	powf@__xc8_float_word+1,powf@is+1
  6425  002CCC  C1BA  F196         	movff	powf@__xc8_float_word+2,powf@is+2
  6426  002CD0  C1BB  F197         	movff	powf@__xc8_float_word+3,powf@is+3
  6427  002CD4  0E00               	movlw	0
  6428  002CD6  0101               	movlb	1	; () banked
  6429  002CD8  1594               	andwf	powf@is& (0+255),w,b
  6430  002CDA  6FB8               	movwf	powf@__xc8_float_word& (0+255),b
  6431  002CDC  0EF0               	movlw	240
  6432  002CDE  1595               	andwf	(powf@is+1)& (0+255),w,b
  6433  002CE0  6FB9               	movwf	(powf@__xc8_float_word+1)& (0+255),b
  6434  002CE2  0EFF               	movlw	255
  6435  002CE4  1596               	andwf	(powf@is+2)& (0+255),w,b
  6436  002CE6  6FBA               	movwf	(powf@__xc8_float_word+2)& (0+255),b
  6437  002CE8  0EFF               	movlw	255
  6438  002CEA  1597               	andwf	(powf@is+3)& (0+255),w,b
  6439  002CEC  6FBB               	movwf	(powf@__xc8_float_word+3)& (0+255),b
  6440  002CEE                     
  6441                           ; BSR set to: 1
  6442  002CEE  C1B8  F128         	movff	powf@__xc8_float_word,powf@y1
  6443  002CF2  C1B9  F129         	movff	powf@__xc8_float_word+1,powf@y1+1
  6444  002CF6  C1BA  F12A         	movff	powf@__xc8_float_word+2,powf@y1+2
  6445  002CFA  C1BB  F12B         	movff	powf@__xc8_float_word+3,powf@y1+3
  6446  002CFE                     
  6447                           ; BSR set to: 1
  6448  002CFE  C184  F019         	movff	powf@t1,___flmul@a
  6449  002D02  C185  F01A         	movff	powf@t1+1,___flmul@a+1
  6450  002D06  C186  F01B         	movff	powf@t1+2,___flmul@a+2
  6451  002D0A  C187  F01C         	movff	powf@t1+3,___flmul@a+3
  6452  002D0E  C128  F07A         	movff	powf@y1,___flsub@a
  6453  002D12  C129  F07B         	movff	powf@y1+1,___flsub@a+1
  6454  002D16  C12A  F07C         	movff	powf@y1+2,___flsub@a+2
  6455  002D1A  C12B  F07D         	movff	powf@y1+3,___flsub@a+3
  6456  002D1E  C0BF  F076         	movff	powf@y,___flsub@b
  6457  002D22  C0C0  F077         	movff	powf@y+1,___flsub@b+1
  6458  002D26  C0C1  F078         	movff	powf@y+2,___flsub@b+2
  6459  002D2A  C0C2  F079         	movff	powf@y+3,___flsub@b+3
  6460  002D2E  EC3F  F031         	call	___flsub	;wreg free
  6461  002D32  C076  F015         	movff	?___flsub,___flmul@b
  6462  002D36  C077  F016         	movff	?___flsub+1,___flmul@b+1
  6463  002D3A  C078  F017         	movff	?___flsub+2,___flmul@b+2
  6464  002D3E  C079  F018         	movff	?___flsub+3,___flmul@b+3
  6465  002D42  EC20  F025         	call	___flmul	;wreg free
  6466  002D46  C015  F110         	movff	?___flmul,_powf$1314
  6467  002D4A  C016  F111         	movff	?___flmul+1,_powf$1314+1
  6468  002D4E  C017  F112         	movff	?___flmul+2,_powf$1314+2
  6469  002D52  C018  F113         	movff	?___flmul+3,_powf$1314+3
  6470  002D56  C110  F066         	movff	_powf$1314,___fladd@b
  6471  002D5A  C111  F067         	movff	_powf$1314+1,___fladd@b+1
  6472  002D5E  C112  F068         	movff	_powf$1314+2,___fladd@b+2
  6473  002D62  C113  F069         	movff	_powf$1314+3,___fladd@b+3
  6474  002D66  C11C  F019         	movff	powf@t2,___flmul@a
  6475  002D6A  C11D  F01A         	movff	powf@t2+1,___flmul@a+1
  6476  002D6E  C11E  F01B         	movff	powf@t2+2,___flmul@a+2
  6477  002D72  C11F  F01C         	movff	powf@t2+3,___flmul@a+3
  6478  002D76  C0BF  F015         	movff	powf@y,___flmul@b
  6479  002D7A  C0C0  F016         	movff	powf@y+1,___flmul@b+1
  6480  002D7E  C0C1  F017         	movff	powf@y+2,___flmul@b+2
  6481  002D82  C0C2  F018         	movff	powf@y+3,___flmul@b+3
  6482  002D86  EC20  F025         	call	___flmul	;wreg free
  6483  002D8A  C015  F06A         	movff	?___flmul,___fladd@a
  6484  002D8E  C016  F06B         	movff	?___flmul+1,___fladd@a+1
  6485  002D92  C017  F06C         	movff	?___flmul+2,___fladd@a+2
  6486  002D96  C018  F06D         	movff	?___flmul+3,___fladd@a+3
  6487  002D9A  EC61  F020         	call	___fladd	;wreg free
  6488  002D9E  C066  F164         	movff	?___fladd,powf@p_l
  6489  002DA2  C067  F165         	movff	?___fladd+1,powf@p_l+1
  6490  002DA6  C068  F166         	movff	?___fladd+2,powf@p_l+2
  6491  002DAA  C069  F167         	movff	?___fladd+3,powf@p_l+3
  6492  002DAE  C128  F015         	movff	powf@y1,___flmul@b
  6493  002DB2  C129  F016         	movff	powf@y1+1,___flmul@b+1
  6494  002DB6  C12A  F017         	movff	powf@y1+2,___flmul@b+2
  6495  002DBA  C12B  F018         	movff	powf@y1+3,___flmul@b+3
  6496  002DBE  C184  F019         	movff	powf@t1,___flmul@a
  6497  002DC2  C185  F01A         	movff	powf@t1+1,___flmul@a+1
  6498  002DC6  C186  F01B         	movff	powf@t1+2,___flmul@a+2
  6499  002DCA  C187  F01C         	movff	powf@t1+3,___flmul@a+3
  6500  002DCE  EC20  F025         	call	___flmul	;wreg free
  6501  002DD2  C015  F19C         	movff	?___flmul,powf@p_h
  6502  002DD6  C016  F19D         	movff	?___flmul+1,powf@p_h+1
  6503  002DDA  C017  F19E         	movff	?___flmul+2,powf@p_h+2
  6504  002DDE  C018  F19F         	movff	?___flmul+3,powf@p_h+3
  6505  002DE2  C164  F066         	movff	powf@p_l,___fladd@b
  6506  002DE6  C165  F067         	movff	powf@p_l+1,___fladd@b+1
  6507  002DEA  C166  F068         	movff	powf@p_l+2,___fladd@b+2
  6508  002DEE  C167  F069         	movff	powf@p_l+3,___fladd@b+3
  6509  002DF2  C19C  F06A         	movff	powf@p_h,___fladd@a
  6510  002DF6  C19D  F06B         	movff	powf@p_h+1,___fladd@a+1
  6511  002DFA  C19E  F06C         	movff	powf@p_h+2,___fladd@a+2
  6512  002DFE  C19F  F06D         	movff	powf@p_h+3,___fladd@a+3
  6513  002E02  EC61  F020         	call	___fladd	;wreg free
  6514  002E06  C066  F1B4         	movff	?___fladd,powf@z
  6515  002E0A  C067  F1B5         	movff	?___fladd+1,powf@z+1
  6516  002E0E  C068  F1B6         	movff	?___fladd+2,powf@z+2
  6517  002E12  C069  F1B7         	movff	?___fladd+3,powf@z+3
  6518  002E16  C1B4  F1B8         	movff	powf@z,powf@__xc8_float_word
  6519  002E1A  C1B5  F1B9         	movff	powf@z+1,powf@__xc8_float_word+1
  6520  002E1E  C1B6  F1BA         	movff	powf@z+2,powf@__xc8_float_word+2
  6521  002E22  C1B7  F1BB         	movff	powf@z+3,powf@__xc8_float_word+3
  6522  002E26  C1B8  F1AC         	movff	powf@__xc8_float_word,powf@j
  6523  002E2A  C1B9  F1AD         	movff	powf@__xc8_float_word+1,powf@j+1
  6524  002E2E  C1BA  F1AE         	movff	powf@__xc8_float_word+2,powf@j+2
  6525  002E32  C1BB  F1AF         	movff	powf@__xc8_float_word+3,powf@j+3
  6526  002E36  0101               	movlb	1	; () banked
  6527  002E38  BFAF               	btfsc	(powf@j+3)& (0+255),7,b
  6528  002E3A  EF2B  F017         	goto	u6121
  6529  002E3E  05AC               	decf	powf@j& (0+255),w,b
  6530  002E40  0E00               	movlw	0
  6531  002E42  59AD               	subwfb	(powf@j+1)& (0+255),w,b
  6532  002E44  0E00               	movlw	0
  6533  002E46  59AE               	subwfb	(powf@j+2)& (0+255),w,b
  6534  002E48  0E43               	movlw	67
  6535  002E4A  59AF               	subwfb	(powf@j+3)& (0+255),w,b
  6536  002E4C  A0D8               	btfss	status,0,c
  6537  002E4E  EF2B  F017         	goto	u6121
  6538  002E52  EF2D  F017         	goto	u6120
  6539  002E56                     u6121:
  6540  002E56  EF63  F017         	goto	l5072
  6541  002E5A                     u6120:
  6542  002E5A                     
  6543                           ; BSR set to: 1
  6544  002E5A  0ECA               	movlw	202
  6545  002E5C  6E19               	movwf	___flmul@a^0,c
  6546  002E5E  0EF2               	movlw	242
  6547  002E60  6E1A               	movwf	(___flmul@a+1)^0,c
  6548  002E62  0E49               	movlw	73
  6549  002E64  6E1B               	movwf	(___flmul@a+2)^0,c
  6550  002E66  0E71               	movlw	113
  6551  002E68  6E1C               	movwf	(___flmul@a+3)^0,c
  6552  002E6A  C188  F015         	movff	powf@sn,___flmul@b
  6553  002E6E  C189  F016         	movff	powf@sn+1,___flmul@b+1
  6554  002E72  C18A  F017         	movff	powf@sn+2,___flmul@b+2
  6555  002E76  C18B  F018         	movff	powf@sn+3,___flmul@b+3
  6556  002E7A  EC20  F025         	call	___flmul	;wreg free
  6557  002E7E  C015  F1A4         	movff	?___flmul,_powf$1302
  6558  002E82  C016  F1A5         	movff	?___flmul+1,_powf$1302+1
  6559  002E86  C017  F1A6         	movff	?___flmul+2,_powf$1302+2
  6560  002E8A  C018  F1A7         	movff	?___flmul+3,_powf$1302+3
  6561  002E8E  C1A4  F015         	movff	_powf$1302,___flmul@b
  6562  002E92  C1A5  F016         	movff	_powf$1302+1,___flmul@b+1
  6563  002E96  C1A6  F017         	movff	_powf$1302+2,___flmul@b+2
  6564  002E9A  C1A7  F018         	movff	_powf$1302+3,___flmul@b+3
  6565  002E9E  0ECA               	movlw	202
  6566  002EA0  6E19               	movwf	___flmul@a^0,c
  6567  002EA2  0EF2               	movlw	242
  6568  002EA4  6E1A               	movwf	(___flmul@a+1)^0,c
  6569  002EA6  0E49               	movlw	73
  6570  002EA8  6E1B               	movwf	(___flmul@a+2)^0,c
  6571  002EAA  0E71               	movlw	113
  6572  002EAC  6E1C               	movwf	(___flmul@a+3)^0,c
  6573  002EAE  EC20  F025         	call	___flmul	;wreg free
  6574  002EB2  C015  F0BB         	movff	?___flmul,?_powf
  6575  002EB6  C016  F0BC         	movff	?___flmul+1,?_powf+1
  6576  002EBA  C017  F0BD         	movff	?___flmul+2,?_powf+2
  6577  002EBE  C018  F0BE         	movff	?___flmul+3,?_powf+3
  6578  002EC2  EF6D  F01D         	goto	l1037
  6579  002EC6                     l5072:
  6580                           
  6581                           ; BSR set to: 1
  6582  002EC6  0E43               	movlw	67
  6583  002EC8  19AF               	xorwf	(powf@j+3)& (0+255),w,b
  6584  002ECA  11AC               	iorwf	powf@j& (0+255),w,b
  6585  002ECC  11AD               	iorwf	(powf@j+1)& (0+255),w,b
  6586  002ECE  11AE               	iorwf	(powf@j+2)& (0+255),w,b
  6587  002ED0  A4D8               	btfss	status,2,c
  6588  002ED2  EF6D  F017         	goto	u6131
  6589  002ED6  EF6F  F017         	goto	u6130
  6590  002EDA                     u6131:
  6591  002EDA  EFE4  F017         	goto	l5080
  6592  002EDE                     u6130:
  6593  002EDE                     
  6594                           ; BSR set to: 1
  6595  002EDE  C19C  F07A         	movff	powf@p_h,___flsub@a
  6596  002EE2  C19D  F07B         	movff	powf@p_h+1,___flsub@a+1
  6597  002EE6  C19E  F07C         	movff	powf@p_h+2,___flsub@a+2
  6598  002EEA  C19F  F07D         	movff	powf@p_h+3,___flsub@a+3
  6599  002EEE  C1B4  F076         	movff	powf@z,___flsub@b
  6600  002EF2  C1B5  F077         	movff	powf@z+1,___flsub@b+1
  6601  002EF6  C1B6  F078         	movff	powf@z+2,___flsub@b+2
  6602  002EFA  C1B7  F079         	movff	powf@z+3,___flsub@b+3
  6603  002EFE  EC3F  F031         	call	___flsub	;wreg free
  6604  002F02  C076  F07E         	movff	?___flsub,___flge@ff1
  6605  002F06  C077  F07F         	movff	?___flsub+1,___flge@ff1+1
  6606  002F0A  C078  F080         	movff	?___flsub+2,___flge@ff1+2
  6607  002F0E  C079  F081         	movff	?___flsub+3,___flge@ff1+3
  6608  002F12  0E3C               	movlw	60
  6609  002F14  0100               	movlb	0	; () banked
  6610  002F16  6F6A               	movwf	___fladd@a& (0+255),b
  6611  002F18  0EAA               	movlw	170
  6612  002F1A  6F6B               	movwf	(___fladd@a+1)& (0+255),b
  6613  002F1C  0E38               	movlw	56
  6614  002F1E  6F6C               	movwf	(___fladd@a+2)& (0+255),b
  6615  002F20  0E33               	movlw	51
  6616  002F22  6F6D               	movwf	(___fladd@a+3)& (0+255),b
  6617  002F24  C164  F066         	movff	powf@p_l,___fladd@b
  6618  002F28  C165  F067         	movff	powf@p_l+1,___fladd@b+1
  6619  002F2C  C166  F068         	movff	powf@p_l+2,___fladd@b+2
  6620  002F30  C167  F069         	movff	powf@p_l+3,___fladd@b+3
  6621  002F34  EC61  F020         	call	___fladd	;wreg free
  6622  002F38  C066  F082         	movff	?___fladd,___flge@ff2
  6623  002F3C  C067  F083         	movff	?___fladd+1,___flge@ff2+1
  6624  002F40  C068  F084         	movff	?___fladd+2,___flge@ff2+2
  6625  002F44  C069  F085         	movff	?___fladd+3,___flge@ff2+3
  6626  002F48  EC0D  F030         	call	___flge	;wreg free
  6627  002F4C  0100               	movlb	0	; () banked
  6628  002F4E  B0D8               	btfsc	status,0,c
  6629  002F50  EFAC  F017         	goto	u6141
  6630  002F54  EFAE  F017         	goto	u6140
  6631  002F58                     u6141:
  6632  002F58  EFAF  F018         	goto	l5096
  6633  002F5C                     u6140:
  6634  002F5C                     
  6635                           ; BSR set to: 0
  6636  002F5C  0ECA               	movlw	202
  6637  002F5E  6E19               	movwf	___flmul@a^0,c
  6638  002F60  0EF2               	movlw	242
  6639  002F62  6E1A               	movwf	(___flmul@a+1)^0,c
  6640  002F64  0E49               	movlw	73
  6641  002F66  6E1B               	movwf	(___flmul@a+2)^0,c
  6642  002F68  0E71               	movlw	113
  6643  002F6A  6E1C               	movwf	(___flmul@a+3)^0,c
  6644  002F6C  C188  F015         	movff	powf@sn,___flmul@b
  6645  002F70  C189  F016         	movff	powf@sn+1,___flmul@b+1
  6646  002F74  C18A  F017         	movff	powf@sn+2,___flmul@b+2
  6647  002F78  C18B  F018         	movff	powf@sn+3,___flmul@b+3
  6648  002F7C  EC20  F025         	call	___flmul	;wreg free
  6649  002F80  C015  F1A4         	movff	?___flmul,_powf$1302
  6650  002F84  C016  F1A5         	movff	?___flmul+1,_powf$1302+1
  6651  002F88  C017  F1A6         	movff	?___flmul+2,_powf$1302+2
  6652  002F8C  C018  F1A7         	movff	?___flmul+3,_powf$1302+3
  6653  002F90  C1A4  F015         	movff	_powf$1302,___flmul@b
  6654  002F94  C1A5  F016         	movff	_powf$1302+1,___flmul@b+1
  6655  002F98  C1A6  F017         	movff	_powf$1302+2,___flmul@b+2
  6656  002F9C  C1A7  F018         	movff	_powf$1302+3,___flmul@b+3
  6657  002FA0  0ECA               	movlw	202
  6658  002FA2  6E19               	movwf	___flmul@a^0,c
  6659  002FA4  0EF2               	movlw	242
  6660  002FA6  6E1A               	movwf	(___flmul@a+1)^0,c
  6661  002FA8  0E49               	movlw	73
  6662  002FAA  6E1B               	movwf	(___flmul@a+2)^0,c
  6663  002FAC  0E71               	movlw	113
  6664  002FAE  6E1C               	movwf	(___flmul@a+3)^0,c
  6665  002FB0  EC20  F025         	call	___flmul	;wreg free
  6666  002FB4  C015  F0BB         	movff	?___flmul,?_powf
  6667  002FB8  C016  F0BC         	movff	?___flmul+1,?_powf+1
  6668  002FBC  C017  F0BD         	movff	?___flmul+2,?_powf+2
  6669  002FC0  C018  F0BE         	movff	?___flmul+3,?_powf+3
  6670  002FC4  EF6D  F01D         	goto	l1037
  6671  002FC8                     l5080:
  6672                           
  6673                           ; BSR set to: 1
  6674  002FC8  0EFF               	movlw	255
  6675  002FCA  15AC               	andwf	powf@j& (0+255),w,b
  6676  002FCC  0100               	movlb	0	; () banked
  6677  002FCE  6FC3               	movwf	??_powf& (0+255),b
  6678  002FD0  0EFF               	movlw	255
  6679  002FD2  0101               	movlb	1	; () banked
  6680  002FD4  15AD               	andwf	(powf@j+1)& (0+255),w,b
  6681  002FD6  0100               	movlb	0	; () banked
  6682  002FD8  6FC4               	movwf	(??_powf+1)& (0+255),b
  6683  002FDA  0EFF               	movlw	255
  6684  002FDC  0101               	movlb	1	; () banked
  6685  002FDE  15AE               	andwf	(powf@j+2)& (0+255),w,b
  6686  002FE0  0100               	movlb	0	; () banked
  6687  002FE2  6FC5               	movwf	(??_powf+2)& (0+255),b
  6688  002FE4  0E7F               	movlw	127
  6689  002FE6  0101               	movlb	1	; () banked
  6690  002FE8  15AF               	andwf	(powf@j+3)& (0+255),w,b
  6691  002FEA  0100               	movlb	0	; () banked
  6692  002FEC  6FC6               	movwf	(??_powf+3)& (0+255),b
  6693  002FEE  BFC6               	btfsc	(??_powf+3)& (0+255),7,b
  6694  002FF0  EF06  F018         	goto	u6151
  6695  002FF4  05C3               	decf	??_powf& (0+255),w,b
  6696  002FF6  0E00               	movlw	0
  6697  002FF8  59C4               	subwfb	(??_powf+1)& (0+255),w,b
  6698  002FFA  0E16               	movlw	22
  6699  002FFC  59C5               	subwfb	(??_powf+2)& (0+255),w,b
  6700  002FFE  0E43               	movlw	67
  6701  003000  59C6               	subwfb	(??_powf+3)& (0+255),w,b
  6702  003002  A0D8               	btfss	status,0,c
  6703  003004  EF06  F018         	goto	u6151
  6704  003008  EF08  F018         	goto	u6150
  6705  00300C                     u6151:
  6706  00300C  EF3E  F018         	goto	l5088
  6707  003010                     u6150:
  6708  003010                     
  6709                           ; BSR set to: 0
  6710  003010  0E60               	movlw	96
  6711  003012  6E19               	movwf	___flmul@a^0,c
  6712  003014  0E42               	movlw	66
  6713  003016  6E1A               	movwf	(___flmul@a+1)^0,c
  6714  003018  0EA2               	movlw	162
  6715  00301A  6E1B               	movwf	(___flmul@a+2)^0,c
  6716  00301C  0E0D               	movlw	13
  6717  00301E  6E1C               	movwf	(___flmul@a+3)^0,c
  6718  003020  C188  F015         	movff	powf@sn,___flmul@b
  6719  003024  C189  F016         	movff	powf@sn+1,___flmul@b+1
  6720  003028  C18A  F017         	movff	powf@sn+2,___flmul@b+2
  6721  00302C  C18B  F018         	movff	powf@sn+3,___flmul@b+3
  6722  003030  EC20  F025         	call	___flmul	;wreg free
  6723  003034  C015  F1A4         	movff	?___flmul,_powf$1302
  6724  003038  C016  F1A5         	movff	?___flmul+1,_powf$1302+1
  6725  00303C  C017  F1A6         	movff	?___flmul+2,_powf$1302+2
  6726  003040  C018  F1A7         	movff	?___flmul+3,_powf$1302+3
  6727  003044  C1A4  F015         	movff	_powf$1302,___flmul@b
  6728  003048  C1A5  F016         	movff	_powf$1302+1,___flmul@b+1
  6729  00304C  C1A6  F017         	movff	_powf$1302+2,___flmul@b+2
  6730  003050  C1A7  F018         	movff	_powf$1302+3,___flmul@b+3
  6731  003054  0E60               	movlw	96
  6732  003056  6E19               	movwf	___flmul@a^0,c
  6733  003058  0E42               	movlw	66
  6734  00305A  6E1A               	movwf	(___flmul@a+1)^0,c
  6735  00305C  0EA2               	movlw	162
  6736  00305E  6E1B               	movwf	(___flmul@a+2)^0,c
  6737  003060  0E0D               	movlw	13
  6738  003062  6E1C               	movwf	(___flmul@a+3)^0,c
  6739  003064  EC20  F025         	call	___flmul	;wreg free
  6740  003068  C015  F0BB         	movff	?___flmul,?_powf
  6741  00306C  C016  F0BC         	movff	?___flmul+1,?_powf+1
  6742  003070  C017  F0BD         	movff	?___flmul+2,?_powf+2
  6743  003074  C018  F0BE         	movff	?___flmul+3,?_powf+3
  6744  003078  EF6D  F01D         	goto	l1037
  6745  00307C                     l5088:
  6746                           
  6747                           ; BSR set to: 0
  6748  00307C  0E16               	movlw	22
  6749  00307E  0101               	movlb	1	; () banked
  6750  003080  19AE               	xorwf	(powf@j+2)& (0+255),w,b
  6751  003082  E109               	bnz	u6161
  6752  003084  0EC3               	movlw	195
  6753  003086  19AF               	xorwf	(powf@j+3)& (0+255),w,b
  6754  003088  11AC               	iorwf	powf@j& (0+255),w,b
  6755  00308A  11AD               	iorwf	(powf@j+1)& (0+255),w,b
  6756  00308C  A4D8               	btfss	status,2,c
  6757  00308E  EF4B  F018         	goto	u6161
  6758  003092  EF4D  F018         	goto	u6160
  6759  003096                     u6161:
  6760  003096  EFAF  F018         	goto	l5096
  6761  00309A                     u6160:
  6762  00309A                     
  6763                           ; BSR set to: 1
  6764  00309A  C19C  F07A         	movff	powf@p_h,___flsub@a
  6765  00309E  C19D  F07B         	movff	powf@p_h+1,___flsub@a+1
  6766  0030A2  C19E  F07C         	movff	powf@p_h+2,___flsub@a+2
  6767  0030A6  C19F  F07D         	movff	powf@p_h+3,___flsub@a+3
  6768  0030AA  C1B4  F076         	movff	powf@z,___flsub@b
  6769  0030AE  C1B5  F077         	movff	powf@z+1,___flsub@b+1
  6770  0030B2  C1B6  F078         	movff	powf@z+2,___flsub@b+2
  6771  0030B6  C1B7  F079         	movff	powf@z+3,___flsub@b+3
  6772  0030BA  EC3F  F031         	call	___flsub	;wreg free
  6773  0030BE  C076  F07E         	movff	?___flsub,___flge@ff1
  6774  0030C2  C077  F07F         	movff	?___flsub+1,___flge@ff1+1
  6775  0030C6  C078  F080         	movff	?___flsub+2,___flge@ff1+2
  6776  0030CA  C079  F081         	movff	?___flsub+3,___flge@ff1+3
  6777  0030CE  C164  F082         	movff	powf@p_l,___flge@ff2
  6778  0030D2  C165  F083         	movff	powf@p_l+1,___flge@ff2+1
  6779  0030D6  C166  F084         	movff	powf@p_l+2,___flge@ff2+2
  6780  0030DA  C167  F085         	movff	powf@p_l+3,___flge@ff2+3
  6781  0030DE  EC0D  F030         	call	___flge	;wreg free
  6782  0030E2  0100               	movlb	0	; () banked
  6783  0030E4  A0D8               	btfss	status,0,c
  6784  0030E6  EF77  F018         	goto	u6171
  6785  0030EA  EF79  F018         	goto	u6170
  6786  0030EE                     u6171:
  6787  0030EE  EFAF  F018         	goto	l5096
  6788  0030F2                     u6170:
  6789  0030F2                     
  6790                           ; BSR set to: 0
  6791  0030F2  0E60               	movlw	96
  6792  0030F4  6E19               	movwf	___flmul@a^0,c
  6793  0030F6  0E42               	movlw	66
  6794  0030F8  6E1A               	movwf	(___flmul@a+1)^0,c
  6795  0030FA  0EA2               	movlw	162
  6796  0030FC  6E1B               	movwf	(___flmul@a+2)^0,c
  6797  0030FE  0E0D               	movlw	13
  6798  003100  6E1C               	movwf	(___flmul@a+3)^0,c
  6799  003102  C188  F015         	movff	powf@sn,___flmul@b
  6800  003106  C189  F016         	movff	powf@sn+1,___flmul@b+1
  6801  00310A  C18A  F017         	movff	powf@sn+2,___flmul@b+2
  6802  00310E  C18B  F018         	movff	powf@sn+3,___flmul@b+3
  6803  003112  EC20  F025         	call	___flmul	;wreg free
  6804  003116  C015  F1A4         	movff	?___flmul,_powf$1302
  6805  00311A  C016  F1A5         	movff	?___flmul+1,_powf$1302+1
  6806  00311E  C017  F1A6         	movff	?___flmul+2,_powf$1302+2
  6807  003122  C018  F1A7         	movff	?___flmul+3,_powf$1302+3
  6808  003126  C1A4  F015         	movff	_powf$1302,___flmul@b
  6809  00312A  C1A5  F016         	movff	_powf$1302+1,___flmul@b+1
  6810  00312E  C1A6  F017         	movff	_powf$1302+2,___flmul@b+2
  6811  003132  C1A7  F018         	movff	_powf$1302+3,___flmul@b+3
  6812  003136  0E60               	movlw	96
  6813  003138  6E19               	movwf	___flmul@a^0,c
  6814  00313A  0E42               	movlw	66
  6815  00313C  6E1A               	movwf	(___flmul@a+1)^0,c
  6816  00313E  0EA2               	movlw	162
  6817  003140  6E1B               	movwf	(___flmul@a+2)^0,c
  6818  003142  0E0D               	movlw	13
  6819  003144  6E1C               	movwf	(___flmul@a+3)^0,c
  6820  003146  EC20  F025         	call	___flmul	;wreg free
  6821  00314A  C015  F0BB         	movff	?___flmul,?_powf
  6822  00314E  C016  F0BC         	movff	?___flmul+1,?_powf+1
  6823  003152  C017  F0BD         	movff	?___flmul+2,?_powf+2
  6824  003156  C018  F0BE         	movff	?___flmul+3,?_powf+3
  6825  00315A  EF6D  F01D         	goto	l1037
  6826  00315E                     l5096:
  6827  00315E  0EFF               	movlw	255
  6828  003160  0101               	movlb	1	; () banked
  6829  003162  15AC               	andwf	powf@j& (0+255),w,b
  6830  003164  6F2C               	movwf	powf@i& (0+255),b
  6831  003166  0EFF               	movlw	255
  6832  003168  15AD               	andwf	(powf@j+1)& (0+255),w,b
  6833  00316A  6F2D               	movwf	(powf@i+1)& (0+255),b
  6834  00316C  0EFF               	movlw	255
  6835  00316E  15AE               	andwf	(powf@j+2)& (0+255),w,b
  6836  003170  6F2E               	movwf	(powf@i+2)& (0+255),b
  6837  003172  0E7F               	movlw	127
  6838  003174  15AF               	andwf	(powf@j+3)& (0+255),w,b
  6839  003176  6F2F               	movwf	(powf@i+3)& (0+255),b
  6840  003178  0E17               	movlw	23
  6841  00317A  0100               	movlb	0	; () banked
  6842  00317C  6FC3               	movwf	??_powf& (0+255),b
  6843  00317E  C12C  F0C4         	movff	powf@i,??_powf+1
  6844  003182  C12D  F0C5         	movff	powf@i+1,??_powf+2
  6845  003186  C12E  F0C6         	movff	powf@i+2,??_powf+3
  6846  00318A  C12F  F0C7         	movff	powf@i+3,??_powf+4
  6847  00318E                     u6185:
  6848  00318E  67C3               	tstfsz	??_powf& (0+255),b
  6849  003190  EFCC  F018         	goto	u6186
  6850  003194  EFD4  F018         	goto	u6187
  6851  003198                     u6186:
  6852  003198  35C7               	rlcf	(??_powf+4)& (0+255),w,b
  6853  00319A  33C7               	rrcf	(??_powf+4)& (0+255),f,b
  6854  00319C  33C6               	rrcf	(??_powf+3)& (0+255),f,b
  6855  00319E  33C5               	rrcf	(??_powf+2)& (0+255),f,b
  6856  0031A0  33C4               	rrcf	(??_powf+1)& (0+255),f,b
  6857  0031A2  2FC3               	decfsz	??_powf& (0+255),f,b
  6858  0031A4  EFC7  F018         	goto	u6185
  6859  0031A8                     u6187:
  6860  0031A8  0E81               	movlw	129
  6861  0031AA  0100               	movlb	0	; () banked
  6862  0031AC  25C4               	addwf	(??_powf+1)& (0+255),w,b
  6863  0031AE  0101               	movlb	1	; () banked
  6864  0031B0  6FA0               	movwf	powf@k& (0+255),b
  6865  0031B2  0EFF               	movlw	255
  6866  0031B4  0100               	movlb	0	; () banked
  6867  0031B6  21C5               	addwfc	(??_powf+2)& (0+255),w,b
  6868  0031B8  0101               	movlb	1	; () banked
  6869  0031BA  6FA1               	movwf	(powf@k+1)& (0+255),b
  6870  0031BC  0EFF               	movlw	255
  6871  0031BE  0100               	movlb	0	; () banked
  6872  0031C0  21C6               	addwfc	(??_powf+3)& (0+255),w,b
  6873  0031C2  0101               	movlb	1	; () banked
  6874  0031C4  6FA2               	movwf	(powf@k+2)& (0+255),b
  6875  0031C6  0EFF               	movlw	255
  6876  0031C8  0100               	movlb	0	; () banked
  6877  0031CA  21C7               	addwfc	(??_powf+4)& (0+255),w,b
  6878  0031CC  0101               	movlb	1	; () banked
  6879  0031CE  6FA3               	movwf	(powf@k+3)& (0+255),b
  6880  0031D0                     
  6881                           ; BSR set to: 1
  6882  0031D0  0E00               	movlw	0
  6883  0031D2  6F80               	movwf	powf@n& (0+255),b
  6884  0031D4  0E00               	movlw	0
  6885  0031D6  6F81               	movwf	(powf@n+1)& (0+255),b
  6886  0031D8  0E00               	movlw	0
  6887  0031DA  6F82               	movwf	(powf@n+2)& (0+255),b
  6888  0031DC  0E00               	movlw	0
  6889  0031DE  6F83               	movwf	(powf@n+3)& (0+255),b
  6890  0031E0                     
  6891                           ; BSR set to: 1
  6892  0031E0  BF2F               	btfsc	(powf@i+3)& (0+255),7,b
  6893  0031E2  EFFF  F018         	goto	u6191
  6894  0031E6  052C               	decf	powf@i& (0+255),w,b
  6895  0031E8  0E00               	movlw	0
  6896  0031EA  592D               	subwfb	(powf@i+1)& (0+255),w,b
  6897  0031EC  0E00               	movlw	0
  6898  0031EE  592E               	subwfb	(powf@i+2)& (0+255),w,b
  6899  0031F0  0E3F               	movlw	63
  6900  0031F2  592F               	subwfb	(powf@i+3)& (0+255),w,b
  6901  0031F4  A0D8               	btfss	status,0,c
  6902  0031F6  EFFF  F018         	goto	u6191
  6903  0031FA  EF01  F019         	goto	u6190
  6904  0031FE                     u6191:
  6905  0031FE  EF05  F01A         	goto	l5110
  6906  003202                     u6190:
  6907  003202                     
  6908                           ; BSR set to: 1
  6909  003202  C1A0  F0C3         	movff	powf@k,??_powf
  6910  003206  0E01               	movlw	1
  6911  003208  0100               	movlb	0	; () banked
  6912  00320A  27C3               	addwf	??_powf& (0+255),f,b
  6913  00320C  0E00               	movlw	0
  6914  00320E  6FC4               	movwf	(??_powf+1)& (0+255),b
  6915  003210  0E00               	movlw	0
  6916  003212  6FC5               	movwf	(??_powf+2)& (0+255),b
  6917  003214  0E80               	movlw	128
  6918  003216  6FC6               	movwf	(??_powf+3)& (0+255),b
  6919  003218  0E00               	movlw	0
  6920  00321A  6FC7               	movwf	(??_powf+4)& (0+255),b
  6921  00321C                     u6205:
  6922  00321C  67C3               	tstfsz	??_powf& (0+255),b
  6923  00321E  EF13  F019         	goto	u6206
  6924  003222  EF1B  F019         	goto	u6207
  6925  003226                     u6206:
  6926  003226  35C7               	rlcf	(??_powf+4)& (0+255),w,b
  6927  003228  33C7               	rrcf	(??_powf+4)& (0+255),f,b
  6928  00322A  33C6               	rrcf	(??_powf+3)& (0+255),f,b
  6929  00322C  33C5               	rrcf	(??_powf+2)& (0+255),f,b
  6930  00322E  33C4               	rrcf	(??_powf+1)& (0+255),f,b
  6931  003230  2FC3               	decfsz	??_powf& (0+255),f,b
  6932  003232  EF0E  F019         	goto	u6205
  6933  003236                     u6207:
  6934  003236  0101               	movlb	1	; () banked
  6935  003238  51AC               	movf	powf@j& (0+255),w,b
  6936  00323A  0100               	movlb	0	; () banked
  6937  00323C  25C4               	addwf	(??_powf+1)& (0+255),w,b
  6938  00323E  0101               	movlb	1	; () banked
  6939  003240  6F80               	movwf	powf@n& (0+255),b
  6940  003242  51AD               	movf	(powf@j+1)& (0+255),w,b
  6941  003244  0100               	movlb	0	; () banked
  6942  003246  21C5               	addwfc	(??_powf+2)& (0+255),w,b
  6943  003248  0101               	movlb	1	; () banked
  6944  00324A  6F81               	movwf	(powf@n+1)& (0+255),b
  6945  00324C  51AE               	movf	(powf@j+2)& (0+255),w,b
  6946  00324E  0100               	movlb	0	; () banked
  6947  003250  21C6               	addwfc	(??_powf+3)& (0+255),w,b
  6948  003252  0101               	movlb	1	; () banked
  6949  003254  6F82               	movwf	(powf@n+2)& (0+255),b
  6950  003256  51AF               	movf	(powf@j+3)& (0+255),w,b
  6951  003258  0100               	movlb	0	; () banked
  6952  00325A  21C7               	addwfc	(??_powf+4)& (0+255),w,b
  6953  00325C  0101               	movlb	1	; () banked
  6954  00325E  6F83               	movwf	(powf@n+3)& (0+255),b
  6955  003260  0E81               	movlw	129
  6956  003262  0100               	movlb	0	; () banked
  6957  003264  6FC3               	movwf	??_powf& (0+255),b
  6958  003266  0EFF               	movlw	255
  6959  003268  6FC4               	movwf	(??_powf+1)& (0+255),b
  6960  00326A  0EFF               	movlw	255
  6961  00326C  6FC5               	movwf	(??_powf+2)& (0+255),b
  6962  00326E  0EFF               	movlw	255
  6963  003270  6FC6               	movwf	(??_powf+3)& (0+255),b
  6964  003272  0E17               	movlw	23
  6965  003274  6FC7               	movwf	(??_powf+4)& (0+255),b
  6966  003276  C180  F0C8         	movff	powf@n,??_powf+5
  6967  00327A  C181  F0C9         	movff	powf@n+1,??_powf+6
  6968  00327E  C182  F0CA         	movff	powf@n+2,??_powf+7
  6969  003282  C183  F0CB         	movff	powf@n+3,??_powf+8
  6970  003286                     u6215:
  6971  003286  67C7               	tstfsz	(??_powf+4)& (0+255),b
  6972  003288  EF48  F019         	goto	u6216
  6973  00328C  EF50  F019         	goto	u6217
  6974  003290                     u6216:
  6975  003290  35CB               	rlcf	(??_powf+8)& (0+255),w,b
  6976  003292  33CB               	rrcf	(??_powf+8)& (0+255),f,b
  6977  003294  33CA               	rrcf	(??_powf+7)& (0+255),f,b
  6978  003296  33C9               	rrcf	(??_powf+6)& (0+255),f,b
  6979  003298  33C8               	rrcf	(??_powf+5)& (0+255),f,b
  6980  00329A  2FC7               	decfsz	(??_powf+4)& (0+255),f,b
  6981  00329C  EF43  F019         	goto	u6215
  6982  0032A0                     u6217:
  6983  0032A0  0100               	movlb	0	; () banked
  6984  0032A2  51C8               	movf	(??_powf+5)& (0+255),w,b
  6985  0032A4  25C3               	addwf	??_powf& (0+255),w,b
  6986  0032A6  0101               	movlb	1	; () banked
  6987  0032A8  6FA0               	movwf	powf@k& (0+255),b
  6988  0032AA  0E00               	movlw	0
  6989  0032AC  0100               	movlb	0	; () banked
  6990  0032AE  21C4               	addwfc	(??_powf+1)& (0+255),w,b
  6991  0032B0  0101               	movlb	1	; () banked
  6992  0032B2  6FA1               	movwf	(powf@k+1)& (0+255),b
  6993  0032B4  0E00               	movlw	0
  6994  0032B6  0100               	movlb	0	; () banked
  6995  0032B8  21C5               	addwfc	(??_powf+2)& (0+255),w,b
  6996  0032BA  0101               	movlb	1	; () banked
  6997  0032BC  6FA2               	movwf	(powf@k+2)& (0+255),b
  6998  0032BE  0E00               	movlw	0
  6999  0032C0  0100               	movlb	0	; () banked
  7000  0032C2  21C6               	addwfc	(??_powf+3)& (0+255),w,b
  7001  0032C4  0101               	movlb	1	; () banked
  7002  0032C6  6FA3               	movwf	(powf@k+3)& (0+255),b
  7003  0032C8                     
  7004                           ; BSR set to: 1
  7005  0032C8  C1A0  F0C3         	movff	powf@k,??_powf
  7006  0032CC  0EFF               	movlw	255
  7007  0032CE  0100               	movlb	0	; () banked
  7008  0032D0  6FC4               	movwf	(??_powf+1)& (0+255),b
  7009  0032D2  0EFF               	movlw	255
  7010  0032D4  6FC5               	movwf	(??_powf+2)& (0+255),b
  7011  0032D6  0E7F               	movlw	127
  7012  0032D8  6FC6               	movwf	(??_powf+3)& (0+255),b
  7013  0032DA  0E00               	movlw	0
  7014  0032DC  6FC7               	movwf	(??_powf+4)& (0+255),b
  7015  0032DE                     u6225:
  7016  0032DE  67C3               	tstfsz	??_powf& (0+255),b
  7017  0032E0  EF74  F019         	goto	u6226
  7018  0032E4  EF7C  F019         	goto	u6227
  7019  0032E8                     u6226:
  7020  0032E8  35C7               	rlcf	(??_powf+4)& (0+255),w,b
  7021  0032EA  33C7               	rrcf	(??_powf+4)& (0+255),f,b
  7022  0032EC  33C6               	rrcf	(??_powf+3)& (0+255),f,b
  7023  0032EE  33C5               	rrcf	(??_powf+2)& (0+255),f,b
  7024  0032F0  33C4               	rrcf	(??_powf+1)& (0+255),f,b
  7025  0032F2  2FC3               	decfsz	??_powf& (0+255),f,b
  7026  0032F4  EF6F  F019         	goto	u6225
  7027  0032F8                     u6227:
  7028  0032F8  0100               	movlb	0	; () banked
  7029  0032FA  1DC4               	comf	(??_powf+1)& (0+255),w,b
  7030  0032FC  6FC8               	movwf	(??_powf+5)& (0+255),b
  7031  0032FE  1DC5               	comf	(??_powf+2)& (0+255),w,b
  7032  003300  6FC9               	movwf	(??_powf+6)& (0+255),b
  7033  003302  1DC6               	comf	(??_powf+3)& (0+255),w,b
  7034  003304  6FCA               	movwf	(??_powf+7)& (0+255),b
  7035  003306  1DC7               	comf	(??_powf+4)& (0+255),w,b
  7036  003308  6FCB               	movwf	(??_powf+8)& (0+255),b
  7037  00330A  0101               	movlb	1	; () banked
  7038  00330C  5180               	movf	powf@n& (0+255),w,b
  7039  00330E  0100               	movlb	0	; () banked
  7040  003310  15C8               	andwf	(??_powf+5)& (0+255),w,b
  7041  003312  0101               	movlb	1	; () banked
  7042  003314  6FB8               	movwf	powf@__xc8_float_word& (0+255),b
  7043  003316  5181               	movf	(powf@n+1)& (0+255),w,b
  7044  003318  0100               	movlb	0	; () banked
  7045  00331A  15C9               	andwf	(??_powf+6)& (0+255),w,b
  7046  00331C  0101               	movlb	1	; () banked
  7047  00331E  6FB9               	movwf	(powf@__xc8_float_word+1)& (0+255),b
  7048  003320  5182               	movf	(powf@n+2)& (0+255),w,b
  7049  003322  0100               	movlb	0	; () banked
  7050  003324  15CA               	andwf	(??_powf+7)& (0+255),w,b
  7051  003326  0101               	movlb	1	; () banked
  7052  003328  6FBA               	movwf	(powf@__xc8_float_word+2)& (0+255),b
  7053  00332A  5183               	movf	(powf@n+3)& (0+255),w,b
  7054  00332C  0100               	movlb	0	; () banked
  7055  00332E  15CB               	andwf	(??_powf+8)& (0+255),w,b
  7056  003330  0101               	movlb	1	; () banked
  7057  003332  6FBB               	movwf	(powf@__xc8_float_word+3)& (0+255),b
  7058  003334                     
  7059                           ; BSR set to: 1
  7060  003334  C1B8  F1B0         	movff	powf@__xc8_float_word,powf@t
  7061  003338  C1B9  F1B1         	movff	powf@__xc8_float_word+1,powf@t+1
  7062  00333C  C1BA  F1B2         	movff	powf@__xc8_float_word+2,powf@t+2
  7063  003340  C1BB  F1B3         	movff	powf@__xc8_float_word+3,powf@t+3
  7064  003344                     
  7065                           ; BSR set to: 1
  7066  003344  51A0               	movf	powf@k& (0+255),w,b
  7067  003346  0817               	sublw	23
  7068  003348  0100               	movlb	0	; () banked
  7069  00334A  6FC3               	movwf	??_powf& (0+255),b
  7070  00334C  0EFF               	movlw	255
  7071  00334E  0101               	movlb	1	; () banked
  7072  003350  1580               	andwf	powf@n& (0+255),w,b
  7073  003352  0100               	movlb	0	; () banked
  7074  003354  6FC4               	movwf	(??_powf+1)& (0+255),b
  7075  003356  0EFF               	movlw	255
  7076  003358  0101               	movlb	1	; () banked
  7077  00335A  1581               	andwf	(powf@n+1)& (0+255),w,b
  7078  00335C  0100               	movlb	0	; () banked
  7079  00335E  6FC5               	movwf	(??_powf+2)& (0+255),b
  7080  003360  0E7F               	movlw	127
  7081  003362  0101               	movlb	1	; () banked
  7082  003364  1582               	andwf	(powf@n+2)& (0+255),w,b
  7083  003366  0100               	movlb	0	; () banked
  7084  003368  6FC6               	movwf	(??_powf+3)& (0+255),b
  7085  00336A  0E00               	movlw	0
  7086  00336C  0101               	movlb	1	; () banked
  7087  00336E  1583               	andwf	(powf@n+3)& (0+255),w,b
  7088  003370  0100               	movlb	0	; () banked
  7089  003372  6FC7               	movwf	(??_powf+4)& (0+255),b
  7090  003374  0E00               	movlw	0
  7091  003376  11C4               	iorwf	(??_powf+1)& (0+255),w,b
  7092  003378  6FC8               	movwf	(??_powf+5)& (0+255),b
  7093  00337A  0E00               	movlw	0
  7094  00337C  11C5               	iorwf	(??_powf+2)& (0+255),w,b
  7095  00337E  6FC9               	movwf	(??_powf+6)& (0+255),b
  7096  003380  0E80               	movlw	128
  7097  003382  11C6               	iorwf	(??_powf+3)& (0+255),w,b
  7098  003384  6FCA               	movwf	(??_powf+7)& (0+255),b
  7099  003386  0E00               	movlw	0
  7100  003388  11C7               	iorwf	(??_powf+4)& (0+255),w,b
  7101  00338A  6FCB               	movwf	(??_powf+8)& (0+255),b
  7102  00338C                     u6235:
  7103  00338C  67C3               	tstfsz	??_powf& (0+255),b
  7104  00338E  EFCB  F019         	goto	u6236
  7105  003392  EFD3  F019         	goto	u6237
  7106  003396                     u6236:
  7107  003396  35CB               	rlcf	(??_powf+8)& (0+255),w,b
  7108  003398  33CB               	rrcf	(??_powf+8)& (0+255),f,b
  7109  00339A  33CA               	rrcf	(??_powf+7)& (0+255),f,b
  7110  00339C  33C9               	rrcf	(??_powf+6)& (0+255),f,b
  7111  00339E  33C8               	rrcf	(??_powf+5)& (0+255),f,b
  7112  0033A0  2FC3               	decfsz	??_powf& (0+255),f,b
  7113  0033A2  EFC6  F019         	goto	u6235
  7114  0033A6                     u6237:
  7115  0033A6  C0C8  F180         	movff	??_powf+5,powf@n
  7116  0033AA  C0C9  F181         	movff	??_powf+6,powf@n+1
  7117  0033AE  C0CA  F182         	movff	??_powf+7,powf@n+2
  7118  0033B2  C0CB  F183         	movff	??_powf+8,powf@n+3
  7119  0033B6  0101               	movlb	1	; () banked
  7120  0033B8  BFAF               	btfsc	(powf@j+3)& (0+255),7,b
  7121  0033BA  EFE3  F019         	goto	u6240
  7122  0033BE  EFE1  F019         	goto	u6241
  7123  0033C2                     u6241:
  7124  0033C2  EFEB  F019         	goto	l5108
  7125  0033C6                     u6240:
  7126  0033C6                     
  7127                           ; BSR set to: 1
  7128  0033C6  1F83               	comf	(powf@n+3)& (0+255),f,b
  7129  0033C8  1F82               	comf	(powf@n+2)& (0+255),f,b
  7130  0033CA  1F81               	comf	(powf@n+1)& (0+255),f,b
  7131  0033CC  6D80               	negf	powf@n& (0+255),b
  7132  0033CE  0E00               	movlw	0
  7133  0033D0  2381               	addwfc	(powf@n+1)& (0+255),f,b
  7134  0033D2  2382               	addwfc	(powf@n+2)& (0+255),f,b
  7135  0033D4  2383               	addwfc	(powf@n+3)& (0+255),f,b
  7136  0033D6                     l5108:
  7137                           
  7138                           ; BSR set to: 1
  7139  0033D6  C19C  F076         	movff	powf@p_h,___flsub@b
  7140  0033DA  C19D  F077         	movff	powf@p_h+1,___flsub@b+1
  7141  0033DE  C19E  F078         	movff	powf@p_h+2,___flsub@b+2
  7142  0033E2  C19F  F079         	movff	powf@p_h+3,___flsub@b+3
  7143  0033E6  C1B0  F07A         	movff	powf@t,___flsub@a
  7144  0033EA  C1B1  F07B         	movff	powf@t+1,___flsub@a+1
  7145  0033EE  C1B2  F07C         	movff	powf@t+2,___flsub@a+2
  7146  0033F2  C1B3  F07D         	movff	powf@t+3,___flsub@a+3
  7147  0033F6  EC3F  F031         	call	___flsub	;wreg free
  7148  0033FA  C076  F19C         	movff	?___flsub,powf@p_h
  7149  0033FE  C077  F19D         	movff	?___flsub+1,powf@p_h+1
  7150  003402  C078  F19E         	movff	?___flsub+2,powf@p_h+2
  7151  003406  C079  F19F         	movff	?___flsub+3,powf@p_h+3
  7152  00340A                     l5110:
  7153  00340A  C164  F066         	movff	powf@p_l,___fladd@b
  7154  00340E  C165  F067         	movff	powf@p_l+1,___fladd@b+1
  7155  003412  C166  F068         	movff	powf@p_l+2,___fladd@b+2
  7156  003416  C167  F069         	movff	powf@p_l+3,___fladd@b+3
  7157  00341A  C19C  F06A         	movff	powf@p_h,___fladd@a
  7158  00341E  C19D  F06B         	movff	powf@p_h+1,___fladd@a+1
  7159  003422  C19E  F06C         	movff	powf@p_h+2,___fladd@a+2
  7160  003426  C19F  F06D         	movff	powf@p_h+3,___fladd@a+3
  7161  00342A  EC61  F020         	call	___fladd	;wreg free
  7162  00342E  C066  F1B0         	movff	?___fladd,powf@t
  7163  003432  C067  F1B1         	movff	?___fladd+1,powf@t+1
  7164  003436  C068  F1B2         	movff	?___fladd+2,powf@t+2
  7165  00343A  C069  F1B3         	movff	?___fladd+3,powf@t+3
  7166  00343E  C1B0  F1B8         	movff	powf@t,powf@__xc8_float_word
  7167  003442  C1B1  F1B9         	movff	powf@t+1,powf@__xc8_float_word+1
  7168  003446  C1B2  F1BA         	movff	powf@t+2,powf@__xc8_float_word+2
  7169  00344A  C1B3  F1BB         	movff	powf@t+3,powf@__xc8_float_word+3
  7170  00344E  C1B8  F194         	movff	powf@__xc8_float_word,powf@is
  7171  003452  C1B9  F195         	movff	powf@__xc8_float_word+1,powf@is+1
  7172  003456  C1BA  F196         	movff	powf@__xc8_float_word+2,powf@is+2
  7173  00345A  C1BB  F197         	movff	powf@__xc8_float_word+3,powf@is+3
  7174  00345E  0E00               	movlw	0
  7175  003460  0101               	movlb	1	; () banked
  7176  003462  1594               	andwf	powf@is& (0+255),w,b
  7177  003464  6FB8               	movwf	powf@__xc8_float_word& (0+255),b
  7178  003466  0E80               	movlw	128
  7179  003468  1595               	andwf	(powf@is+1)& (0+255),w,b
  7180  00346A  6FB9               	movwf	(powf@__xc8_float_word+1)& (0+255),b
  7181  00346C  0EFF               	movlw	255
  7182  00346E  1596               	andwf	(powf@is+2)& (0+255),w,b
  7183  003470  6FBA               	movwf	(powf@__xc8_float_word+2)& (0+255),b
  7184  003472  0EFF               	movlw	255
  7185  003474  1597               	andwf	(powf@is+3)& (0+255),w,b
  7186  003476  6FBB               	movwf	(powf@__xc8_float_word+3)& (0+255),b
  7187  003478                     
  7188                           ; BSR set to: 1
  7189  003478  C1B8  F1B0         	movff	powf@__xc8_float_word,powf@t
  7190  00347C  C1B9  F1B1         	movff	powf@__xc8_float_word+1,powf@t+1
  7191  003480  C1BA  F1B2         	movff	powf@__xc8_float_word+2,powf@t+2
  7192  003484  C1BB  F1B3         	movff	powf@__xc8_float_word+3,powf@t+3
  7193  003488                     
  7194                           ; BSR set to: 1
  7195  003488  C1B0  F015         	movff	powf@t,___flmul@b
  7196  00348C  C1B1  F016         	movff	powf@t+1,___flmul@b+1
  7197  003490  C1B2  F017         	movff	powf@t+2,___flmul@b+2
  7198  003494  C1B3  F018         	movff	powf@t+3,___flmul@b+3
  7199  003498  0E00               	movlw	0
  7200  00349A  6E19               	movwf	___flmul@a^0,c
  7201  00349C  0E72               	movlw	114
  7202  00349E  6E1A               	movwf	(___flmul@a+1)^0,c
  7203  0034A0  0E31               	movlw	49
  7204  0034A2  6E1B               	movwf	(___flmul@a+2)^0,c
  7205  0034A4  0E3F               	movlw	63
  7206  0034A6  6E1C               	movwf	(___flmul@a+3)^0,c
  7207  0034A8  EC20  F025         	call	___flmul	;wreg free
  7208  0034AC  C015  F174         	movff	?___flmul,powf@u
  7209  0034B0  C016  F175         	movff	?___flmul+1,powf@u+1
  7210  0034B4  C017  F176         	movff	?___flmul+2,powf@u+2
  7211  0034B8  C018  F177         	movff	?___flmul+3,powf@u+3
  7212  0034BC  C19C  F07A         	movff	powf@p_h,___flsub@a
  7213  0034C0  C19D  F07B         	movff	powf@p_h+1,___flsub@a+1
  7214  0034C4  C19E  F07C         	movff	powf@p_h+2,___flsub@a+2
  7215  0034C8  C19F  F07D         	movff	powf@p_h+3,___flsub@a+3
  7216  0034CC  C1B0  F076         	movff	powf@t,___flsub@b
  7217  0034D0  C1B1  F077         	movff	powf@t+1,___flsub@b+1
  7218  0034D4  C1B2  F078         	movff	powf@t+2,___flsub@b+2
  7219  0034D8  C1B3  F079         	movff	powf@t+3,___flsub@b+3
  7220  0034DC  EC3F  F031         	call	___flsub	;wreg free
  7221  0034E0  C076  F198         	movff	?___flsub,_powf$1305
  7222  0034E4  C077  F199         	movff	?___flsub+1,_powf$1305+1
  7223  0034E8  C078  F19A         	movff	?___flsub+2,_powf$1305+2
  7224  0034EC  C079  F19B         	movff	?___flsub+3,_powf$1305+3
  7225  0034F0  0E18               	movlw	24
  7226  0034F2  6E19               	movwf	___flmul@a^0,c
  7227  0034F4  0E72               	movlw	114
  7228  0034F6  6E1A               	movwf	(___flmul@a+1)^0,c
  7229  0034F8  0E31               	movlw	49
  7230  0034FA  6E1B               	movwf	(___flmul@a+2)^0,c
  7231  0034FC  0E3F               	movlw	63
  7232  0034FE  6E1C               	movwf	(___flmul@a+3)^0,c
  7233  003500  C198  F07A         	movff	_powf$1305,___flsub@a
  7234  003504  C199  F07B         	movff	_powf$1305+1,___flsub@a+1
  7235  003508  C19A  F07C         	movff	_powf$1305+2,___flsub@a+2
  7236  00350C  C19B  F07D         	movff	_powf$1305+3,___flsub@a+3
  7237  003510  C164  F076         	movff	powf@p_l,___flsub@b
  7238  003514  C165  F077         	movff	powf@p_l+1,___flsub@b+1
  7239  003518  C166  F078         	movff	powf@p_l+2,___flsub@b+2
  7240  00351C  C167  F079         	movff	powf@p_l+3,___flsub@b+3
  7241  003520  EC3F  F031         	call	___flsub	;wreg free
  7242  003524  C076  F015         	movff	?___flsub,___flmul@b
  7243  003528  C077  F016         	movff	?___flsub+1,___flmul@b+1
  7244  00352C  C078  F017         	movff	?___flsub+2,___flmul@b+2
  7245  003530  C079  F018         	movff	?___flsub+3,___flmul@b+3
  7246  003534  EC20  F025         	call	___flmul	;wreg free
  7247  003538  C015  F114         	movff	?___flmul,_powf$1315
  7248  00353C  C016  F115         	movff	?___flmul+1,_powf$1315+1
  7249  003540  C017  F116         	movff	?___flmul+2,_powf$1315+2
  7250  003544  C018  F117         	movff	?___flmul+3,_powf$1315+3
  7251  003548  C114  F066         	movff	_powf$1315,___fladd@b
  7252  00354C  C115  F067         	movff	_powf$1315+1,___fladd@b+1
  7253  003550  C116  F068         	movff	_powf$1315+2,___fladd@b+2
  7254  003554  C117  F069         	movff	_powf$1315+3,___fladd@b+3
  7255  003558  0E8C               	movlw	140
  7256  00355A  6E19               	movwf	___flmul@a^0,c
  7257  00355C  0EBE               	movlw	190
  7258  00355E  6E1A               	movwf	(___flmul@a+1)^0,c
  7259  003560  0EBF               	movlw	191
  7260  003562  6E1B               	movwf	(___flmul@a+2)^0,c
  7261  003564  0E35               	movlw	53
  7262  003566  6E1C               	movwf	(___flmul@a+3)^0,c
  7263  003568  C1B0  F015         	movff	powf@t,___flmul@b
  7264  00356C  C1B1  F016         	movff	powf@t+1,___flmul@b+1
  7265  003570  C1B2  F017         	movff	powf@t+2,___flmul@b+2
  7266  003574  C1B3  F018         	movff	powf@t+3,___flmul@b+3
  7267  003578  EC20  F025         	call	___flmul	;wreg free
  7268  00357C  C015  F06A         	movff	?___flmul,___fladd@a
  7269  003580  C016  F06B         	movff	?___flmul+1,___fladd@a+1
  7270  003584  C017  F06C         	movff	?___flmul+2,___fladd@a+2
  7271  003588  C018  F06D         	movff	?___flmul+3,___fladd@a+3
  7272  00358C  EC61  F020         	call	___fladd	;wreg free
  7273  003590  C066  F178         	movff	?___fladd,powf@v
  7274  003594  C067  F179         	movff	?___fladd+1,powf@v+1
  7275  003598  C068  F17A         	movff	?___fladd+2,powf@v+2
  7276  00359C  C069  F17B         	movff	?___fladd+3,powf@v+3
  7277  0035A0  C174  F066         	movff	powf@u,___fladd@b
  7278  0035A4  C175  F067         	movff	powf@u+1,___fladd@b+1
  7279  0035A8  C176  F068         	movff	powf@u+2,___fladd@b+2
  7280  0035AC  C177  F069         	movff	powf@u+3,___fladd@b+3
  7281  0035B0  C178  F06A         	movff	powf@v,___fladd@a
  7282  0035B4  C179  F06B         	movff	powf@v+1,___fladd@a+1
  7283  0035B8  C17A  F06C         	movff	powf@v+2,___fladd@a+2
  7284  0035BC  C17B  F06D         	movff	powf@v+3,___fladd@a+3
  7285  0035C0  EC61  F020         	call	___fladd	;wreg free
  7286  0035C4  C066  F1B4         	movff	?___fladd,powf@z
  7287  0035C8  C067  F1B5         	movff	?___fladd+1,powf@z+1
  7288  0035CC  C068  F1B6         	movff	?___fladd+2,powf@z+2
  7289  0035D0  C069  F1B7         	movff	?___fladd+3,powf@z+3
  7290  0035D4  C174  F07A         	movff	powf@u,___flsub@a
  7291  0035D8  C175  F07B         	movff	powf@u+1,___flsub@a+1
  7292  0035DC  C176  F07C         	movff	powf@u+2,___flsub@a+2
  7293  0035E0  C177  F07D         	movff	powf@u+3,___flsub@a+3
  7294  0035E4  C1B4  F076         	movff	powf@z,___flsub@b
  7295  0035E8  C1B5  F077         	movff	powf@z+1,___flsub@b+1
  7296  0035EC  C1B6  F078         	movff	powf@z+2,___flsub@b+2
  7297  0035F0  C1B7  F079         	movff	powf@z+3,___flsub@b+3
  7298  0035F4  EC3F  F031         	call	___flsub	;wreg free
  7299  0035F8  C076  F198         	movff	?___flsub,_powf$1305
  7300  0035FC  C077  F199         	movff	?___flsub+1,_powf$1305+1
  7301  003600  C078  F19A         	movff	?___flsub+2,_powf$1305+2
  7302  003604  C079  F19B         	movff	?___flsub+3,_powf$1305+3
  7303  003608  C178  F076         	movff	powf@v,___flsub@b
  7304  00360C  C179  F077         	movff	powf@v+1,___flsub@b+1
  7305  003610  C17A  F078         	movff	powf@v+2,___flsub@b+2
  7306  003614  C17B  F079         	movff	powf@v+3,___flsub@b+3
  7307  003618  C198  F07A         	movff	_powf$1305,___flsub@a
  7308  00361C  C199  F07B         	movff	_powf$1305+1,___flsub@a+1
  7309  003620  C19A  F07C         	movff	_powf$1305+2,___flsub@a+2
  7310  003624  C19B  F07D         	movff	_powf$1305+3,___flsub@a+3
  7311  003628  EC3F  F031         	call	___flsub	;wreg free
  7312  00362C  C076  F144         	movff	?___flsub,powf@w
  7313  003630  C077  F145         	movff	?___flsub+1,powf@w+1
  7314  003634  C078  F146         	movff	?___flsub+2,powf@w+2
  7315  003638  C079  F147         	movff	?___flsub+3,powf@w+3
  7316  00363C  C1B4  F015         	movff	powf@z,___flmul@b
  7317  003640  C1B5  F016         	movff	powf@z+1,___flmul@b+1
  7318  003644  C1B6  F017         	movff	powf@z+2,___flmul@b+2
  7319  003648  C1B7  F018         	movff	powf@z+3,___flmul@b+3
  7320  00364C  C1B4  F019         	movff	powf@z,___flmul@a
  7321  003650  C1B5  F01A         	movff	powf@z+1,___flmul@a+1
  7322  003654  C1B6  F01B         	movff	powf@z+2,___flmul@a+2
  7323  003658  C1B7  F01C         	movff	powf@z+3,___flmul@a+3
  7324  00365C  EC20  F025         	call	___flmul	;wreg free
  7325  003660  C015  F1B0         	movff	?___flmul,powf@t
  7326  003664  C016  F1B1         	movff	?___flmul+1,powf@t+1
  7327  003668  C017  F1B2         	movff	?___flmul+2,powf@t+2
  7328  00366C  C018  F1B3         	movff	?___flmul+3,powf@t+3
  7329  003670  0E0E               	movlw	14
  7330  003672  0100               	movlb	0	; () banked
  7331  003674  6F6A               	movwf	___fladd@a& (0+255),b
  7332  003676  0EEA               	movlw	234
  7333  003678  6F6B               	movwf	(___fladd@a+1)& (0+255),b
  7334  00367A  0EDD               	movlw	221
  7335  00367C  6F6C               	movwf	(___fladd@a+2)& (0+255),b
  7336  00367E  0EB5               	movlw	181
  7337  003680  6F6D               	movwf	(___fladd@a+3)& (0+255),b
  7338  003682  0E4C               	movlw	76
  7339  003684  6E19               	movwf	___flmul@a^0,c
  7340  003686  0EBB               	movlw	187
  7341  003688  6E1A               	movwf	(___flmul@a+1)^0,c
  7342  00368A  0E31               	movlw	49
  7343  00368C  6E1B               	movwf	(___flmul@a+2)^0,c
  7344  00368E  0E33               	movlw	51
  7345  003690  6E1C               	movwf	(___flmul@a+3)^0,c
  7346  003692  C1B0  F015         	movff	powf@t,___flmul@b
  7347  003696  C1B1  F016         	movff	powf@t+1,___flmul@b+1
  7348  00369A  C1B2  F017         	movff	powf@t+2,___flmul@b+2
  7349  00369E  C1B3  F018         	movff	powf@t+3,___flmul@b+3
  7350  0036A2  EC20  F025         	call	___flmul	;wreg free
  7351  0036A6  C015  F066         	movff	?___flmul,___fladd@b
  7352  0036AA  C016  F067         	movff	?___flmul+1,___fladd@b+1
  7353  0036AE  C017  F068         	movff	?___flmul+2,___fladd@b+2
  7354  0036B2  C018  F069         	movff	?___flmul+3,___fladd@b+3
  7355  0036B6  EC61  F020         	call	___fladd	;wreg free
  7356  0036BA  C066  F1A4         	movff	?___fladd,_powf$1302
  7357  0036BE  C067  F1A5         	movff	?___fladd+1,_powf$1302+1
  7358  0036C2  C068  F1A6         	movff	?___fladd+2,_powf$1302+2
  7359  0036C6  C069  F1A7         	movff	?___fladd+3,_powf$1302+3
  7360  0036CA  0E55               	movlw	85
  7361  0036CC  0100               	movlb	0	; () banked
  7362  0036CE  6F6A               	movwf	___fladd@a& (0+255),b
  7363  0036D0  0EB3               	movlw	179
  7364  0036D2  6F6B               	movwf	(___fladd@a+1)& (0+255),b
  7365  0036D4  0E8A               	movlw	138
  7366  0036D6  6F6C               	movwf	(___fladd@a+2)& (0+255),b
  7367  0036D8  0E38               	movlw	56
  7368  0036DA  6F6D               	movwf	(___fladd@a+3)& (0+255),b
  7369  0036DC  C1B0  F019         	movff	powf@t,___flmul@a
  7370  0036E0  C1B1  F01A         	movff	powf@t+1,___flmul@a+1
  7371  0036E4  C1B2  F01B         	movff	powf@t+2,___flmul@a+2
  7372  0036E8  C1B3  F01C         	movff	powf@t+3,___flmul@a+3
  7373  0036EC  C1A4  F015         	movff	_powf$1302,___flmul@b
  7374  0036F0  C1A5  F016         	movff	_powf$1302+1,___flmul@b+1
  7375  0036F4  C1A6  F017         	movff	_powf$1302+2,___flmul@b+2
  7376  0036F8  C1A7  F018         	movff	_powf$1302+3,___flmul@b+3
  7377  0036FC  EC20  F025         	call	___flmul	;wreg free
  7378  003700  C015  F066         	movff	?___flmul,___fladd@b
  7379  003704  C016  F067         	movff	?___flmul+1,___fladd@b+1
  7380  003708  C017  F068         	movff	?___flmul+2,___fladd@b+2
  7381  00370C  C018  F069         	movff	?___flmul+3,___fladd@b+3
  7382  003710  EC61  F020         	call	___fladd	;wreg free
  7383  003714  C066  F154         	movff	?___fladd,_powf$1303
  7384  003718  C067  F155         	movff	?___fladd+1,_powf$1303+1
  7385  00371C  C068  F156         	movff	?___fladd+2,_powf$1303+2
  7386  003720  C069  F157         	movff	?___fladd+3,_powf$1303+3
  7387  003724  0E61               	movlw	97
  7388  003726  0100               	movlb	0	; () banked
  7389  003728  6F6A               	movwf	___fladd@a& (0+255),b
  7390  00372A  0E0B               	movlw	11
  7391  00372C  6F6B               	movwf	(___fladd@a+1)& (0+255),b
  7392  00372E  0E36               	movlw	54
  7393  003730  6F6C               	movwf	(___fladd@a+2)& (0+255),b
  7394  003732  0EBB               	movlw	187
  7395  003734  6F6D               	movwf	(___fladd@a+3)& (0+255),b
  7396  003736  C1B0  F019         	movff	powf@t,___flmul@a
  7397  00373A  C1B1  F01A         	movff	powf@t+1,___flmul@a+1
  7398  00373E  C1B2  F01B         	movff	powf@t+2,___flmul@a+2
  7399  003742  C1B3  F01C         	movff	powf@t+3,___flmul@a+3
  7400  003746  C154  F015         	movff	_powf$1303,___flmul@b
  7401  00374A  C155  F016         	movff	_powf$1303+1,___flmul@b+1
  7402  00374E  C156  F017         	movff	_powf$1303+2,___flmul@b+2
  7403  003752  C157  F018         	movff	_powf$1303+3,___flmul@b+3
  7404  003756  EC20  F025         	call	___flmul	;wreg free
  7405  00375A  C015  F066         	movff	?___flmul,___fladd@b
  7406  00375E  C016  F067         	movff	?___flmul+1,___fladd@b+1
  7407  003762  C017  F068         	movff	?___flmul+2,___fladd@b+2
  7408  003766  C018  F069         	movff	?___flmul+3,___fladd@b+3
  7409  00376A  EC61  F020         	call	___fladd	;wreg free
  7410  00376E  C066  F148         	movff	?___fladd,_powf$1304
  7411  003772  C067  F149         	movff	?___fladd+1,_powf$1304+1
  7412  003776  C068  F14A         	movff	?___fladd+2,_powf$1304+2
  7413  00377A  C069  F14B         	movff	?___fladd+3,_powf$1304+3
  7414  00377E  0EAB               	movlw	171
  7415  003780  0100               	movlb	0	; () banked
  7416  003782  6F6A               	movwf	___fladd@a& (0+255),b
  7417  003784  0EAA               	movlw	170
  7418  003786  6F6B               	movwf	(___fladd@a+1)& (0+255),b
  7419  003788  0E2A               	movlw	42
  7420  00378A  6F6C               	movwf	(___fladd@a+2)& (0+255),b
  7421  00378C  0E3E               	movlw	62
  7422  00378E  6F6D               	movwf	(___fladd@a+3)& (0+255),b
  7423  003790  C1B0  F019         	movff	powf@t,___flmul@a
  7424  003794  C1B1  F01A         	movff	powf@t+1,___flmul@a+1
  7425  003798  C1B2  F01B         	movff	powf@t+2,___flmul@a+2
  7426  00379C  C1B3  F01C         	movff	powf@t+3,___flmul@a+3
  7427  0037A0  C148  F015         	movff	_powf$1304,___flmul@b
  7428  0037A4  C149  F016         	movff	_powf$1304+1,___flmul@b+1
  7429  0037A8  C14A  F017         	movff	_powf$1304+2,___flmul@b+2
  7430  0037AC  C14B  F018         	movff	_powf$1304+3,___flmul@b+3
  7431  0037B0  EC20  F025         	call	___flmul	;wreg free
  7432  0037B4  C015  F066         	movff	?___flmul,___fladd@b
  7433  0037B8  C016  F067         	movff	?___flmul+1,___fladd@b+1
  7434  0037BC  C017  F068         	movff	?___flmul+2,___fladd@b+2
  7435  0037C0  C018  F069         	movff	?___flmul+3,___fladd@b+3
  7436  0037C4  EC61  F020         	call	___fladd	;wreg free
  7437  0037C8  C066  F138         	movff	?___fladd,_powf$1306
  7438  0037CC  C067  F139         	movff	?___fladd+1,_powf$1306+1
  7439  0037D0  C068  F13A         	movff	?___fladd+2,_powf$1306+2
  7440  0037D4  C069  F13B         	movff	?___fladd+3,_powf$1306+3
  7441  0037D8  C1B4  F076         	movff	powf@z,___flsub@b
  7442  0037DC  C1B5  F077         	movff	powf@z+1,___flsub@b+1
  7443  0037E0  C1B6  F078         	movff	powf@z+2,___flsub@b+2
  7444  0037E4  C1B7  F079         	movff	powf@z+3,___flsub@b+3
  7445  0037E8  C1B0  F019         	movff	powf@t,___flmul@a
  7446  0037EC  C1B1  F01A         	movff	powf@t+1,___flmul@a+1
  7447  0037F0  C1B2  F01B         	movff	powf@t+2,___flmul@a+2
  7448  0037F4  C1B3  F01C         	movff	powf@t+3,___flmul@a+3
  7449  0037F8  C138  F015         	movff	_powf$1306,___flmul@b
  7450  0037FC  C139  F016         	movff	_powf$1306+1,___flmul@b+1
  7451  003800  C13A  F017         	movff	_powf$1306+2,___flmul@b+2
  7452  003804  C13B  F018         	movff	_powf$1306+3,___flmul@b+3
  7453  003808  EC20  F025         	call	___flmul	;wreg free
  7454  00380C  C015  F07A         	movff	?___flmul,___flsub@a
  7455  003810  C016  F07B         	movff	?___flmul+1,___flsub@a+1
  7456  003814  C017  F07C         	movff	?___flmul+2,___flsub@a+2
  7457  003818  C018  F07D         	movff	?___flmul+3,___flsub@a+3
  7458  00381C  EC3F  F031         	call	___flsub	;wreg free
  7459  003820  C076  F184         	movff	?___flsub,powf@t1
  7460  003824  C077  F185         	movff	?___flsub+1,powf@t1+1
  7461  003828  C078  F186         	movff	?___flsub+2,powf@t1+2
  7462  00382C  C079  F187         	movff	?___flsub+3,powf@t1+3
  7463  003830  0E00               	movlw	0
  7464  003832  0100               	movlb	0	; () banked
  7465  003834  6F6A               	movwf	___fladd@a& (0+255),b
  7466  003836  0E00               	movlw	0
  7467  003838  6F6B               	movwf	(___fladd@a+1)& (0+255),b
  7468  00383A  0E00               	movlw	0
  7469  00383C  6F6C               	movwf	(___fladd@a+2)& (0+255),b
  7470  00383E  0EC0               	movlw	192
  7471  003840  6F6D               	movwf	(___fladd@a+3)& (0+255),b
  7472  003842  C184  F066         	movff	powf@t1,___fladd@b
  7473  003846  C185  F067         	movff	powf@t1+1,___fladd@b+1
  7474  00384A  C186  F068         	movff	powf@t1+2,___fladd@b+2
  7475  00384E  C187  F069         	movff	powf@t1+3,___fladd@b+3
  7476  003852  EC61  F020         	call	___fladd	;wreg free
  7477  003856  C066  F082         	movff	?___fladd,___fldiv@a
  7478  00385A  C067  F083         	movff	?___fladd+1,___fldiv@a+1
  7479  00385E  C068  F084         	movff	?___fladd+2,___fldiv@a+2
  7480  003862  C069  F085         	movff	?___fladd+3,___fldiv@a+3
  7481  003866  C184  F019         	movff	powf@t1,___flmul@a
  7482  00386A  C185  F01A         	movff	powf@t1+1,___flmul@a+1
  7483  00386E  C186  F01B         	movff	powf@t1+2,___flmul@a+2
  7484  003872  C187  F01C         	movff	powf@t1+3,___flmul@a+3
  7485  003876  C1B4  F015         	movff	powf@z,___flmul@b
  7486  00387A  C1B5  F016         	movff	powf@z+1,___flmul@b+1
  7487  00387E  C1B6  F017         	movff	powf@z+2,___flmul@b+2
  7488  003882  C1B7  F018         	movff	powf@z+3,___flmul@b+3
  7489  003886  EC20  F025         	call	___flmul	;wreg free
  7490  00388A  C015  F07E         	movff	?___flmul,___fldiv@b
  7491  00388E  C016  F07F         	movff	?___flmul+1,___fldiv@b+1
  7492  003892  C017  F080         	movff	?___flmul+2,___fldiv@b+2
  7493  003896  C018  F081         	movff	?___flmul+3,___fldiv@b+3
  7494  00389A  EC35  F027         	call	___fldiv	;wreg free
  7495  00389E  C07E  F13C         	movff	?___fldiv,_powf$1310
  7496  0038A2  C07F  F13D         	movff	?___fldiv+1,_powf$1310+1
  7497  0038A6  C080  F13E         	movff	?___fldiv+2,_powf$1310+2
  7498  0038AA  C081  F13F         	movff	?___fldiv+3,_powf$1310+3
  7499  0038AE  C144  F06A         	movff	powf@w,___fladd@a
  7500  0038B2  C145  F06B         	movff	powf@w+1,___fladd@a+1
  7501  0038B6  C146  F06C         	movff	powf@w+2,___fladd@a+2
  7502  0038BA  C147  F06D         	movff	powf@w+3,___fladd@a+3
  7503  0038BE  C144  F019         	movff	powf@w,___flmul@a
  7504  0038C2  C145  F01A         	movff	powf@w+1,___flmul@a+1
  7505  0038C6  C146  F01B         	movff	powf@w+2,___flmul@a+2
  7506  0038CA  C147  F01C         	movff	powf@w+3,___flmul@a+3
  7507  0038CE  C1B4  F015         	movff	powf@z,___flmul@b
  7508  0038D2  C1B5  F016         	movff	powf@z+1,___flmul@b+1
  7509  0038D6  C1B6  F017         	movff	powf@z+2,___flmul@b+2
  7510  0038DA  C1B7  F018         	movff	powf@z+3,___flmul@b+3
  7511  0038DE  EC20  F025         	call	___flmul	;wreg free
  7512  0038E2  C015  F066         	movff	?___flmul,___fladd@b
  7513  0038E6  C016  F067         	movff	?___flmul+1,___fladd@b+1
  7514  0038EA  C017  F068         	movff	?___flmul+2,___fladd@b+2
  7515  0038EE  C018  F069         	movff	?___flmul+3,___fladd@b+3
  7516  0038F2  EC61  F020         	call	___fladd	;wreg free
  7517  0038F6  C066  F118         	movff	?___fladd,_powf$1316
  7518  0038FA  C067  F119         	movff	?___fladd+1,_powf$1316+1
  7519  0038FE  C068  F11A         	movff	?___fladd+2,_powf$1316+2
  7520  003902  C069  F11B         	movff	?___fladd+3,_powf$1316+3
  7521  003906  C13C  F076         	movff	_powf$1310,___flsub@b
  7522  00390A  C13D  F077         	movff	_powf$1310+1,___flsub@b+1
  7523  00390E  C13E  F078         	movff	_powf$1310+2,___flsub@b+2
  7524  003912  C13F  F079         	movff	_powf$1310+3,___flsub@b+3
  7525  003916  C118  F07A         	movff	_powf$1316,___flsub@a
  7526  00391A  C119  F07B         	movff	_powf$1316+1,___flsub@a+1
  7527  00391E  C11A  F07C         	movff	_powf$1316+2,___flsub@a+2
  7528  003922  C11B  F07D         	movff	_powf$1316+3,___flsub@a+3
  7529  003926  EC3F  F031         	call	___flsub	;wreg free
  7530  00392A  C076  F14C         	movff	?___flsub,powf@r
  7531  00392E  C077  F14D         	movff	?___flsub+1,powf@r+1
  7532  003932  C078  F14E         	movff	?___flsub+2,powf@r+2
  7533  003936  C079  F14F         	movff	?___flsub+3,powf@r+3
  7534  00393A  C1B4  F07A         	movff	powf@z,___flsub@a
  7535  00393E  C1B5  F07B         	movff	powf@z+1,___flsub@a+1
  7536  003942  C1B6  F07C         	movff	powf@z+2,___flsub@a+2
  7537  003946  C1B7  F07D         	movff	powf@z+3,___flsub@a+3
  7538  00394A  C14C  F076         	movff	powf@r,___flsub@b
  7539  00394E  C14D  F077         	movff	powf@r+1,___flsub@b+1
  7540  003952  C14E  F078         	movff	powf@r+2,___flsub@b+2
  7541  003956  C14F  F079         	movff	powf@r+3,___flsub@b+3
  7542  00395A  EC3F  F031         	call	___flsub	;wreg free
  7543  00395E  C076  F198         	movff	?___flsub,_powf$1305
  7544  003962  C077  F199         	movff	?___flsub+1,_powf$1305+1
  7545  003966  C078  F19A         	movff	?___flsub+2,_powf$1305+2
  7546  00396A  C079  F19B         	movff	?___flsub+3,_powf$1305+3
  7547  00396E  0E00               	movlw	0
  7548  003970  0100               	movlb	0	; () banked
  7549  003972  6F76               	movwf	___flsub@b& (0+255),b
  7550  003974  0E00               	movlw	0
  7551  003976  6F77               	movwf	(___flsub@b+1)& (0+255),b
  7552  003978  0E80               	movlw	128
  7553  00397A  6F78               	movwf	(___flsub@b+2)& (0+255),b
  7554  00397C  0E3F               	movlw	63
  7555  00397E  6F79               	movwf	(___flsub@b+3)& (0+255),b
  7556  003980  C198  F07A         	movff	_powf$1305,___flsub@a
  7557  003984  C199  F07B         	movff	_powf$1305+1,___flsub@a+1
  7558  003988  C19A  F07C         	movff	_powf$1305+2,___flsub@a+2
  7559  00398C  C19B  F07D         	movff	_powf$1305+3,___flsub@a+3
  7560  003990  EC3F  F031         	call	___flsub	;wreg free
  7561  003994  C076  F1B4         	movff	?___flsub,powf@z
  7562  003998  C077  F1B5         	movff	?___flsub+1,powf@z+1
  7563  00399C  C078  F1B6         	movff	?___flsub+2,powf@z+2
  7564  0039A0  C079  F1B7         	movff	?___flsub+3,powf@z+3
  7565  0039A4  C1B4  F1B8         	movff	powf@z,powf@__xc8_float_word
  7566  0039A8  C1B5  F1B9         	movff	powf@z+1,powf@__xc8_float_word+1
  7567  0039AC  C1B6  F1BA         	movff	powf@z+2,powf@__xc8_float_word+2
  7568  0039B0  C1B7  F1BB         	movff	powf@z+3,powf@__xc8_float_word+3
  7569  0039B4  C1B8  F1AC         	movff	powf@__xc8_float_word,powf@j
  7570  0039B8  C1B9  F1AD         	movff	powf@__xc8_float_word+1,powf@j+1
  7571  0039BC  C1BA  F1AE         	movff	powf@__xc8_float_word+2,powf@j+2
  7572  0039C0  C1BB  F1AF         	movff	powf@__xc8_float_word+3,powf@j+3
  7573  0039C4  C180  F0C3         	movff	powf@n,??_powf
  7574  0039C8  C181  F0C4         	movff	powf@n+1,??_powf+1
  7575  0039CC  C182  F0C5         	movff	powf@n+2,??_powf+2
  7576  0039D0  C183  F0C6         	movff	powf@n+3,??_powf+3
  7577  0039D4  0E17               	movlw	23
  7578  0039D6                     u6255:
  7579  0039D6  90D8               	bcf	status,0,c
  7580  0039D8  0100               	movlb	0	; () banked
  7581  0039DA  37C3               	rlcf	??_powf& (0+255),f,b
  7582  0039DC  37C4               	rlcf	(??_powf+1)& (0+255),f,b
  7583  0039DE  37C5               	rlcf	(??_powf+2)& (0+255),f,b
  7584  0039E0  37C6               	rlcf	(??_powf+3)& (0+255),f,b
  7585  0039E2  2EE8               	decfsz	wreg,f,c
  7586  0039E4  EFEB  F01C         	goto	u6255
  7587  0039E8  51C3               	movf	??_powf& (0+255),w,b
  7588  0039EA  0101               	movlb	1	; () banked
  7589  0039EC  27AC               	addwf	powf@j& (0+255),f,b
  7590  0039EE  0100               	movlb	0	; () banked
  7591  0039F0  51C4               	movf	(??_powf+1)& (0+255),w,b
  7592  0039F2  0101               	movlb	1	; () banked
  7593  0039F4  23AD               	addwfc	(powf@j+1)& (0+255),f,b
  7594  0039F6  0100               	movlb	0	; () banked
  7595  0039F8  51C5               	movf	(??_powf+2)& (0+255),w,b
  7596  0039FA  0101               	movlb	1	; () banked
  7597  0039FC  23AE               	addwfc	(powf@j+2)& (0+255),f,b
  7598  0039FE  0100               	movlb	0	; () banked
  7599  003A00  51C6               	movf	(??_powf+3)& (0+255),w,b
  7600  003A02  0101               	movlb	1	; () banked
  7601  003A04  23AF               	addwfc	(powf@j+3)& (0+255),f,b
  7602  003A06                     
  7603                           ; BSR set to: 1
  7604  003A06  0E17               	movlw	23
  7605  003A08  0100               	movlb	0	; () banked
  7606  003A0A  6FC3               	movwf	??_powf& (0+255),b
  7607  003A0C  C1AC  F0C4         	movff	powf@j,??_powf+1
  7608  003A10  C1AD  F0C5         	movff	powf@j+1,??_powf+2
  7609  003A14  C1AE  F0C6         	movff	powf@j+2,??_powf+3
  7610  003A18  C1AF  F0C7         	movff	powf@j+3,??_powf+4
  7611  003A1C                     u6265:
  7612  003A1C  67C3               	tstfsz	??_powf& (0+255),b
  7613  003A1E  EF13  F01D         	goto	u6266
  7614  003A22  EF1B  F01D         	goto	u6267
  7615  003A26                     u6266:
  7616  003A26  35C7               	rlcf	(??_powf+4)& (0+255),w,b
  7617  003A28  33C7               	rrcf	(??_powf+4)& (0+255),f,b
  7618  003A2A  33C6               	rrcf	(??_powf+3)& (0+255),f,b
  7619  003A2C  33C5               	rrcf	(??_powf+2)& (0+255),f,b
  7620  003A2E  33C4               	rrcf	(??_powf+1)& (0+255),f,b
  7621  003A30  2FC3               	decfsz	??_powf& (0+255),f,b
  7622  003A32  EF0E  F01D         	goto	u6265
  7623  003A36                     u6267:
  7624  003A36  0100               	movlb	0	; () banked
  7625  003A38  BFC7               	btfsc	(??_powf+4)& (0+255),7,b
  7626  003A3A  EF2B  F01D         	goto	u6270
  7627  003A3E  51C7               	movf	(??_powf+4)& (0+255),w,b
  7628  003A40  11C6               	iorwf	(??_powf+3)& (0+255),w,b
  7629  003A42  11C5               	iorwf	(??_powf+2)& (0+255),w,b
  7630  003A44  E106               	bnz	u6271
  7631  003A46  05C4               	decf	(??_powf+1)& (0+255),w,b
  7632  003A48  B0D8               	btfsc	status,0,c
  7633  003A4A  EF29  F01D         	goto	u6271
  7634  003A4E  EF2B  F01D         	goto	u6270
  7635  003A52                     u6271:
  7636  003A52  EF43  F01D         	goto	l1149
  7637  003A56                     u6270:
  7638  003A56                     
  7639                           ; BSR set to: 0
  7640  003A56  C1B4  F02E         	movff	powf@z,scalbnf@x
  7641  003A5A  C1B5  F02F         	movff	powf@z+1,scalbnf@x+1
  7642  003A5E  C1B6  F030         	movff	powf@z+2,scalbnf@x+2
  7643  003A62  C1B7  F031         	movff	powf@z+3,scalbnf@x+3
  7644  003A66  C180  F032         	movff	powf@n,scalbnf@n
  7645  003A6A  C181  F033         	movff	powf@n+1,scalbnf@n+1
  7646  003A6E  EC84  F02A         	call	_scalbnf	;wreg free
  7647  003A72  C02E  F1B4         	movff	?_scalbnf,powf@z
  7648  003A76  C02F  F1B5         	movff	?_scalbnf+1,powf@z+1
  7649  003A7A  C030  F1B6         	movff	?_scalbnf+2,powf@z+2
  7650  003A7E  C031  F1B7         	movff	?_scalbnf+3,powf@z+3
  7651  003A82  EF53  F01D         	goto	l5166
  7652  003A86                     l1149:
  7653                           
  7654                           ; BSR set to: 0
  7655  003A86  C1AC  F1B8         	movff	powf@j,powf@__xc8_float_word
  7656  003A8A  C1AD  F1B9         	movff	powf@j+1,powf@__xc8_float_word+1
  7657  003A8E  C1AE  F1BA         	movff	powf@j+2,powf@__xc8_float_word+2
  7658  003A92  C1AF  F1BB         	movff	powf@j+3,powf@__xc8_float_word+3
  7659  003A96  C1B8  F1B4         	movff	powf@__xc8_float_word,powf@z
  7660  003A9A  C1B9  F1B5         	movff	powf@__xc8_float_word+1,powf@z+1
  7661  003A9E  C1BA  F1B6         	movff	powf@__xc8_float_word+2,powf@z+2
  7662  003AA2  C1BB  F1B7         	movff	powf@__xc8_float_word+3,powf@z+3
  7663  003AA6                     l5166:
  7664  003AA6  C188  F015         	movff	powf@sn,___flmul@b
  7665  003AAA  C189  F016         	movff	powf@sn+1,___flmul@b+1
  7666  003AAE  C18A  F017         	movff	powf@sn+2,___flmul@b+2
  7667  003AB2  C18B  F018         	movff	powf@sn+3,___flmul@b+3
  7668  003AB6  C1B4  F019         	movff	powf@z,___flmul@a
  7669  003ABA  C1B5  F01A         	movff	powf@z+1,___flmul@a+1
  7670  003ABE  C1B6  F01B         	movff	powf@z+2,___flmul@a+2
  7671  003AC2  C1B7  F01C         	movff	powf@z+3,___flmul@a+3
  7672  003AC6  EC20  F025         	call	___flmul	;wreg free
  7673  003ACA  C015  F0BB         	movff	?___flmul,?_powf
  7674  003ACE  C016  F0BC         	movff	?___flmul+1,?_powf+1
  7675  003AD2  C017  F0BD         	movff	?___flmul+2,?_powf+2
  7676  003AD6  C018  F0BE         	movff	?___flmul+3,?_powf+3
  7677  003ADA                     l1037:
  7678  003ADA  0012               	return		;funcret
  7679  003ADC                     __end_of_powf:
  7680                           	opt callstack 0
  7681                           
  7682 ;; *************** function _sqrtf *****************
  7683 ;; Defined at:
  7684 ;;		line 22 in file "/opt/microchip/xc8/v2.10/pic/sources/c99/common/sqrtf.c"
  7685 ;; Parameters:    Size  Location     Type
  7686 ;;  x               4   42[BANK0 ] float 
  7687 ;; Auto vars:     Size  Location     Type
  7688 ;;  ix              4   87[BANK0 ] long 
  7689 ;;  r               4   83[BANK0 ] unsigned long 
  7690 ;;  m               4   79[BANK0 ] long 
  7691 ;;  z               4   75[BANK0 ] float 
  7692 ;;  t               4   71[BANK0 ] long 
  7693 ;;  q               4   67[BANK0 ] long 
  7694 ;;  __xc8_float_    4   63[BANK0 ] struct .
  7695 ;;  i               4   59[BANK0 ] long 
  7696 ;;  s               4   55[BANK0 ] long 
  7697 ;;  sign            4    0        long 
  7698 ;; Return value:  Size  Location     Type
  7699 ;;                  4   42[BANK0 ] float 
  7700 ;; Registers used:
  7701 ;;		wreg, status,2, status,0, prodl, prodh, cstack
  7702 ;; Tracked objects:
  7703 ;;		On entry : 0/0
  7704 ;;		On exit  : 0/0
  7705 ;;		Unchanged: 0/0
  7706 ;; Data sizes:     COMRAM   BANK0   BANK1   BANK2   BANK3   BANK4   BANK5   BANK6   BANK7   BANK8   BANK9  BANK10  BANK1
      +1  BANK12  BANK13  BANK14  BANK15
  7707 ;;      Params:         0       4       0       0       0       0       0       0       0       0       0       0       
      +0       0       0       0       0
  7708 ;;      Locals:         0      40       0       0       0       0       0       0       0       0       0       0       
      +0       0       0       0       0
  7709 ;;      Temps:          0       5       0       0       0       0       0       0       0       0       0       0       
      +0       0       0       0       0
  7710 ;;      Totals:         0      49       0       0       0       0       0       0       0       0       0       0       
      +0       0       0       0       0
  7711 ;;Total ram usage:       49 bytes
  7712 ;; Hardware stack levels used:    1
  7713 ;; Hardware stack levels required when called:    5
  7714 ;; This function calls:
  7715 ;;		___fladd
  7716 ;;		___flge
  7717 ;;		___flmul
  7718 ;;		_nanf
  7719 ;; This function is called by:
  7720 ;;		_powf
  7721 ;; This function uses a non-reentrant model
  7722 ;;
  7723                           
  7724                           	psect	text20
  7725  004584                     __ptext20:
  7726                           	opt callstack 0
  7727  004584                     _sqrtf:
  7728                           	opt callstack 22
  7729  004584  C08A  F09F         	movff	sqrtf@x,sqrtf@__xc8_float_word
  7730  004588  C08B  F0A0         	movff	sqrtf@x+1,sqrtf@__xc8_float_word+1
  7731  00458C  C08C  F0A1         	movff	sqrtf@x+2,sqrtf@__xc8_float_word+2
  7732  004590  C08D  F0A2         	movff	sqrtf@x+3,sqrtf@__xc8_float_word+3
  7733  004594  C09F  F0B7         	movff	sqrtf@__xc8_float_word,sqrtf@ix
  7734  004598  C0A0  F0B8         	movff	sqrtf@__xc8_float_word+1,sqrtf@ix+1
  7735  00459C  C0A1  F0B9         	movff	sqrtf@__xc8_float_word+2,sqrtf@ix+2
  7736  0045A0  C0A2  F0BA         	movff	sqrtf@__xc8_float_word+3,sqrtf@ix+3
  7737  0045A4  0E00               	movlw	0
  7738  0045A6  0100               	movlb	0	; () banked
  7739  0045A8  15B7               	andwf	sqrtf@ix& (0+255),w,b
  7740  0045AA  6F8E               	movwf	??_sqrtf& (0+255),b
  7741  0045AC  0E00               	movlw	0
  7742  0045AE  15B8               	andwf	(sqrtf@ix+1)& (0+255),w,b
  7743  0045B0  6F8F               	movwf	(??_sqrtf+1)& (0+255),b
  7744  0045B2  0E80               	movlw	128
  7745  0045B4  15B9               	andwf	(sqrtf@ix+2)& (0+255),w,b
  7746  0045B6  6F90               	movwf	(??_sqrtf+2)& (0+255),b
  7747  0045B8  0E7F               	movlw	127
  7748  0045BA  15BA               	andwf	(sqrtf@ix+3)& (0+255),w,b
  7749  0045BC  6F91               	movwf	(??_sqrtf+3)& (0+255),b
  7750  0045BE  0E80               	movlw	128
  7751  0045C0  1990               	xorwf	(??_sqrtf+2)& (0+255),w,b
  7752  0045C2  E109               	bnz	u5421
  7753  0045C4  0E7F               	movlw	127
  7754  0045C6  1991               	xorwf	(??_sqrtf+3)& (0+255),w,b
  7755  0045C8  118E               	iorwf	??_sqrtf& (0+255),w,b
  7756  0045CA  118F               	iorwf	(??_sqrtf+1)& (0+255),w,b
  7757  0045CC  A4D8               	btfss	status,2,c
  7758  0045CE  EFEB  F022         	goto	u5421
  7759  0045D2  EFED  F022         	goto	u5420
  7760  0045D6                     u5421:
  7761  0045D6  EF1B  F023         	goto	l4552
  7762  0045DA                     u5420:
  7763  0045DA                     
  7764                           ; BSR set to: 0
  7765  0045DA  C08A  F019         	movff	sqrtf@x,___flmul@a
  7766  0045DE  C08B  F01A         	movff	sqrtf@x+1,___flmul@a+1
  7767  0045E2  C08C  F01B         	movff	sqrtf@x+2,___flmul@a+2
  7768  0045E6  C08D  F01C         	movff	sqrtf@x+3,___flmul@a+3
  7769  0045EA  C08A  F015         	movff	sqrtf@x,___flmul@b
  7770  0045EE  C08B  F016         	movff	sqrtf@x+1,___flmul@b+1
  7771  0045F2  C08C  F017         	movff	sqrtf@x+2,___flmul@b+2
  7772  0045F6  C08D  F018         	movff	sqrtf@x+3,___flmul@b+3
  7773  0045FA  EC20  F025         	call	___flmul	;wreg free
  7774  0045FE  C015  F066         	movff	?___flmul,___fladd@b
  7775  004602  C016  F067         	movff	?___flmul+1,___fladd@b+1
  7776  004606  C017  F068         	movff	?___flmul+2,___fladd@b+2
  7777  00460A  C018  F069         	movff	?___flmul+3,___fladd@b+3
  7778  00460E  C08A  F06A         	movff	sqrtf@x,___fladd@a
  7779  004612  C08B  F06B         	movff	sqrtf@x+1,___fladd@a+1
  7780  004616  C08C  F06C         	movff	sqrtf@x+2,___fladd@a+2
  7781  00461A  C08D  F06D         	movff	sqrtf@x+3,___fladd@a+3
  7782  00461E  EC61  F020         	call	___fladd	;wreg free
  7783  004622  C066  F08A         	movff	?___fladd,?_sqrtf
  7784  004626  C067  F08B         	movff	?___fladd+1,?_sqrtf+1
  7785  00462A  C068  F08C         	movff	?___fladd+2,?_sqrtf+2
  7786  00462E  C069  F08D         	movff	?___fladd+3,?_sqrtf+3
  7787  004632  EF1F  F025         	goto	l1172
  7788  004636                     l4552:
  7789                           
  7790                           ; BSR set to: 0
  7791  004636  BFBA               	btfsc	(sqrtf@ix+3)& (0+255),7,b
  7792  004638  EF2A  F023         	goto	u5430
  7793  00463C  51BA               	movf	(sqrtf@ix+3)& (0+255),w,b
  7794  00463E  11B9               	iorwf	(sqrtf@ix+2)& (0+255),w,b
  7795  004640  11B8               	iorwf	(sqrtf@ix+1)& (0+255),w,b
  7796  004642  E106               	bnz	u5431
  7797  004644  05B7               	decf	sqrtf@ix& (0+255),w,b
  7798  004646  B0D8               	btfsc	status,0,c
  7799  004648  EF28  F023         	goto	u5431
  7800  00464C  EF2A  F023         	goto	u5430
  7801  004650                     u5431:
  7802  004650  EF66  F023         	goto	l4566
  7803  004654                     u5430:
  7804  004654                     
  7805                           ; BSR set to: 0
  7806  004654  0EFF               	movlw	255
  7807  004656  15B7               	andwf	sqrtf@ix& (0+255),w,b
  7808  004658  6F8E               	movwf	??_sqrtf& (0+255),b
  7809  00465A  0EFF               	movlw	255
  7810  00465C  15B8               	andwf	(sqrtf@ix+1)& (0+255),w,b
  7811  00465E  6F8F               	movwf	(??_sqrtf+1)& (0+255),b
  7812  004660  0EFF               	movlw	255
  7813  004662  15B9               	andwf	(sqrtf@ix+2)& (0+255),w,b
  7814  004664  6F90               	movwf	(??_sqrtf+2)& (0+255),b
  7815  004666  0E7F               	movlw	127
  7816  004668  15BA               	andwf	(sqrtf@ix+3)& (0+255),w,b
  7817  00466A  6F91               	movwf	(??_sqrtf+3)& (0+255),b
  7818  00466C  518E               	movf	??_sqrtf& (0+255),w,b
  7819  00466E  118F               	iorwf	(??_sqrtf+1)& (0+255),w,b
  7820  004670  1190               	iorwf	(??_sqrtf+2)& (0+255),w,b
  7821  004672  1191               	iorwf	(??_sqrtf+3)& (0+255),w,b
  7822  004674  A4D8               	btfss	status,2,c
  7823  004676  EF3F  F023         	goto	u5441
  7824  00467A  EF41  F023         	goto	u5440
  7825  00467E                     u5441:
  7826  00467E  EF4B  F023         	goto	l4558
  7827  004682                     u5440:
  7828  004682                     
  7829                           ; BSR set to: 0
  7830  004682  C08A  F08A         	movff	sqrtf@x,?_sqrtf
  7831  004686  C08B  F08B         	movff	sqrtf@x+1,?_sqrtf+1
  7832  00468A  C08C  F08C         	movff	sqrtf@x+2,?_sqrtf+2
  7833  00468E  C08D  F08D         	movff	sqrtf@x+3,?_sqrtf+3
  7834  004692  EF1F  F025         	goto	l1172
  7835  004696                     l4558:
  7836                           
  7837                           ; BSR set to: 0
  7838  004696  BFBA               	btfsc	(sqrtf@ix+3)& (0+255),7,b
  7839  004698  EF52  F023         	goto	u5450
  7840  00469C  EF50  F023         	goto	u5451
  7841  0046A0                     u5451:
  7842  0046A0  EF66  F023         	goto	l4566
  7843  0046A4                     u5450:
  7844  0046A4                     
  7845                           ; BSR set to: 0
  7846  0046A4  0E00               	movlw	0
  7847  0046A6  6FF0               	movwf	(_errno+1)& (0+255),b
  7848  0046A8  0E21               	movlw	33
  7849  0046AA  6FEF               	movwf	_errno& (0+255),b
  7850  0046AC                     
  7851                           ; BSR set to: 0
  7852  0046AC  0E7D               	movlw	low STR_1
  7853  0046AE  6E15               	movwf	nanf@s^0,c
  7854  0046B0  0E10               	movlw	high STR_1
  7855  0046B2  6E16               	movwf	(nanf@s+1)^0,c
  7856  0046B4  EC0E  F032         	call	_nanf	;wreg free
  7857  0046B8  C015  F08A         	movff	?_nanf,?_sqrtf
  7858  0046BC  C016  F08B         	movff	?_nanf+1,?_sqrtf+1
  7859  0046C0  C017  F08C         	movff	?_nanf+2,?_sqrtf+2
  7860  0046C4  C018  F08D         	movff	?_nanf+3,?_sqrtf+3
  7861  0046C8  EF1F  F025         	goto	l1172
  7862  0046CC                     l4566:
  7863                           
  7864                           ; BSR set to: 0
  7865  0046CC  0E17               	movlw	23
  7866  0046CE  6F8E               	movwf	??_sqrtf& (0+255),b
  7867  0046D0  C0B7  F08F         	movff	sqrtf@ix,??_sqrtf+1
  7868  0046D4  C0B8  F090         	movff	sqrtf@ix+1,??_sqrtf+2
  7869  0046D8  C0B9  F091         	movff	sqrtf@ix+2,??_sqrtf+3
  7870  0046DC  C0BA  F092         	movff	sqrtf@ix+3,??_sqrtf+4
  7871  0046E0                     u5465:
  7872  0046E0  678E               	tstfsz	??_sqrtf& (0+255),b
  7873  0046E2  EF75  F023         	goto	u5466
  7874  0046E6  EF7D  F023         	goto	u5467
  7875  0046EA                     u5466:
  7876  0046EA  3592               	rlcf	(??_sqrtf+4)& (0+255),w,b
  7877  0046EC  3392               	rrcf	(??_sqrtf+4)& (0+255),f,b
  7878  0046EE  3391               	rrcf	(??_sqrtf+3)& (0+255),f,b
  7879  0046F0  3390               	rrcf	(??_sqrtf+2)& (0+255),f,b
  7880  0046F2  338F               	rrcf	(??_sqrtf+1)& (0+255),f,b
  7881  0046F4  2F8E               	decfsz	??_sqrtf& (0+255),f,b
  7882  0046F6  EF70  F023         	goto	u5465
  7883  0046FA                     u5467:
  7884  0046FA  C08F  F0AF         	movff	??_sqrtf+1,sqrtf@m
  7885  0046FE  C090  F0B0         	movff	??_sqrtf+2,sqrtf@m+1
  7886  004702  C091  F0B1         	movff	??_sqrtf+3,sqrtf@m+2
  7887  004706  C092  F0B2         	movff	??_sqrtf+4,sqrtf@m+3
  7888  00470A  0100               	movlb	0	; () banked
  7889  00470C  51AF               	movf	sqrtf@m& (0+255),w,b
  7890  00470E  11B0               	iorwf	(sqrtf@m+1)& (0+255),w,b
  7891  004710  11B1               	iorwf	(sqrtf@m+2)& (0+255),w,b
  7892  004712  11B2               	iorwf	(sqrtf@m+3)& (0+255),w,b
  7893  004714  A4D8               	btfss	status,2,c
  7894  004716  EF8F  F023         	goto	u5471
  7895  00471A  EF91  F023         	goto	u5470
  7896  00471E                     u5471:
  7897  00471E  EFC1  F023         	goto	l1176
  7898  004722                     u5470:
  7899  004722                     
  7900                           ; BSR set to: 0
  7901  004722  0E00               	movlw	0
  7902  004724  6F9B               	movwf	sqrtf@i& (0+255),b
  7903  004726  0E00               	movlw	0
  7904  004728  6F9C               	movwf	(sqrtf@i+1)& (0+255),b
  7905  00472A  0E00               	movlw	0
  7906  00472C  6F9D               	movwf	(sqrtf@i+2)& (0+255),b
  7907  00472E  0E00               	movlw	0
  7908  004730  6F9E               	movwf	(sqrtf@i+3)& (0+255),b
  7909  004732  EFA6  F023         	goto	l4574
  7910  004736                     l4570:
  7911                           
  7912                           ; BSR set to: 0
  7913  004736  90D8               	bcf	status,0,c
  7914  004738  37B7               	rlcf	sqrtf@ix& (0+255),f,b
  7915  00473A  37B8               	rlcf	(sqrtf@ix+1)& (0+255),f,b
  7916  00473C  37B9               	rlcf	(sqrtf@ix+2)& (0+255),f,b
  7917  00473E  37BA               	rlcf	(sqrtf@ix+3)& (0+255),f,b
  7918  004740                     
  7919                           ; BSR set to: 0
  7920  004740  0E01               	movlw	1
  7921  004742  279B               	addwf	sqrtf@i& (0+255),f,b
  7922  004744  0E00               	movlw	0
  7923  004746  239C               	addwfc	(sqrtf@i+1)& (0+255),f,b
  7924  004748  239D               	addwfc	(sqrtf@i+2)& (0+255),f,b
  7925  00474A  239E               	addwfc	(sqrtf@i+3)& (0+255),f,b
  7926  00474C                     l4574:
  7927                           
  7928                           ; BSR set to: 0
  7929  00474C  AFB9               	btfss	(sqrtf@ix+2)& (0+255),7,b
  7930  00474E  EFAB  F023         	goto	u5481
  7931  004752  EFAD  F023         	goto	u5480
  7932  004756                     u5481:
  7933  004756  EF9B  F023         	goto	l4570
  7934  00475A                     u5480:
  7935  00475A                     
  7936                           ; BSR set to: 0
  7937  00475A  0EFF               	movlw	255
  7938  00475C  259B               	addwf	sqrtf@i& (0+255),w,b
  7939  00475E  6F8E               	movwf	??_sqrtf& (0+255),b
  7940  004760  0EFF               	movlw	255
  7941  004762  219C               	addwfc	(sqrtf@i+1)& (0+255),w,b
  7942  004764  6F8F               	movwf	(??_sqrtf+1)& (0+255),b
  7943  004766  0EFF               	movlw	255
  7944  004768  219D               	addwfc	(sqrtf@i+2)& (0+255),w,b
  7945  00476A  6F90               	movwf	(??_sqrtf+2)& (0+255),b
  7946  00476C  0EFF               	movlw	255
  7947  00476E  219E               	addwfc	(sqrtf@i+3)& (0+255),w,b
  7948  004770  6F91               	movwf	(??_sqrtf+3)& (0+255),b
  7949  004772  518E               	movf	??_sqrtf& (0+255),w,b
  7950  004774  5FAF               	subwf	sqrtf@m& (0+255),f,b
  7951  004776  518F               	movf	(??_sqrtf+1)& (0+255),w,b
  7952  004778  5BB0               	subwfb	(sqrtf@m+1)& (0+255),f,b
  7953  00477A  5190               	movf	(??_sqrtf+2)& (0+255),w,b
  7954  00477C  5BB1               	subwfb	(sqrtf@m+2)& (0+255),f,b
  7955  00477E  5191               	movf	(??_sqrtf+3)& (0+255),w,b
  7956  004780  5BB2               	subwfb	(sqrtf@m+3)& (0+255),f,b
  7957  004782                     l1176:
  7958                           
  7959                           ; BSR set to: 0
  7960  004782  0E81               	movlw	129
  7961  004784  27AF               	addwf	sqrtf@m& (0+255),f,b
  7962  004786  0EFF               	movlw	255
  7963  004788  23B0               	addwfc	(sqrtf@m+1)& (0+255),f,b
  7964  00478A  0EFF               	movlw	255
  7965  00478C  23B1               	addwfc	(sqrtf@m+2)& (0+255),f,b
  7966  00478E  0EFF               	movlw	255
  7967  004790  23B2               	addwfc	(sqrtf@m+3)& (0+255),f,b
  7968  004792  0EFF               	movlw	255
  7969  004794  15B7               	andwf	sqrtf@ix& (0+255),w,b
  7970  004796  6F8E               	movwf	??_sqrtf& (0+255),b
  7971  004798  0EFF               	movlw	255
  7972  00479A  15B8               	andwf	(sqrtf@ix+1)& (0+255),w,b
  7973  00479C  6F8F               	movwf	(??_sqrtf+1)& (0+255),b
  7974  00479E  0E7F               	movlw	127
  7975  0047A0  15B9               	andwf	(sqrtf@ix+2)& (0+255),w,b
  7976  0047A2  6F90               	movwf	(??_sqrtf+2)& (0+255),b
  7977  0047A4  0E00               	movlw	0
  7978  0047A6  15BA               	andwf	(sqrtf@ix+3)& (0+255),w,b
  7979  0047A8  6F91               	movwf	(??_sqrtf+3)& (0+255),b
  7980  0047AA  0E00               	movlw	0
  7981  0047AC  118E               	iorwf	??_sqrtf& (0+255),w,b
  7982  0047AE  6FB7               	movwf	sqrtf@ix& (0+255),b
  7983  0047B0  0E00               	movlw	0
  7984  0047B2  118F               	iorwf	(??_sqrtf+1)& (0+255),w,b
  7985  0047B4  6FB8               	movwf	(sqrtf@ix+1)& (0+255),b
  7986  0047B6  0E80               	movlw	128
  7987  0047B8  1190               	iorwf	(??_sqrtf+2)& (0+255),w,b
  7988  0047BA  6FB9               	movwf	(sqrtf@ix+2)& (0+255),b
  7989  0047BC  0E00               	movlw	0
  7990  0047BE  1191               	iorwf	(??_sqrtf+3)& (0+255),w,b
  7991  0047C0  6FBA               	movwf	(sqrtf@ix+3)& (0+255),b
  7992  0047C2                     
  7993                           ; BSR set to: 0
  7994  0047C2  A1AF               	btfss	sqrtf@m& (0+255),0,b
  7995  0047C4  EFE6  F023         	goto	u5491
  7996  0047C8  EFE8  F023         	goto	u5490
  7997  0047CC                     u5491:
  7998  0047CC  EFF0  F023         	goto	l1180
  7999  0047D0                     u5490:
  8000  0047D0                     
  8001                           ; BSR set to: 0
  8002  0047D0  51B7               	movf	sqrtf@ix& (0+255),w,b
  8003  0047D2  27B7               	addwf	sqrtf@ix& (0+255),f,b
  8004  0047D4  51B8               	movf	(sqrtf@ix+1)& (0+255),w,b
  8005  0047D6  23B8               	addwfc	(sqrtf@ix+1)& (0+255),f,b
  8006  0047D8  51B9               	movf	(sqrtf@ix+2)& (0+255),w,b
  8007  0047DA  23B9               	addwfc	(sqrtf@ix+2)& (0+255),f,b
  8008  0047DC  51BA               	movf	(sqrtf@ix+3)& (0+255),w,b
  8009  0047DE  23BA               	addwfc	(sqrtf@ix+3)& (0+255),f,b
  8010  0047E0                     l1180:
  8011                           
  8012                           ; BSR set to: 0
  8013  0047E0  35B2               	rlcf	(sqrtf@m+3)& (0+255),w,b
  8014  0047E2  33B2               	rrcf	(sqrtf@m+3)& (0+255),f,b
  8015  0047E4  33B1               	rrcf	(sqrtf@m+2)& (0+255),f,b
  8016  0047E6  33B0               	rrcf	(sqrtf@m+1)& (0+255),f,b
  8017  0047E8  33AF               	rrcf	sqrtf@m& (0+255),f,b
  8018  0047EA  51B7               	movf	sqrtf@ix& (0+255),w,b
  8019  0047EC  27B7               	addwf	sqrtf@ix& (0+255),f,b
  8020  0047EE  51B8               	movf	(sqrtf@ix+1)& (0+255),w,b
  8021  0047F0  23B8               	addwfc	(sqrtf@ix+1)& (0+255),f,b
  8022  0047F2  51B9               	movf	(sqrtf@ix+2)& (0+255),w,b
  8023  0047F4  23B9               	addwfc	(sqrtf@ix+2)& (0+255),f,b
  8024  0047F6  51BA               	movf	(sqrtf@ix+3)& (0+255),w,b
  8025  0047F8  23BA               	addwfc	(sqrtf@ix+3)& (0+255),f,b
  8026  0047FA                     
  8027                           ; BSR set to: 0
  8028  0047FA  0E00               	movlw	0
  8029  0047FC  6F97               	movwf	sqrtf@s& (0+255),b
  8030  0047FE  0E00               	movlw	0
  8031  004800  6F98               	movwf	(sqrtf@s+1)& (0+255),b
  8032  004802  0E00               	movlw	0
  8033  004804  6F99               	movwf	(sqrtf@s+2)& (0+255),b
  8034  004806  0E00               	movlw	0
  8035  004808  6F9A               	movwf	(sqrtf@s+3)& (0+255),b
  8036  00480A  C097  F0A3         	movff	sqrtf@s,sqrtf@q
  8037  00480E  C098  F0A4         	movff	sqrtf@s+1,sqrtf@q+1
  8038  004812  C099  F0A5         	movff	sqrtf@s+2,sqrtf@q+2
  8039  004816  C09A  F0A6         	movff	sqrtf@s+3,sqrtf@q+3
  8040  00481A                     
  8041                           ; BSR set to: 0
  8042  00481A  0E00               	movlw	0
  8043  00481C  6FB3               	movwf	sqrtf@r& (0+255),b
  8044  00481E  0E00               	movlw	0
  8045  004820  6FB4               	movwf	(sqrtf@r+1)& (0+255),b
  8046  004822  0E00               	movlw	0
  8047  004824  6FB5               	movwf	(sqrtf@r+2)& (0+255),b
  8048  004826  0E01               	movlw	1
  8049  004828  6FB6               	movwf	(sqrtf@r+3)& (0+255),b
  8050  00482A  EF5F  F024         	goto	l4592
  8051  00482E                     l4586:
  8052                           
  8053                           ; BSR set to: 0
  8054  00482E  51B3               	movf	sqrtf@r& (0+255),w,b
  8055  004830  2597               	addwf	sqrtf@s& (0+255),w,b
  8056  004832  6FA7               	movwf	sqrtf@t& (0+255),b
  8057  004834  51B4               	movf	(sqrtf@r+1)& (0+255),w,b
  8058  004836  2198               	addwfc	(sqrtf@s+1)& (0+255),w,b
  8059  004838  6FA8               	movwf	(sqrtf@t+1)& (0+255),b
  8060  00483A  51B5               	movf	(sqrtf@r+2)& (0+255),w,b
  8061  00483C  2199               	addwfc	(sqrtf@s+2)& (0+255),w,b
  8062  00483E  6FA9               	movwf	(sqrtf@t+2)& (0+255),b
  8063  004840  51B6               	movf	(sqrtf@r+3)& (0+255),w,b
  8064  004842  219A               	addwfc	(sqrtf@s+3)& (0+255),w,b
  8065  004844  6FAA               	movwf	(sqrtf@t+3)& (0+255),b
  8066  004846  51A7               	movf	sqrtf@t& (0+255),w,b
  8067  004848  5DB7               	subwf	sqrtf@ix& (0+255),w,b
  8068  00484A  51A8               	movf	(sqrtf@t+1)& (0+255),w,b
  8069  00484C  59B8               	subwfb	(sqrtf@ix+1)& (0+255),w,b
  8070  00484E  51A9               	movf	(sqrtf@t+2)& (0+255),w,b
  8071  004850  59B9               	subwfb	(sqrtf@ix+2)& (0+255),w,b
  8072  004852  51BA               	movf	(sqrtf@ix+3)& (0+255),w,b
  8073  004854  0A80               	xorlw	128
  8074  004856  6F8E               	movwf	??_sqrtf& (0+255),b
  8075  004858  51AA               	movf	(sqrtf@t+3)& (0+255),w,b
  8076  00485A  0A80               	xorlw	128
  8077  00485C  598E               	subwfb	??_sqrtf& (0+255),w,b
  8078  00485E  A0D8               	btfss	status,0,c
  8079  004860  EF34  F024         	goto	u5501
  8080  004864  EF36  F024         	goto	u5500
  8081  004868                     u5501:
  8082  004868  EF52  F024         	goto	l1183
  8083  00486C                     u5500:
  8084  00486C                     
  8085                           ; BSR set to: 0
  8086  00486C  51B3               	movf	sqrtf@r& (0+255),w,b
  8087  00486E  25A7               	addwf	sqrtf@t& (0+255),w,b
  8088  004870  6F97               	movwf	sqrtf@s& (0+255),b
  8089  004872  51B4               	movf	(sqrtf@r+1)& (0+255),w,b
  8090  004874  21A8               	addwfc	(sqrtf@t+1)& (0+255),w,b
  8091  004876  6F98               	movwf	(sqrtf@s+1)& (0+255),b
  8092  004878  51B5               	movf	(sqrtf@r+2)& (0+255),w,b
  8093  00487A  21A9               	addwfc	(sqrtf@t+2)& (0+255),w,b
  8094  00487C  6F99               	movwf	(sqrtf@s+2)& (0+255),b
  8095  00487E  51B6               	movf	(sqrtf@r+3)& (0+255),w,b
  8096  004880  21AA               	addwfc	(sqrtf@t+3)& (0+255),w,b
  8097  004882  6F9A               	movwf	(sqrtf@s+3)& (0+255),b
  8098  004884  51A7               	movf	sqrtf@t& (0+255),w,b
  8099  004886  5FB7               	subwf	sqrtf@ix& (0+255),f,b
  8100  004888  51A8               	movf	(sqrtf@t+1)& (0+255),w,b
  8101  00488A  5BB8               	subwfb	(sqrtf@ix+1)& (0+255),f,b
  8102  00488C  51A9               	movf	(sqrtf@t+2)& (0+255),w,b
  8103  00488E  5BB9               	subwfb	(sqrtf@ix+2)& (0+255),f,b
  8104  004890  51AA               	movf	(sqrtf@t+3)& (0+255),w,b
  8105  004892  5BBA               	subwfb	(sqrtf@ix+3)& (0+255),f,b
  8106  004894  51B3               	movf	sqrtf@r& (0+255),w,b
  8107  004896  27A3               	addwf	sqrtf@q& (0+255),f,b
  8108  004898  51B4               	movf	(sqrtf@r+1)& (0+255),w,b
  8109  00489A  23A4               	addwfc	(sqrtf@q+1)& (0+255),f,b
  8110  00489C  51B5               	movf	(sqrtf@r+2)& (0+255),w,b
  8111  00489E  23A5               	addwfc	(sqrtf@q+2)& (0+255),f,b
  8112  0048A0  51B6               	movf	(sqrtf@r+3)& (0+255),w,b
  8113  0048A2  23A6               	addwfc	(sqrtf@q+3)& (0+255),f,b
  8114  0048A4                     l1183:
  8115                           
  8116                           ; BSR set to: 0
  8117  0048A4  51B7               	movf	sqrtf@ix& (0+255),w,b
  8118  0048A6  27B7               	addwf	sqrtf@ix& (0+255),f,b
  8119  0048A8  51B8               	movf	(sqrtf@ix+1)& (0+255),w,b
  8120  0048AA  23B8               	addwfc	(sqrtf@ix+1)& (0+255),f,b
  8121  0048AC  51B9               	movf	(sqrtf@ix+2)& (0+255),w,b
  8122  0048AE  23B9               	addwfc	(sqrtf@ix+2)& (0+255),f,b
  8123  0048B0  51BA               	movf	(sqrtf@ix+3)& (0+255),w,b
  8124  0048B2  23BA               	addwfc	(sqrtf@ix+3)& (0+255),f,b
  8125  0048B4                     
  8126                           ; BSR set to: 0
  8127  0048B4  90D8               	bcf	status,0,c
  8128  0048B6  33B6               	rrcf	(sqrtf@r+3)& (0+255),f,b
  8129  0048B8  33B5               	rrcf	(sqrtf@r+2)& (0+255),f,b
  8130  0048BA  33B4               	rrcf	(sqrtf@r+1)& (0+255),f,b
  8131  0048BC  33B3               	rrcf	sqrtf@r& (0+255),f,b
  8132  0048BE                     l4592:
  8133                           
  8134                           ; BSR set to: 0
  8135  0048BE  51B3               	movf	sqrtf@r& (0+255),w,b
  8136  0048C0  11B4               	iorwf	(sqrtf@r+1)& (0+255),w,b
  8137  0048C2  11B5               	iorwf	(sqrtf@r+2)& (0+255),w,b
  8138  0048C4  11B6               	iorwf	(sqrtf@r+3)& (0+255),w,b
  8139  0048C6  A4D8               	btfss	status,2,c
  8140  0048C8  EF68  F024         	goto	u5511
  8141  0048CC  EF6A  F024         	goto	u5510
  8142  0048D0                     u5511:
  8143  0048D0  EF17  F024         	goto	l4586
  8144  0048D4                     u5510:
  8145  0048D4                     
  8146                           ; BSR set to: 0
  8147  0048D4  51B7               	movf	sqrtf@ix& (0+255),w,b
  8148  0048D6  11B8               	iorwf	(sqrtf@ix+1)& (0+255),w,b
  8149  0048D8  11B9               	iorwf	(sqrtf@ix+2)& (0+255),w,b
  8150  0048DA  11BA               	iorwf	(sqrtf@ix+3)& (0+255),w,b
  8151  0048DC  B4D8               	btfsc	status,2,c
  8152  0048DE  EF73  F024         	goto	u5521
  8153  0048E2  EF75  F024         	goto	u5520
  8154  0048E6                     u5521:
  8155  0048E6  EFD5  F024         	goto	l1185
  8156  0048EA                     u5520:
  8157  0048EA                     
  8158                           ; BSR set to: 0
  8159  0048EA  0E00               	movlw	0
  8160  0048EC  6FAB               	movwf	sqrtf@z& (0+255),b
  8161  0048EE  0E00               	movlw	0
  8162  0048F0  6FAC               	movwf	(sqrtf@z+1)& (0+255),b
  8163  0048F2  0E80               	movlw	128
  8164  0048F4  6FAD               	movwf	(sqrtf@z+2)& (0+255),b
  8165  0048F6  0E3F               	movlw	63
  8166  0048F8  6FAE               	movwf	(sqrtf@z+3)& (0+255),b
  8167  0048FA                     
  8168                           ; BSR set to: 0
  8169  0048FA  C0AB  F07E         	movff	sqrtf@z,___flge@ff1
  8170  0048FE  C0AC  F07F         	movff	sqrtf@z+1,___flge@ff1+1
  8171  004902  C0AD  F080         	movff	sqrtf@z+2,___flge@ff1+2
  8172  004906  C0AE  F081         	movff	sqrtf@z+3,___flge@ff1+3
  8173  00490A  0E00               	movlw	0
  8174  00490C  6F82               	movwf	___flge@ff2& (0+255),b
  8175  00490E  0E00               	movlw	0
  8176  004910  6F83               	movwf	(___flge@ff2+1)& (0+255),b
  8177  004912  0E80               	movlw	128
  8178  004914  6F84               	movwf	(___flge@ff2+2)& (0+255),b
  8179  004916  0E3F               	movlw	63
  8180  004918  6F85               	movwf	(___flge@ff2+3)& (0+255),b
  8181  00491A  EC0D  F030         	call	___flge	;wreg free
  8182  00491E  0100               	movlb	0	; () banked
  8183  004920  A0D8               	btfss	status,0,c
  8184  004922  EF95  F024         	goto	u5531
  8185  004926  EF97  F024         	goto	u5530
  8186  00492A                     u5531:
  8187  00492A  EFD5  F024         	goto	l1185
  8188  00492E                     u5530:
  8189  00492E                     
  8190                           ; BSR set to: 0
  8191  00492E  0E00               	movlw	0
  8192  004930  6FAB               	movwf	sqrtf@z& (0+255),b
  8193  004932  0E00               	movlw	0
  8194  004934  6FAC               	movwf	(sqrtf@z+1)& (0+255),b
  8195  004936  0E80               	movlw	128
  8196  004938  6FAD               	movwf	(sqrtf@z+2)& (0+255),b
  8197  00493A  0E3F               	movlw	63
  8198  00493C  6FAE               	movwf	(sqrtf@z+3)& (0+255),b
  8199  00493E                     
  8200                           ; BSR set to: 0
  8201  00493E  0E00               	movlw	0
  8202  004940  6F7E               	movwf	___flge@ff1& (0+255),b
  8203  004942  0E00               	movlw	0
  8204  004944  6F7F               	movwf	(___flge@ff1+1)& (0+255),b
  8205  004946  0E80               	movlw	128
  8206  004948  6F80               	movwf	(___flge@ff1+2)& (0+255),b
  8207  00494A  0E3F               	movlw	63
  8208  00494C  6F81               	movwf	(___flge@ff1+3)& (0+255),b
  8209  00494E  C0AB  F082         	movff	sqrtf@z,___flge@ff2
  8210  004952  C0AC  F083         	movff	sqrtf@z+1,___flge@ff2+1
  8211  004956  C0AD  F084         	movff	sqrtf@z+2,___flge@ff2+2
  8212  00495A  C0AE  F085         	movff	sqrtf@z+3,___flge@ff2+3
  8213  00495E  EC0D  F030         	call	___flge	;wreg free
  8214  004962  0100               	movlb	0	; () banked
  8215  004964  B0D8               	btfsc	status,0,c
  8216  004966  EFB7  F024         	goto	u5541
  8217  00496A  EFB9  F024         	goto	u5540
  8218  00496E                     u5541:
  8219  00496E  EFC1  F024         	goto	l4606
  8220  004972                     u5540:
  8221  004972                     
  8222                           ; BSR set to: 0
  8223  004972  0E02               	movlw	2
  8224  004974  27A3               	addwf	sqrtf@q& (0+255),f,b
  8225  004976  0E00               	movlw	0
  8226  004978  23A4               	addwfc	(sqrtf@q+1)& (0+255),f,b
  8227  00497A  23A5               	addwfc	(sqrtf@q+2)& (0+255),f,b
  8228  00497C  23A6               	addwfc	(sqrtf@q+3)& (0+255),f,b
  8229  00497E  EFD5  F024         	goto	l1185
  8230  004982                     l4606:
  8231                           
  8232                           ; BSR set to: 0
  8233  004982  0E01               	movlw	1
  8234  004984  15A3               	andwf	sqrtf@q& (0+255),w,b
  8235  004986  6F8E               	movwf	??_sqrtf& (0+255),b
  8236  004988  0E00               	movlw	0
  8237  00498A  15A4               	andwf	(sqrtf@q+1)& (0+255),w,b
  8238  00498C  6F8F               	movwf	(??_sqrtf+1)& (0+255),b
  8239  00498E  0E00               	movlw	0
  8240  004990  15A5               	andwf	(sqrtf@q+2)& (0+255),w,b
  8241  004992  6F90               	movwf	(??_sqrtf+2)& (0+255),b
  8242  004994  0E00               	movlw	0
  8243  004996  15A6               	andwf	(sqrtf@q+3)& (0+255),w,b
  8244  004998  6F91               	movwf	(??_sqrtf+3)& (0+255),b
  8245  00499A  518E               	movf	??_sqrtf& (0+255),w,b
  8246  00499C  27A3               	addwf	sqrtf@q& (0+255),f,b
  8247  00499E  518F               	movf	(??_sqrtf+1)& (0+255),w,b
  8248  0049A0  23A4               	addwfc	(sqrtf@q+1)& (0+255),f,b
  8249  0049A2  5190               	movf	(??_sqrtf+2)& (0+255),w,b
  8250  0049A4  23A5               	addwfc	(sqrtf@q+2)& (0+255),f,b
  8251  0049A6  5191               	movf	(??_sqrtf+3)& (0+255),w,b
  8252  0049A8  23A6               	addwfc	(sqrtf@q+3)& (0+255),f,b
  8253  0049AA                     l1185:
  8254                           
  8255                           ; BSR set to: 0
  8256  0049AA  C0A3  F08E         	movff	sqrtf@q,??_sqrtf
  8257  0049AE  C0A4  F08F         	movff	sqrtf@q+1,??_sqrtf+1
  8258  0049B2  C0A5  F090         	movff	sqrtf@q+2,??_sqrtf+2
  8259  0049B6  C0A6  F091         	movff	sqrtf@q+3,??_sqrtf+3
  8260  0049BA  3591               	rlcf	(??_sqrtf+3)& (0+255),w,b
  8261  0049BC  3391               	rrcf	(??_sqrtf+3)& (0+255),f,b
  8262  0049BE  3390               	rrcf	(??_sqrtf+2)& (0+255),f,b
  8263  0049C0  338F               	rrcf	(??_sqrtf+1)& (0+255),f,b
  8264  0049C2  338E               	rrcf	??_sqrtf& (0+255),f,b
  8265  0049C4  0E00               	movlw	0
  8266  0049C6  258E               	addwf	??_sqrtf& (0+255),w,b
  8267  0049C8  6FB7               	movwf	sqrtf@ix& (0+255),b
  8268  0049CA  0E00               	movlw	0
  8269  0049CC  218F               	addwfc	(??_sqrtf+1)& (0+255),w,b
  8270  0049CE  6FB8               	movwf	(sqrtf@ix+1)& (0+255),b
  8271  0049D0  0E00               	movlw	0
  8272  0049D2  2190               	addwfc	(??_sqrtf+2)& (0+255),w,b
  8273  0049D4  6FB9               	movwf	(sqrtf@ix+2)& (0+255),b
  8274  0049D6  0E3F               	movlw	63
  8275  0049D8  2191               	addwfc	(??_sqrtf+3)& (0+255),w,b
  8276  0049DA  6FBA               	movwf	(sqrtf@ix+3)& (0+255),b
  8277  0049DC  C0AF  F08E         	movff	sqrtf@m,??_sqrtf
  8278  0049E0  C0B0  F08F         	movff	sqrtf@m+1,??_sqrtf+1
  8279  0049E4  C0B1  F090         	movff	sqrtf@m+2,??_sqrtf+2
  8280  0049E8  C0B2  F091         	movff	sqrtf@m+3,??_sqrtf+3
  8281  0049EC  0E17               	movlw	23
  8282  0049EE                     u5555:
  8283  0049EE  90D8               	bcf	status,0,c
  8284  0049F0  378E               	rlcf	??_sqrtf& (0+255),f,b
  8285  0049F2  378F               	rlcf	(??_sqrtf+1)& (0+255),f,b
  8286  0049F4  3790               	rlcf	(??_sqrtf+2)& (0+255),f,b
  8287  0049F6  3791               	rlcf	(??_sqrtf+3)& (0+255),f,b
  8288  0049F8  2EE8               	decfsz	wreg,f,c
  8289  0049FA  EFF7  F024         	goto	u5555
  8290  0049FE  518E               	movf	??_sqrtf& (0+255),w,b
  8291  004A00  27B7               	addwf	sqrtf@ix& (0+255),f,b
  8292  004A02  518F               	movf	(??_sqrtf+1)& (0+255),w,b
  8293  004A04  23B8               	addwfc	(sqrtf@ix+1)& (0+255),f,b
  8294  004A06  5190               	movf	(??_sqrtf+2)& (0+255),w,b
  8295  004A08  23B9               	addwfc	(sqrtf@ix+2)& (0+255),f,b
  8296  004A0A  5191               	movf	(??_sqrtf+3)& (0+255),w,b
  8297  004A0C  23BA               	addwfc	(sqrtf@ix+3)& (0+255),f,b
  8298  004A0E                     
  8299                           ; BSR set to: 0
  8300  004A0E  C0B7  F09F         	movff	sqrtf@ix,sqrtf@__xc8_float_word
  8301  004A12  C0B8  F0A0         	movff	sqrtf@ix+1,sqrtf@__xc8_float_word+1
  8302  004A16  C0B9  F0A1         	movff	sqrtf@ix+2,sqrtf@__xc8_float_word+2
  8303  004A1A  C0BA  F0A2         	movff	sqrtf@ix+3,sqrtf@__xc8_float_word+3
  8304  004A1E                     
  8305                           ; BSR set to: 0
  8306  004A1E  C09F  F0AB         	movff	sqrtf@__xc8_float_word,sqrtf@z
  8307  004A22  C0A0  F0AC         	movff	sqrtf@__xc8_float_word+1,sqrtf@z+1
  8308  004A26  C0A1  F0AD         	movff	sqrtf@__xc8_float_word+2,sqrtf@z+2
  8309  004A2A  C0A2  F0AE         	movff	sqrtf@__xc8_float_word+3,sqrtf@z+3
  8310  004A2E                     
  8311                           ; BSR set to: 0
  8312  004A2E  C0AB  F08A         	movff	sqrtf@z,?_sqrtf
  8313  004A32  C0AC  F08B         	movff	sqrtf@z+1,?_sqrtf+1
  8314  004A36  C0AD  F08C         	movff	sqrtf@z+2,?_sqrtf+2
  8315  004A3A  C0AE  F08D         	movff	sqrtf@z+3,?_sqrtf+3
  8316  004A3E                     l1172:
  8317  004A3E  0012               	return		;funcret
  8318  004A40                     __end_of_sqrtf:
  8319                           	opt callstack 0
  8320                           
  8321 ;; *************** function _nanf *****************
  8322 ;; Defined at:
  8323 ;;		line 4 in file "/opt/microchip/xc8/v2.10/pic/sources/c99/common/nanf.c"
  8324 ;; Parameters:    Size  Location     Type
  8325 ;;  s               2   20[COMRAM] PTR const unsigned char 
  8326 ;;		 -> STR_1(1), 
  8327 ;; Auto vars:     Size  Location     Type
  8328 ;;  u               4   24[COMRAM] struct .
  8329 ;; Return value:  Size  Location     Type
  8330 ;;                  4   20[COMRAM] float 
  8331 ;; Registers used:
  8332 ;;		wreg, status,2
  8333 ;; Tracked objects:
  8334 ;;		On entry : 0/0
  8335 ;;		On exit  : 0/0
  8336 ;;		Unchanged: 0/0
  8337 ;; Data sizes:     COMRAM   BANK0   BANK1   BANK2   BANK3   BANK4   BANK5   BANK6   BANK7   BANK8   BANK9  BANK10  BANK1
      +1  BANK12  BANK13  BANK14  BANK15
  8338 ;;      Params:         4       0       0       0       0       0       0       0       0       0       0       0       
      +0       0       0       0       0
  8339 ;;      Locals:         4       0       0       0       0       0       0       0       0       0       0       0       
      +0       0       0       0       0
  8340 ;;      Temps:          0       0       0       0       0       0       0       0       0       0       0       0       
      +0       0       0       0       0
  8341 ;;      Totals:         8       0       0       0       0       0       0       0       0       0       0       0       
      +0       0       0       0       0
  8342 ;;Total ram usage:        8 bytes
  8343 ;; Hardware stack levels used:    1
  8344 ;; Hardware stack levels required when called:    4
  8345 ;; This function calls:
  8346 ;;		Nothing
  8347 ;; This function is called by:
  8348 ;;		_sqrtf
  8349 ;; This function uses a non-reentrant model
  8350 ;;
  8351                           
  8352                           	psect	text21
  8353  00641C                     __ptext21:
  8354                           	opt callstack 0
  8355  00641C                     _nanf:
  8356                           	opt callstack 22
  8357  00641C  0EFF               	movlw	255
  8358  00641E  6E19               	movwf	nanf@u^0,c
  8359  006420  0EFF               	movlw	255
  8360  006422  6E1A               	movwf	(nanf@u+1)^0,c
  8361  006424  0EFF               	movlw	255
  8362  006426  6E1B               	movwf	(nanf@u+2)^0,c
  8363  006428  0E7F               	movlw	127
  8364  00642A  6E1C               	movwf	(nanf@u+3)^0,c
  8365  00642C  C019  F015         	movff	nanf@u,?_nanf
  8366  006430  C01A  F016         	movff	nanf@u+1,?_nanf+1
  8367  006434  C01B  F017         	movff	nanf@u+2,?_nanf+2
  8368  006438  C01C  F018         	movff	nanf@u+3,?_nanf+3
  8369  00643C  0012               	return		;funcret
  8370  00643E                     __end_of_nanf:
  8371                           	opt callstack 0
  8372                           
  8373 ;; *************** function ___flge *****************
  8374 ;; Defined at:
  8375 ;;		line 4 in file "/opt/microchip/xc8/v2.10/pic/sources/c99/common/flge.c"
  8376 ;; Parameters:    Size  Location     Type
  8377 ;;  ff1             4   30[BANK0 ] float 
  8378 ;;  ff2             4   34[BANK0 ] float 
  8379 ;; Auto vars:     Size  Location     Type
  8380 ;;		None
  8381 ;; Return value:  Size  Location     Type
  8382 ;;		None               void
  8383 ;; Registers used:
  8384 ;;		wreg, status,2, status,0
  8385 ;; Tracked objects:
  8386 ;;		On entry : 0/0
  8387 ;;		On exit  : 0/0
  8388 ;;		Unchanged: 0/0
  8389 ;; Data sizes:     COMRAM   BANK0   BANK1   BANK2   BANK3   BANK4   BANK5   BANK6   BANK7   BANK8   BANK9  BANK10  BANK1
      +1  BANK12  BANK13  BANK14  BANK15
  8390 ;;      Params:         0       8       0       0       0       0       0       0       0       0       0       0       
      +0       0       0       0       0
  8391 ;;      Locals:         0       0       0       0       0       0       0       0       0       0       0       0       
      +0       0       0       0       0
  8392 ;;      Temps:          0       4       0       0       0       0       0       0       0       0       0       0       
      +0       0       0       0       0
  8393 ;;      Totals:         0      12       0       0       0       0       0       0       0       0       0       0       
      +0       0       0       0       0
  8394 ;;Total ram usage:       12 bytes
  8395 ;; Hardware stack levels used:    1
  8396 ;; Hardware stack levels required when called:    4
  8397 ;; This function calls:
  8398 ;;		Nothing
  8399 ;; This function is called by:
  8400 ;;		_powf
  8401 ;;		_sqrtf
  8402 ;; This function uses a non-reentrant model
  8403 ;;
  8404                           
  8405                           	psect	text22
  8406  00601A                     __ptext22:
  8407                           	opt callstack 0
  8408  00601A                     ___flge:
  8409                           	opt callstack 22
  8410  00601A  0E00               	movlw	0
  8411  00601C  0100               	movlb	0	; () banked
  8412  00601E  157E               	andwf	___flge@ff1& (0+255),w,b
  8413  006020  6F86               	movwf	??___flge& (0+255),b
  8414  006022  0E00               	movlw	0
  8415  006024  157F               	andwf	(___flge@ff1+1)& (0+255),w,b
  8416  006026  6F87               	movwf	(??___flge+1)& (0+255),b
  8417  006028  0E80               	movlw	128
  8418  00602A  1580               	andwf	(___flge@ff1+2)& (0+255),w,b
  8419  00602C  6F88               	movwf	(??___flge+2)& (0+255),b
  8420  00602E  0E7F               	movlw	127
  8421  006030  1581               	andwf	(___flge@ff1+3)& (0+255),w,b
  8422  006032  6F89               	movwf	(??___flge+3)& (0+255),b
  8423  006034  5186               	movf	??___flge& (0+255),w,b
  8424  006036  1187               	iorwf	(??___flge+1)& (0+255),w,b
  8425  006038  1188               	iorwf	(??___flge+2)& (0+255),w,b
  8426  00603A  1189               	iorwf	(??___flge+3)& (0+255),w,b
  8427  00603C  A4D8               	btfss	status,2,c
  8428  00603E  EF23  F030         	goto	u5031
  8429  006042  EF25  F030         	goto	u5030
  8430  006046                     u5031:
  8431  006046  EF2D  F030         	goto	l4312
  8432  00604A                     u5030:
  8433  00604A                     
  8434                           ; BSR set to: 0
  8435  00604A  0E00               	movlw	0
  8436  00604C  6F7E               	movwf	___flge@ff1& (0+255),b
  8437  00604E  0E00               	movlw	0
  8438  006050  6F7F               	movwf	(___flge@ff1+1)& (0+255),b
  8439  006052  0E00               	movlw	0
  8440  006054  6F80               	movwf	(___flge@ff1+2)& (0+255),b
  8441  006056  0E00               	movlw	0
  8442  006058  6F81               	movwf	(___flge@ff1+3)& (0+255),b
  8443  00605A                     l4312:
  8444                           
  8445                           ; BSR set to: 0
  8446  00605A  0E00               	movlw	0
  8447  00605C  1582               	andwf	___flge@ff2& (0+255),w,b
  8448  00605E  6F86               	movwf	??___flge& (0+255),b
  8449  006060  0E00               	movlw	0
  8450  006062  1583               	andwf	(___flge@ff2+1)& (0+255),w,b
  8451  006064  6F87               	movwf	(??___flge+1)& (0+255),b
  8452  006066  0E80               	movlw	128
  8453  006068  1584               	andwf	(___flge@ff2+2)& (0+255),w,b
  8454  00606A  6F88               	movwf	(??___flge+2)& (0+255),b
  8455  00606C  0E7F               	movlw	127
  8456  00606E  1585               	andwf	(___flge@ff2+3)& (0+255),w,b
  8457  006070  6F89               	movwf	(??___flge+3)& (0+255),b
  8458  006072  5186               	movf	??___flge& (0+255),w,b
  8459  006074  1187               	iorwf	(??___flge+1)& (0+255),w,b
  8460  006076  1188               	iorwf	(??___flge+2)& (0+255),w,b
  8461  006078  1189               	iorwf	(??___flge+3)& (0+255),w,b
  8462  00607A  A4D8               	btfss	status,2,c
  8463  00607C  EF42  F030         	goto	u5041
  8464  006080  EF44  F030         	goto	u5040
  8465  006084                     u5041:
  8466  006084  EF4C  F030         	goto	l4316
  8467  006088                     u5040:
  8468  006088                     
  8469                           ; BSR set to: 0
  8470  006088  0E00               	movlw	0
  8471  00608A  6F82               	movwf	___flge@ff2& (0+255),b
  8472  00608C  0E00               	movlw	0
  8473  00608E  6F83               	movwf	(___flge@ff2+1)& (0+255),b
  8474  006090  0E00               	movlw	0
  8475  006092  6F84               	movwf	(___flge@ff2+2)& (0+255),b
  8476  006094  0E00               	movlw	0
  8477  006096  6F85               	movwf	(___flge@ff2+3)& (0+255),b
  8478  006098                     l4316:
  8479                           
  8480                           ; BSR set to: 0
  8481  006098  AF81               	btfss	(___flge@ff1+3)& (0+255),7,b
  8482  00609A  EF51  F030         	goto	u5051
  8483  00609E  EF53  F030         	goto	u5050
  8484  0060A2                     u5051:
  8485  0060A2  EF5C  F030         	goto	l4320
  8486  0060A6                     u5050:
  8487  0060A6                     
  8488                           ; BSR set to: 0
  8489  0060A6  6D7E               	negf	___flge@ff1& (0+255),b
  8490  0060A8  1F7F               	comf	(___flge@ff1+1)& (0+255),f,b
  8491  0060AA  B0D8               	btfsc	status,0,c
  8492  0060AC  2B7F               	incf	(___flge@ff1+1)& (0+255),f,b
  8493  0060AE  1F80               	comf	(___flge@ff1+2)& (0+255),f,b
  8494  0060B0  B0D8               	btfsc	status,0,c
  8495  0060B2  2B80               	incf	(___flge@ff1+2)& (0+255),f,b
  8496  0060B4  0E80               	movlw	128
  8497  0060B6  5781               	subfwb	(___flge@ff1+3)& (0+255),f,b
  8498  0060B8                     l4320:
  8499                           
  8500                           ; BSR set to: 0
  8501  0060B8  AF85               	btfss	(___flge@ff2+3)& (0+255),7,b
  8502  0060BA  EF61  F030         	goto	u5061
  8503  0060BE  EF63  F030         	goto	u5060
  8504  0060C2                     u5061:
  8505  0060C2  EF6C  F030         	goto	l563
  8506  0060C6                     u5060:
  8507  0060C6                     
  8508                           ; BSR set to: 0
  8509  0060C6  6D82               	negf	___flge@ff2& (0+255),b
  8510  0060C8  1F83               	comf	(___flge@ff2+1)& (0+255),f,b
  8511  0060CA  B0D8               	btfsc	status,0,c
  8512  0060CC  2B83               	incf	(___flge@ff2+1)& (0+255),f,b
  8513  0060CE  1F84               	comf	(___flge@ff2+2)& (0+255),f,b
  8514  0060D0  B0D8               	btfsc	status,0,c
  8515  0060D2  2B84               	incf	(___flge@ff2+2)& (0+255),f,b
  8516  0060D4  0E80               	movlw	128
  8517  0060D6  5785               	subfwb	(___flge@ff2+3)& (0+255),f,b
  8518  0060D8                     l563:
  8519                           
  8520                           ; BSR set to: 0
  8521  0060D8  0E00               	movlw	0
  8522  0060DA  1B7E               	xorwf	___flge@ff1& (0+255),f,b
  8523  0060DC  0E00               	movlw	0
  8524  0060DE  1B7F               	xorwf	(___flge@ff1+1)& (0+255),f,b
  8525  0060E0  0E00               	movlw	0
  8526  0060E2  1B80               	xorwf	(___flge@ff1+2)& (0+255),f,b
  8527  0060E4  0E80               	movlw	128
  8528  0060E6  1B81               	xorwf	(___flge@ff1+3)& (0+255),f,b
  8529  0060E8  0E00               	movlw	0
  8530  0060EA  1B82               	xorwf	___flge@ff2& (0+255),f,b
  8531  0060EC  0E00               	movlw	0
  8532  0060EE  1B83               	xorwf	(___flge@ff2+1)& (0+255),f,b
  8533  0060F0  0E00               	movlw	0
  8534  0060F2  1B84               	xorwf	(___flge@ff2+2)& (0+255),f,b
  8535  0060F4  0E80               	movlw	128
  8536  0060F6  1B85               	xorwf	(___flge@ff2+3)& (0+255),f,b
  8537  0060F8  5182               	movf	___flge@ff2& (0+255),w,b
  8538  0060FA  5D7E               	subwf	___flge@ff1& (0+255),w,b
  8539  0060FC  5183               	movf	(___flge@ff2+1)& (0+255),w,b
  8540  0060FE  597F               	subwfb	(___flge@ff1+1)& (0+255),w,b
  8541  006100  5184               	movf	(___flge@ff2+2)& (0+255),w,b
  8542  006102  5980               	subwfb	(___flge@ff1+2)& (0+255),w,b
  8543  006104  5185               	movf	(___flge@ff2+3)& (0+255),w,b
  8544  006106  5981               	subwfb	(___flge@ff1+3)& (0+255),w,b
  8545  006108  B0D8               	btfsc	status,0,c
  8546  00610A  EF89  F030         	goto	u5071
  8547  00610E  EF8B  F030         	goto	u5070
  8548  006112                     u5071:
  8549  006112  EF8E  F030         	goto	l4326
  8550  006116                     u5070:
  8551  006116                     
  8552                           ; BSR set to: 0
  8553  006116  90D8               	bcf	status,0,c
  8554  006118  EF8F  F030         	goto	l568
  8555  00611C                     l4326:
  8556                           
  8557                           ; BSR set to: 0
  8558  00611C  80D8               	bsf	status,0,c
  8559  00611E                     l568:
  8560                           
  8561                           ; BSR set to: 0
  8562  00611E  0012               	return		;funcret
  8563  006120                     __end_of___flge:
  8564                           	opt callstack 0
  8565                           
  8566 ;; *************** function _scalbnf *****************
  8567 ;; Defined at:
  8568 ;;		line 4 in file "/opt/microchip/xc8/v2.10/pic/sources/c99/common/scalbnf.c"
  8569 ;; Parameters:    Size  Location     Type
  8570 ;;  x               4   45[COMRAM] float 
  8571 ;;  n               2   49[COMRAM] int 
  8572 ;; Auto vars:     Size  Location     Type
  8573 ;;  y               4    4[BANK0 ] float 
  8574 ;;  u               4    0[BANK0 ] struct .
  8575 ;; Return value:  Size  Location     Type
  8576 ;;                  4   45[COMRAM] float 
  8577 ;; Registers used:
  8578 ;;		wreg, status,2, status,0, prodl, prodh, cstack
  8579 ;; Tracked objects:
  8580 ;;		On entry : 0/0
  8581 ;;		On exit  : 0/0
  8582 ;;		Unchanged: 0/0
  8583 ;; Data sizes:     COMRAM   BANK0   BANK1   BANK2   BANK3   BANK4   BANK5   BANK6   BANK7   BANK8   BANK9  BANK10  BANK1
      +1  BANK12  BANK13  BANK14  BANK15
  8584 ;;      Params:         6       0       0       0       0       0       0       0       0       0       0       0       
      +0       0       0       0       0
  8585 ;;      Locals:         0       8       0       0       0       0       0       0       0       0       0       0       
      +0       0       0       0       0
  8586 ;;      Temps:          4       0       0       0       0       0       0       0       0       0       0       0       
      +0       0       0       0       0
  8587 ;;      Totals:        10       8       0       0       0       0       0       0       0       0       0       0       
      +0       0       0       0       0
  8588 ;;Total ram usage:       18 bytes
  8589 ;; Hardware stack levels used:    1
  8590 ;; Hardware stack levels required when called:    5
  8591 ;; This function calls:
  8592 ;;		___flmul
  8593 ;; This function is called by:
  8594 ;;		_powf
  8595 ;; This function uses a non-reentrant model
  8596 ;;
  8597                           
  8598                           	psect	text23
  8599  005508                     __ptext23:
  8600                           	opt callstack 0
  8601  005508                     _scalbnf:
  8602                           	opt callstack 22
  8603  005508  C02E  F064         	movff	scalbnf@x,scalbnf@y
  8604  00550C  C02F  F065         	movff	scalbnf@x+1,scalbnf@y+1
  8605  005510  C030  F066         	movff	scalbnf@x+2,scalbnf@y+2
  8606  005514  C031  F067         	movff	scalbnf@x+3,scalbnf@y+3
  8607  005518  BE33               	btfsc	(scalbnf@n+1)^0,7,c
  8608  00551A  EF98  F02A         	goto	u5561
  8609  00551E  5033               	movf	(scalbnf@n+1)^0,w,c
  8610  005520  E109               	bnz	u5560
  8611  005522  0E80               	movlw	128
  8612  005524  5C32               	subwf	scalbnf@n^0,w,c
  8613  005526  A0D8               	btfss	status,0,c
  8614  005528  EF98  F02A         	goto	u5561
  8615  00552C  EF9A  F02A         	goto	u5560
  8616  005530                     u5561:
  8617  005530  EFF8  F02A         	goto	l4642
  8618  005534                     u5560:
  8619  005534  C064  F015         	movff	scalbnf@y,___flmul@b
  8620  005538  C065  F016         	movff	scalbnf@y+1,___flmul@b+1
  8621  00553C  C066  F017         	movff	scalbnf@y+2,___flmul@b+2
  8622  005540  C067  F018         	movff	scalbnf@y+3,___flmul@b+3
  8623  005544  0E00               	movlw	0
  8624  005546  6E19               	movwf	___flmul@a^0,c
  8625  005548  0E00               	movlw	0
  8626  00554A  6E1A               	movwf	(___flmul@a+1)^0,c
  8627  00554C  0E00               	movlw	0
  8628  00554E  6E1B               	movwf	(___flmul@a+2)^0,c
  8629  005550  0E7F               	movlw	127
  8630  005552  6E1C               	movwf	(___flmul@a+3)^0,c
  8631  005554  EC20  F025         	call	___flmul	;wreg free
  8632  005558  C015  F064         	movff	?___flmul,scalbnf@y
  8633  00555C  C016  F065         	movff	?___flmul+1,scalbnf@y+1
  8634  005560  C017  F066         	movff	?___flmul+2,scalbnf@y+2
  8635  005564  C018  F067         	movff	?___flmul+3,scalbnf@y+3
  8636  005568  0E81               	movlw	129
  8637  00556A  2632               	addwf	scalbnf@n^0,f,c
  8638  00556C  0EFF               	movlw	255
  8639  00556E  2233               	addwfc	(scalbnf@n+1)^0,f,c
  8640  005570  BE33               	btfsc	(scalbnf@n+1)^0,7,c
  8641  005572  EFC4  F02A         	goto	u5571
  8642  005576  5033               	movf	(scalbnf@n+1)^0,w,c
  8643  005578  E109               	bnz	u5570
  8644  00557A  0E80               	movlw	128
  8645  00557C  5C32               	subwf	scalbnf@n^0,w,c
  8646  00557E  A0D8               	btfss	status,0,c
  8647  005580  EFC4  F02A         	goto	u5571
  8648  005584  EFC6  F02A         	goto	u5570
  8649  005588                     u5571:
  8650  005588  EF62  F02B         	goto	l4658
  8651  00558C                     u5570:
  8652  00558C  C064  F015         	movff	scalbnf@y,___flmul@b
  8653  005590  C065  F016         	movff	scalbnf@y+1,___flmul@b+1
  8654  005594  C066  F017         	movff	scalbnf@y+2,___flmul@b+2
  8655  005598  C067  F018         	movff	scalbnf@y+3,___flmul@b+3
  8656  00559C  0E00               	movlw	0
  8657  00559E  6E19               	movwf	___flmul@a^0,c
  8658  0055A0  0E00               	movlw	0
  8659  0055A2  6E1A               	movwf	(___flmul@a+1)^0,c
  8660  0055A4  0E00               	movlw	0
  8661  0055A6  6E1B               	movwf	(___flmul@a+2)^0,c
  8662  0055A8  0E7F               	movlw	127
  8663  0055AA  6E1C               	movwf	(___flmul@a+3)^0,c
  8664  0055AC  EC20  F025         	call	___flmul	;wreg free
  8665  0055B0  C015  F064         	movff	?___flmul,scalbnf@y
  8666  0055B4  C016  F065         	movff	?___flmul+1,scalbnf@y+1
  8667  0055B8  C017  F066         	movff	?___flmul+2,scalbnf@y+2
  8668  0055BC  C018  F067         	movff	?___flmul+3,scalbnf@y+3
  8669  0055C0  0E81               	movlw	129
  8670  0055C2  2632               	addwf	scalbnf@n^0,f,c
  8671  0055C4  0EFF               	movlw	255
  8672  0055C6  2233               	addwfc	(scalbnf@n+1)^0,f,c
  8673  0055C8  BE33               	btfsc	(scalbnf@n+1)^0,7,c
  8674  0055CA  EFF0  F02A         	goto	u5581
  8675  0055CE  5033               	movf	(scalbnf@n+1)^0,w,c
  8676  0055D0  E109               	bnz	u5580
  8677  0055D2  0E80               	movlw	128
  8678  0055D4  5C32               	subwf	scalbnf@n^0,w,c
  8679  0055D6  A0D8               	btfss	status,0,c
  8680  0055D8  EFF0  F02A         	goto	u5581
  8681  0055DC  EFF2  F02A         	goto	u5580
  8682  0055E0                     u5581:
  8683  0055E0  EF62  F02B         	goto	l4658
  8684  0055E4                     u5580:
  8685  0055E4  0E00               	movlw	0
  8686  0055E6  6E33               	movwf	(scalbnf@n+1)^0,c
  8687  0055E8  0E7F               	movlw	127
  8688  0055EA  6E32               	movwf	scalbnf@n^0,c
  8689  0055EC  EF62  F02B         	goto	l4658
  8690  0055F0                     l4642:
  8691  0055F0  AE33               	btfss	(scalbnf@n+1)^0,7,c
  8692  0055F2  EF04  F02B         	goto	u5591
  8693  0055F6  0E82               	movlw	130
  8694  0055F8  5C32               	subwf	scalbnf@n^0,w,c
  8695  0055FA  0EFF               	movlw	255
  8696  0055FC  5833               	subwfb	(scalbnf@n+1)^0,w,c
  8697  0055FE  B0D8               	btfsc	status,0,c
  8698  005600  EF04  F02B         	goto	u5591
  8699  005604  EF06  F02B         	goto	u5590
  8700  005608                     u5591:
  8701  005608  EF62  F02B         	goto	l4658
  8702  00560C                     u5590:
  8703  00560C  C064  F015         	movff	scalbnf@y,___flmul@b
  8704  005610  C065  F016         	movff	scalbnf@y+1,___flmul@b+1
  8705  005614  C066  F017         	movff	scalbnf@y+2,___flmul@b+2
  8706  005618  C067  F018         	movff	scalbnf@y+3,___flmul@b+3
  8707  00561C  0E00               	movlw	0
  8708  00561E  6E19               	movwf	___flmul@a^0,c
  8709  005620  0E00               	movlw	0
  8710  005622  6E1A               	movwf	(___flmul@a+1)^0,c
  8711  005624  0E80               	movlw	128
  8712  005626  6E1B               	movwf	(___flmul@a+2)^0,c
  8713  005628  0E0C               	movlw	12
  8714  00562A  6E1C               	movwf	(___flmul@a+3)^0,c
  8715  00562C  EC20  F025         	call	___flmul	;wreg free
  8716  005630  C015  F064         	movff	?___flmul,scalbnf@y
  8717  005634  C016  F065         	movff	?___flmul+1,scalbnf@y+1
  8718  005638  C017  F066         	movff	?___flmul+2,scalbnf@y+2
  8719  00563C  C018  F067         	movff	?___flmul+3,scalbnf@y+3
  8720  005640  0E66               	movlw	102
  8721  005642  2632               	addwf	scalbnf@n^0,f,c
  8722  005644  0E00               	movlw	0
  8723  005646  2233               	addwfc	(scalbnf@n+1)^0,f,c
  8724  005648  AE33               	btfss	(scalbnf@n+1)^0,7,c
  8725  00564A  EF30  F02B         	goto	u5601
  8726  00564E  0E82               	movlw	130
  8727  005650  5C32               	subwf	scalbnf@n^0,w,c
  8728  005652  0EFF               	movlw	255
  8729  005654  5833               	subwfb	(scalbnf@n+1)^0,w,c
  8730  005656  B0D8               	btfsc	status,0,c
  8731  005658  EF30  F02B         	goto	u5601
  8732  00565C  EF32  F02B         	goto	u5600
  8733  005660                     u5601:
  8734  005660  EF62  F02B         	goto	l4658
  8735  005664                     u5600:
  8736  005664  C064  F015         	movff	scalbnf@y,___flmul@b
  8737  005668  C065  F016         	movff	scalbnf@y+1,___flmul@b+1
  8738  00566C  C066  F017         	movff	scalbnf@y+2,___flmul@b+2
  8739  005670  C067  F018         	movff	scalbnf@y+3,___flmul@b+3
  8740  005674  0E00               	movlw	0
  8741  005676  6E19               	movwf	___flmul@a^0,c
  8742  005678  0E00               	movlw	0
  8743  00567A  6E1A               	movwf	(___flmul@a+1)^0,c
  8744  00567C  0E80               	movlw	128
  8745  00567E  6E1B               	movwf	(___flmul@a+2)^0,c
  8746  005680  0E0C               	movlw	12
  8747  005682  6E1C               	movwf	(___flmul@a+3)^0,c
  8748  005684  EC20  F025         	call	___flmul	;wreg free
  8749  005688  C015  F064         	movff	?___flmul,scalbnf@y
  8750  00568C  C016  F065         	movff	?___flmul+1,scalbnf@y+1
  8751  005690  C017  F066         	movff	?___flmul+2,scalbnf@y+2
  8752  005694  C018  F067         	movff	?___flmul+3,scalbnf@y+3
  8753  005698  0E66               	movlw	102
  8754  00569A  2632               	addwf	scalbnf@n^0,f,c
  8755  00569C  0E00               	movlw	0
  8756  00569E  2233               	addwfc	(scalbnf@n+1)^0,f,c
  8757  0056A0  AE33               	btfss	(scalbnf@n+1)^0,7,c
  8758  0056A2  EF5C  F02B         	goto	u5611
  8759  0056A6  0E82               	movlw	130
  8760  0056A8  5C32               	subwf	scalbnf@n^0,w,c
  8761  0056AA  0EFF               	movlw	255
  8762  0056AC  5833               	subwfb	(scalbnf@n+1)^0,w,c
  8763  0056AE  B0D8               	btfsc	status,0,c
  8764  0056B0  EF5C  F02B         	goto	u5611
  8765  0056B4  EF5E  F02B         	goto	u5610
  8766  0056B8                     u5611:
  8767  0056B8  EF62  F02B         	goto	l4658
  8768  0056BC                     u5610:
  8769  0056BC  0EFF               	movlw	255
  8770  0056BE  6E33               	movwf	(scalbnf@n+1)^0,c
  8771  0056C0  0E82               	movlw	130
  8772  0056C2  6E32               	movwf	scalbnf@n^0,c
  8773  0056C4                     l4658:
  8774  0056C4  0E7F               	movlw	127
  8775  0056C6  2432               	addwf	scalbnf@n^0,w,c
  8776  0056C8  6E34               	movwf	??_scalbnf^0,c
  8777  0056CA  0E00               	movlw	0
  8778  0056CC  2033               	addwfc	(scalbnf@n+1)^0,w,c
  8779  0056CE  6E35               	movwf	(??_scalbnf+1)^0,c
  8780  0056D0  6A36               	clrf	(??_scalbnf+2)^0,c
  8781  0056D2  6A37               	clrf	(??_scalbnf+3)^0,c
  8782  0056D4  0E17               	movlw	23
  8783  0056D6                     u5625:
  8784  0056D6  90D8               	bcf	status,0,c
  8785  0056D8  3634               	rlcf	??_scalbnf^0,f,c
  8786  0056DA  3635               	rlcf	(??_scalbnf+1)^0,f,c
  8787  0056DC  3636               	rlcf	(??_scalbnf+2)^0,f,c
  8788  0056DE  3637               	rlcf	(??_scalbnf+3)^0,f,c
  8789  0056E0  2EE8               	decfsz	wreg,f,c
  8790  0056E2  EF6B  F02B         	goto	u5625
  8791  0056E6  C034  F060         	movff	??_scalbnf,scalbnf@u
  8792  0056EA  C035  F061         	movff	??_scalbnf+1,scalbnf@u+1
  8793  0056EE  C036  F062         	movff	??_scalbnf+2,scalbnf@u+2
  8794  0056F2  C037  F063         	movff	??_scalbnf+3,scalbnf@u+3
  8795  0056F6  C060  F015         	movff	scalbnf@u,___flmul@b
  8796  0056FA  C061  F016         	movff	scalbnf@u+1,___flmul@b+1
  8797  0056FE  C062  F017         	movff	scalbnf@u+2,___flmul@b+2
  8798  005702  C063  F018         	movff	scalbnf@u+3,___flmul@b+3
  8799  005706  C064  F019         	movff	scalbnf@y,___flmul@a
  8800  00570A  C065  F01A         	movff	scalbnf@y+1,___flmul@a+1
  8801  00570E  C066  F01B         	movff	scalbnf@y+2,___flmul@a+2
  8802  005712  C067  F01C         	movff	scalbnf@y+3,___flmul@a+3
  8803  005716  EC20  F025         	call	___flmul	;wreg free
  8804  00571A  C015  F02E         	movff	?___flmul,scalbnf@x
  8805  00571E  C016  F02F         	movff	?___flmul+1,scalbnf@x+1
  8806  005722  C017  F030         	movff	?___flmul+2,scalbnf@x+2
  8807  005726  C018  F031         	movff	?___flmul+3,scalbnf@x+3
  8808  00572A  C02E  F02E         	movff	scalbnf@x,?_scalbnf
  8809  00572E  C02F  F02F         	movff	scalbnf@x+1,?_scalbnf+1
  8810  005732  C030  F030         	movff	scalbnf@x+2,?_scalbnf+2
  8811  005736  C031  F031         	movff	scalbnf@x+3,?_scalbnf+3
  8812  00573A  0012               	return		;funcret
  8813  00573C                     __end_of_scalbnf:
  8814                           	opt callstack 0
  8815                           
  8816 ;; *************** function ___flmul *****************
  8817 ;; Defined at:
  8818 ;;		line 8 in file "/opt/microchip/xc8/v2.10/pic/sources/c99/common/sprcmul.c"
  8819 ;; Parameters:    Size  Location     Type
  8820 ;;  b               4   20[COMRAM] float 
  8821 ;;  a               4   24[COMRAM] float 
  8822 ;; Auto vars:     Size  Location     Type
  8823 ;;  prod            4   39[COMRAM] struct .
  8824 ;;  grs             4   34[COMRAM] unsigned long 
  8825 ;;  temp            2   43[COMRAM] struct .
  8826 ;;  bexp            1   38[COMRAM] unsigned char 
  8827 ;;  aexp            1   33[COMRAM] unsigned char 
  8828 ;;  sign            1   32[COMRAM] unsigned char 
  8829 ;; Return value:  Size  Location     Type
  8830 ;;                  4   20[COMRAM] unsigned char 
  8831 ;; Registers used:
  8832 ;;		wreg, status,2, status,0, prodl, prodh
  8833 ;; Tracked objects:
  8834 ;;		On entry : 0/0
  8835 ;;		On exit  : 0/0
  8836 ;;		Unchanged: 0/0
  8837 ;; Data sizes:     COMRAM   BANK0   BANK1   BANK2   BANK3   BANK4   BANK5   BANK6   BANK7   BANK8   BANK9  BANK10  BANK1
      +1  BANK12  BANK13  BANK14  BANK15
  8838 ;;      Params:         8       0       0       0       0       0       0       0       0       0       0       0       
      +0       0       0       0       0
  8839 ;;      Locals:        13       0       0       0       0       0       0       0       0       0       0       0       
      +0       0       0       0       0
  8840 ;;      Temps:          4       0       0       0       0       0       0       0       0       0       0       0       
      +0       0       0       0       0
  8841 ;;      Totals:        25       0       0       0       0       0       0       0       0       0       0       0       
      +0       0       0       0       0
  8842 ;;Total ram usage:       25 bytes
  8843 ;; Hardware stack levels used:    1
  8844 ;; Hardware stack levels required when called:    4
  8845 ;; This function calls:
  8846 ;;		Nothing
  8847 ;; This function is called by:
  8848 ;;		_calculate_init_tmr0
  8849 ;;		_calculate_init_tmr1
  8850 ;;		_powf
  8851 ;;		_scalbnf
  8852 ;;		_sqrtf
  8853 ;; This function uses a non-reentrant model
  8854 ;;
  8855                           
  8856                           	psect	text24
  8857  004A40                     __ptext24:
  8858                           	opt callstack 0
  8859  004A40                     ___flmul:
  8860                           	opt callstack 22
  8861  004A40  5018               	movf	(___flmul@b+3)^0,w,c
  8862  004A42  0B80               	andlw	128
  8863  004A44  6E21               	movwf	___flmul@sign^0,c
  8864  004A46  5018               	movf	(___flmul@b+3)^0,w,c
  8865  004A48  2418               	addwf	(___flmul@b+3)^0,w,c
  8866  004A4A  6E27               	movwf	___flmul@bexp^0,c
  8867  004A4C  AE17               	btfss	(___flmul@b+2)^0,7,c
  8868  004A4E  EF2B  F025         	goto	u4841
  8869  004A52  EF2D  F025         	goto	u4840
  8870  004A56                     u4841:
  8871  004A56  EF2E  F025         	goto	l4184
  8872  004A5A                     u4840:
  8873  004A5A  8027               	bsf	___flmul@bexp^0,0,c
  8874  004A5C                     l4184:
  8875  004A5C  5027               	movf	___flmul@bexp^0,w,c
  8876  004A5E  B4D8               	btfsc	status,2,c
  8877  004A60  EF34  F025         	goto	u4851
  8878  004A64  EF36  F025         	goto	u4850
  8879  004A68                     u4851:
  8880  004A68  EF49  F025         	goto	l4192
  8881  004A6C                     u4850:
  8882  004A6C  2827               	incf	___flmul@bexp^0,w,c
  8883  004A6E  A4D8               	btfss	status,2,c
  8884  004A70  EF3C  F025         	goto	u4861
  8885  004A74  EF3E  F025         	goto	u4860
  8886  004A78                     u4861:
  8887  004A78  EF46  F025         	goto	l4190
  8888  004A7C                     u4860:
  8889  004A7C  0E00               	movlw	0
  8890  004A7E  6E15               	movwf	___flmul@b^0,c
  8891  004A80  0E00               	movlw	0
  8892  004A82  6E16               	movwf	(___flmul@b+1)^0,c
  8893  004A84  0E00               	movlw	0
  8894  004A86  6E17               	movwf	(___flmul@b+2)^0,c
  8895  004A88  0E00               	movlw	0
  8896  004A8A  6E18               	movwf	(___flmul@b+3)^0,c
  8897  004A8C                     l4190:
  8898  004A8C  8E17               	bsf	(___flmul@b+2)^0,7,c
  8899  004A8E  EF51  F025         	goto	l4194
  8900  004A92                     l4192:
  8901  004A92  0E00               	movlw	0
  8902  004A94  6E15               	movwf	___flmul@b^0,c
  8903  004A96  0E00               	movlw	0
  8904  004A98  6E16               	movwf	(___flmul@b+1)^0,c
  8905  004A9A  0E00               	movlw	0
  8906  004A9C  6E17               	movwf	(___flmul@b+2)^0,c
  8907  004A9E  0E00               	movlw	0
  8908  004AA0  6E18               	movwf	(___flmul@b+3)^0,c
  8909  004AA2                     l4194:
  8910  004AA2  501C               	movf	(___flmul@a+3)^0,w,c
  8911  004AA4  0B80               	andlw	128
  8912  004AA6  1A21               	xorwf	___flmul@sign^0,f,c
  8913  004AA8  501C               	movf	(___flmul@a+3)^0,w,c
  8914  004AAA  241C               	addwf	(___flmul@a+3)^0,w,c
  8915  004AAC  6E22               	movwf	___flmul@aexp^0,c
  8916  004AAE  AE1B               	btfss	(___flmul@a+2)^0,7,c
  8917  004AB0  EF5C  F025         	goto	u4871
  8918  004AB4  EF5E  F025         	goto	u4870
  8919  004AB8                     u4871:
  8920  004AB8  EF5F  F025         	goto	l4202
  8921  004ABC                     u4870:
  8922  004ABC  8022               	bsf	___flmul@aexp^0,0,c
  8923  004ABE                     l4202:
  8924  004ABE  5022               	movf	___flmul@aexp^0,w,c
  8925  004AC0  B4D8               	btfsc	status,2,c
  8926  004AC2  EF65  F025         	goto	u4881
  8927  004AC6  EF67  F025         	goto	u4880
  8928  004ACA                     u4881:
  8929  004ACA  EF7A  F025         	goto	l4210
  8930  004ACE                     u4880:
  8931  004ACE  2822               	incf	___flmul@aexp^0,w,c
  8932  004AD0  A4D8               	btfss	status,2,c
  8933  004AD2  EF6D  F025         	goto	u4891
  8934  004AD6  EF6F  F025         	goto	u4890
  8935  004ADA                     u4891:
  8936  004ADA  EF77  F025         	goto	l4208
  8937  004ADE                     u4890:
  8938  004ADE  0E00               	movlw	0
  8939  004AE0  6E19               	movwf	___flmul@a^0,c
  8940  004AE2  0E00               	movlw	0
  8941  004AE4  6E1A               	movwf	(___flmul@a+1)^0,c
  8942  004AE6  0E00               	movlw	0
  8943  004AE8  6E1B               	movwf	(___flmul@a+2)^0,c
  8944  004AEA  0E00               	movlw	0
  8945  004AEC  6E1C               	movwf	(___flmul@a+3)^0,c
  8946  004AEE                     l4208:
  8947  004AEE  8E1B               	bsf	(___flmul@a+2)^0,7,c
  8948  004AF0  EF82  F025         	goto	l912
  8949  004AF4                     l4210:
  8950  004AF4  0E00               	movlw	0
  8951  004AF6  6E19               	movwf	___flmul@a^0,c
  8952  004AF8  0E00               	movlw	0
  8953  004AFA  6E1A               	movwf	(___flmul@a+1)^0,c
  8954  004AFC  0E00               	movlw	0
  8955  004AFE  6E1B               	movwf	(___flmul@a+2)^0,c
  8956  004B00  0E00               	movlw	0
  8957  004B02  6E1C               	movwf	(___flmul@a+3)^0,c
  8958  004B04                     l912:
  8959  004B04  5022               	movf	___flmul@aexp^0,w,c
  8960  004B06  B4D8               	btfsc	status,2,c
  8961  004B08  EF88  F025         	goto	u4901
  8962  004B0C  EF8A  F025         	goto	u4900
  8963  004B10                     u4901:
  8964  004B10  EF92  F025         	goto	l4214
  8965  004B14                     u4900:
  8966  004B14  5027               	movf	___flmul@bexp^0,w,c
  8967  004B16  A4D8               	btfss	status,2,c
  8968  004B18  EF90  F025         	goto	u4911
  8969  004B1C  EF92  F025         	goto	u4910
  8970  004B20                     u4911:
  8971  004B20  EF9C  F025         	goto	l4218
  8972  004B24                     u4910:
  8973  004B24                     l4214:
  8974  004B24  0E00               	movlw	0
  8975  004B26  6E15               	movwf	?___flmul^0,c
  8976  004B28  0E00               	movlw	0
  8977  004B2A  6E16               	movwf	(?___flmul+1)^0,c
  8978  004B2C  0E00               	movlw	0
  8979  004B2E  6E17               	movwf	(?___flmul+2)^0,c
  8980  004B30  0E00               	movlw	0
  8981  004B32  6E18               	movwf	(?___flmul+3)^0,c
  8982  004B34  EF34  F027         	goto	l916
  8983  004B38                     l4218:
  8984  004B38  501B               	movf	(___flmul@a+2)^0,w,c
  8985  004B3A  0215               	mulwf	___flmul@b^0,c
  8986  004B3C  CFF3 F02C          	movff	prodl,___flmul@temp
  8987  004B40  CFF4 F02D          	movff	prodh,___flmul@temp+1
  8988  004B44  502C               	movf	___flmul@temp^0,w,c
  8989  004B46  6E23               	movwf	___flmul@grs^0,c
  8990  004B48  6A24               	clrf	(___flmul@grs+1)^0,c
  8991  004B4A  6A25               	clrf	(___flmul@grs+2)^0,c
  8992  004B4C  6A26               	clrf	(___flmul@grs+3)^0,c
  8993  004B4E  502D               	movf	(___flmul@temp+1)^0,w,c
  8994  004B50  6E28               	movwf	___flmul@prod^0,c
  8995  004B52  6A29               	clrf	(___flmul@prod+1)^0,c
  8996  004B54  6A2A               	clrf	(___flmul@prod+2)^0,c
  8997  004B56  6A2B               	clrf	(___flmul@prod+3)^0,c
  8998  004B58  501A               	movf	(___flmul@a+1)^0,w,c
  8999  004B5A  0216               	mulwf	(___flmul@b+1)^0,c
  9000  004B5C  CFF3 F02C          	movff	prodl,___flmul@temp
  9001  004B60  CFF4 F02D          	movff	prodh,___flmul@temp+1
  9002  004B64  502C               	movf	___flmul@temp^0,w,c
  9003  004B66  2623               	addwf	___flmul@grs^0,f,c
  9004  004B68  0E00               	movlw	0
  9005  004B6A  2224               	addwfc	(___flmul@grs+1)^0,f,c
  9006  004B6C  2225               	addwfc	(___flmul@grs+2)^0,f,c
  9007  004B6E  2226               	addwfc	(___flmul@grs+3)^0,f,c
  9008  004B70  502D               	movf	(___flmul@temp+1)^0,w,c
  9009  004B72  2628               	addwf	___flmul@prod^0,f,c
  9010  004B74  0E00               	movlw	0
  9011  004B76  2229               	addwfc	(___flmul@prod+1)^0,f,c
  9012  004B78  222A               	addwfc	(___flmul@prod+2)^0,f,c
  9013  004B7A  222B               	addwfc	(___flmul@prod+3)^0,f,c
  9014  004B7C  5019               	movf	___flmul@a^0,w,c
  9015  004B7E  0217               	mulwf	(___flmul@b+2)^0,c
  9016  004B80  CFF3 F02C          	movff	prodl,___flmul@temp
  9017  004B84  CFF4 F02D          	movff	prodh,___flmul@temp+1
  9018  004B88  502C               	movf	___flmul@temp^0,w,c
  9019  004B8A  2623               	addwf	___flmul@grs^0,f,c
  9020  004B8C  0E00               	movlw	0
  9021  004B8E  2224               	addwfc	(___flmul@grs+1)^0,f,c
  9022  004B90  2225               	addwfc	(___flmul@grs+2)^0,f,c
  9023  004B92  2226               	addwfc	(___flmul@grs+3)^0,f,c
  9024  004B94  502D               	movf	(___flmul@temp+1)^0,w,c
  9025  004B96  2628               	addwf	___flmul@prod^0,f,c
  9026  004B98  0E00               	movlw	0
  9027  004B9A  2229               	addwfc	(___flmul@prod+1)^0,f,c
  9028  004B9C  222A               	addwfc	(___flmul@prod+2)^0,f,c
  9029  004B9E  222B               	addwfc	(___flmul@prod+3)^0,f,c
  9030  004BA0  C025  F026         	movff	___flmul@grs+2,___flmul@grs+3
  9031  004BA4  C024  F025         	movff	___flmul@grs+1,___flmul@grs+2
  9032  004BA8  C023  F024         	movff	___flmul@grs,___flmul@grs+1
  9033  004BAC  6A23               	clrf	___flmul@grs^0,c
  9034  004BAE  5019               	movf	___flmul@a^0,w,c
  9035  004BB0  0216               	mulwf	(___flmul@b+1)^0,c
  9036  004BB2  CFF3 F02C          	movff	prodl,___flmul@temp
  9037  004BB6  CFF4 F02D          	movff	prodh,___flmul@temp+1
  9038  004BBA  502C               	movf	___flmul@temp^0,w,c
  9039  004BBC  2623               	addwf	___flmul@grs^0,f,c
  9040  004BBE  502D               	movf	(___flmul@temp+1)^0,w,c
  9041  004BC0  2224               	addwfc	(___flmul@grs+1)^0,f,c
  9042  004BC2  0E00               	movlw	0
  9043  004BC4  2225               	addwfc	(___flmul@grs+2)^0,f,c
  9044  004BC6  0E00               	movlw	0
  9045  004BC8  2226               	addwfc	(___flmul@grs+3)^0,f,c
  9046  004BCA  501A               	movf	(___flmul@a+1)^0,w,c
  9047  004BCC  0215               	mulwf	___flmul@b^0,c
  9048  004BCE  CFF3 F02C          	movff	prodl,___flmul@temp
  9049  004BD2  CFF4 F02D          	movff	prodh,___flmul@temp+1
  9050  004BD6  502C               	movf	___flmul@temp^0,w,c
  9051  004BD8  2623               	addwf	___flmul@grs^0,f,c
  9052  004BDA  502D               	movf	(___flmul@temp+1)^0,w,c
  9053  004BDC  2224               	addwfc	(___flmul@grs+1)^0,f,c
  9054  004BDE  0E00               	movlw	0
  9055  004BE0  2225               	addwfc	(___flmul@grs+2)^0,f,c
  9056  004BE2  0E00               	movlw	0
  9057  004BE4  2226               	addwfc	(___flmul@grs+3)^0,f,c
  9058  004BE6  C025  F026         	movff	___flmul@grs+2,___flmul@grs+3
  9059  004BEA  C024  F025         	movff	___flmul@grs+1,___flmul@grs+2
  9060  004BEE  C023  F024         	movff	___flmul@grs,___flmul@grs+1
  9061  004BF2  6A23               	clrf	___flmul@grs^0,c
  9062  004BF4  5019               	movf	___flmul@a^0,w,c
  9063  004BF6  0215               	mulwf	___flmul@b^0,c
  9064  004BF8  CFF3 F02C          	movff	prodl,___flmul@temp
  9065  004BFC  CFF4 F02D          	movff	prodh,___flmul@temp+1
  9066  004C00  502C               	movf	___flmul@temp^0,w,c
  9067  004C02  2623               	addwf	___flmul@grs^0,f,c
  9068  004C04  502D               	movf	(___flmul@temp+1)^0,w,c
  9069  004C06  2224               	addwfc	(___flmul@grs+1)^0,f,c
  9070  004C08  0E00               	movlw	0
  9071  004C0A  2225               	addwfc	(___flmul@grs+2)^0,f,c
  9072  004C0C  0E00               	movlw	0
  9073  004C0E  2226               	addwfc	(___flmul@grs+3)^0,f,c
  9074  004C10  501B               	movf	(___flmul@a+2)^0,w,c
  9075  004C12  0216               	mulwf	(___flmul@b+1)^0,c
  9076  004C14  CFF3 F02C          	movff	prodl,___flmul@temp
  9077  004C18  CFF4 F02D          	movff	prodh,___flmul@temp+1
  9078  004C1C  502C               	movf	___flmul@temp^0,w,c
  9079  004C1E  2628               	addwf	___flmul@prod^0,f,c
  9080  004C20  502D               	movf	(___flmul@temp+1)^0,w,c
  9081  004C22  2229               	addwfc	(___flmul@prod+1)^0,f,c
  9082  004C24  0E00               	movlw	0
  9083  004C26  222A               	addwfc	(___flmul@prod+2)^0,f,c
  9084  004C28  0E00               	movlw	0
  9085  004C2A  222B               	addwfc	(___flmul@prod+3)^0,f,c
  9086  004C2C  501A               	movf	(___flmul@a+1)^0,w,c
  9087  004C2E  0217               	mulwf	(___flmul@b+2)^0,c
  9088  004C30  CFF3 F02C          	movff	prodl,___flmul@temp
  9089  004C34  CFF4 F02D          	movff	prodh,___flmul@temp+1
  9090  004C38  502C               	movf	___flmul@temp^0,w,c
  9091  004C3A  2628               	addwf	___flmul@prod^0,f,c
  9092  004C3C  502D               	movf	(___flmul@temp+1)^0,w,c
  9093  004C3E  2229               	addwfc	(___flmul@prod+1)^0,f,c
  9094  004C40  0E00               	movlw	0
  9095  004C42  222A               	addwfc	(___flmul@prod+2)^0,f,c
  9096  004C44  0E00               	movlw	0
  9097  004C46  222B               	addwfc	(___flmul@prod+3)^0,f,c
  9098  004C48  501B               	movf	(___flmul@a+2)^0,w,c
  9099  004C4A  0217               	mulwf	(___flmul@b+2)^0,c
  9100  004C4C  CFF3 F02C          	movff	prodl,___flmul@temp
  9101  004C50  CFF4 F02D          	movff	prodh,___flmul@temp+1
  9102  004C54  502C               	movf	___flmul@temp^0,w,c
  9103  004C56  6E1D               	movwf	??___flmul^0,c
  9104  004C58  502D               	movf	(___flmul@temp+1)^0,w,c
  9105  004C5A  6E1E               	movwf	(??___flmul+1)^0,c
  9106  004C5C  6A1F               	clrf	(??___flmul+2)^0,c
  9107  004C5E  6A20               	clrf	(??___flmul+3)^0,c
  9108  004C60  C01F  F020         	movff	??___flmul+2,??___flmul+3
  9109  004C64  C01E  F01F         	movff	??___flmul+1,??___flmul+2
  9110  004C68  C01D  F01E         	movff	??___flmul,??___flmul+1
  9111  004C6C  6A1D               	clrf	??___flmul^0,c
  9112  004C6E  501D               	movf	??___flmul^0,w,c
  9113  004C70  2628               	addwf	___flmul@prod^0,f,c
  9114  004C72  501E               	movf	(??___flmul+1)^0,w,c
  9115  004C74  2229               	addwfc	(___flmul@prod+1)^0,f,c
  9116  004C76  501F               	movf	(??___flmul+2)^0,w,c
  9117  004C78  222A               	addwfc	(___flmul@prod+2)^0,f,c
  9118  004C7A  5020               	movf	(??___flmul+3)^0,w,c
  9119  004C7C  222B               	addwfc	(___flmul@prod+3)^0,f,c
  9120  004C7E  C023  F01D         	movff	___flmul@grs,??___flmul
  9121  004C82  C024  F01E         	movff	___flmul@grs+1,??___flmul+1
  9122  004C86  C025  F01F         	movff	___flmul@grs+2,??___flmul+2
  9123  004C8A  C026  F020         	movff	___flmul@grs+3,??___flmul+3
  9124  004C8E  0E19               	movlw	25
  9125  004C90  EF4F  F026         	goto	u4920
  9126  004C94                     u4925:
  9127  004C94  90D8               	bcf	status,0,c
  9128  004C96  3220               	rrcf	(??___flmul+3)^0,f,c
  9129  004C98  321F               	rrcf	(??___flmul+2)^0,f,c
  9130  004C9A  321E               	rrcf	(??___flmul+1)^0,f,c
  9131  004C9C  321D               	rrcf	??___flmul^0,f,c
  9132  004C9E                     u4920:
  9133  004C9E  2EE8               	decfsz	wreg,f,c
  9134  004CA0  EF4A  F026         	goto	u4925
  9135  004CA4  501D               	movf	??___flmul^0,w,c
  9136  004CA6  2628               	addwf	___flmul@prod^0,f,c
  9137  004CA8  501E               	movf	(??___flmul+1)^0,w,c
  9138  004CAA  2229               	addwfc	(___flmul@prod+1)^0,f,c
  9139  004CAC  501F               	movf	(??___flmul+2)^0,w,c
  9140  004CAE  222A               	addwfc	(___flmul@prod+2)^0,f,c
  9141  004CB0  5020               	movf	(??___flmul+3)^0,w,c
  9142  004CB2  222B               	addwfc	(___flmul@prod+3)^0,f,c
  9143  004CB4  C025  F026         	movff	___flmul@grs+2,___flmul@grs+3
  9144  004CB8  C024  F025         	movff	___flmul@grs+1,___flmul@grs+2
  9145  004CBC  C023  F024         	movff	___flmul@grs,___flmul@grs+1
  9146  004CC0  6A23               	clrf	___flmul@grs^0,c
  9147  004CC2  5022               	movf	___flmul@aexp^0,w,c
  9148  004CC4  C027  F01D         	movff	___flmul@bexp,??___flmul
  9149  004CC8  6A1E               	clrf	(??___flmul+1)^0,c
  9150  004CCA  261D               	addwf	??___flmul^0,f,c
  9151  004CCC  0E00               	movlw	0
  9152  004CCE  221E               	addwfc	(??___flmul+1)^0,f,c
  9153  004CD0  0E82               	movlw	130
  9154  004CD2  241D               	addwf	??___flmul^0,w,c
  9155  004CD4  6E2C               	movwf	___flmul@temp^0,c
  9156  004CD6  0EFF               	movlw	255
  9157  004CD8  201E               	addwfc	(??___flmul+1)^0,w,c
  9158  004CDA  6E2D               	movwf	(___flmul@temp+1)^0,c
  9159  004CDC  EF85  F026         	goto	l4266
  9160  004CE0                     l4260:
  9161  004CE0  90D8               	bcf	status,0,c
  9162  004CE2  3628               	rlcf	___flmul@prod^0,f,c
  9163  004CE4  3629               	rlcf	(___flmul@prod+1)^0,f,c
  9164  004CE6  362A               	rlcf	(___flmul@prod+2)^0,f,c
  9165  004CE8  362B               	rlcf	(___flmul@prod+3)^0,f,c
  9166  004CEA  AE26               	btfss	(___flmul@grs+3)^0,7,c
  9167  004CEC  EF7A  F026         	goto	u4931
  9168  004CF0  EF7C  F026         	goto	u4930
  9169  004CF4                     u4931:
  9170  004CF4  EF7D  F026         	goto	l919
  9171  004CF8                     u4930:
  9172  004CF8  8028               	bsf	___flmul@prod^0,0,c
  9173  004CFA                     l919:
  9174  004CFA  90D8               	bcf	status,0,c
  9175  004CFC  3623               	rlcf	___flmul@grs^0,f,c
  9176  004CFE  3624               	rlcf	(___flmul@grs+1)^0,f,c
  9177  004D00  3625               	rlcf	(___flmul@grs+2)^0,f,c
  9178  004D02  3626               	rlcf	(___flmul@grs+3)^0,f,c
  9179  004D04  062C               	decf	___flmul@temp^0,f,c
  9180  004D06  A0D8               	btfss	status,0,c
  9181  004D08  062D               	decf	(___flmul@temp+1)^0,f,c
  9182  004D0A                     l4266:
  9183  004D0A  AE2A               	btfss	(___flmul@prod+2)^0,7,c
  9184  004D0C  EF8A  F026         	goto	u4941
  9185  004D10  EF8C  F026         	goto	u4940
  9186  004D14                     u4941:
  9187  004D14  EF70  F026         	goto	l4260
  9188  004D18                     u4940:
  9189  004D18  0E00               	movlw	0
  9190  004D1A  6E22               	movwf	___flmul@aexp^0,c
  9191  004D1C  AE26               	btfss	(___flmul@grs+3)^0,7,c
  9192  004D1E  EF93  F026         	goto	u4951
  9193  004D22  EF95  F026         	goto	u4950
  9194  004D26                     u4951:
  9195  004D26  EFB9  F026         	goto	l921
  9196  004D2A                     u4950:
  9197  004D2A  0EFF               	movlw	255
  9198  004D2C  1423               	andwf	___flmul@grs^0,w,c
  9199  004D2E  6E1D               	movwf	??___flmul^0,c
  9200  004D30  0EFF               	movlw	255
  9201  004D32  1424               	andwf	(___flmul@grs+1)^0,w,c
  9202  004D34  6E1E               	movwf	(??___flmul+1)^0,c
  9203  004D36  0EFF               	movlw	255
  9204  004D38  1425               	andwf	(___flmul@grs+2)^0,w,c
  9205  004D3A  6E1F               	movwf	(??___flmul+2)^0,c
  9206  004D3C  0E7F               	movlw	127
  9207  004D3E  1426               	andwf	(___flmul@grs+3)^0,w,c
  9208  004D40  6E20               	movwf	(??___flmul+3)^0,c
  9209  004D42  501D               	movf	??___flmul^0,w,c
  9210  004D44  101E               	iorwf	(??___flmul+1)^0,w,c
  9211  004D46  101F               	iorwf	(??___flmul+2)^0,w,c
  9212  004D48  1020               	iorwf	(??___flmul+3)^0,w,c
  9213  004D4A  B4D8               	btfsc	status,2,c
  9214  004D4C  EFAA  F026         	goto	u4961
  9215  004D50  EFAC  F026         	goto	u4960
  9216  004D54                     u4961:
  9217  004D54  EFB0  F026         	goto	l922
  9218  004D58                     u4960:
  9219  004D58                     l4274:
  9220  004D58  0E01               	movlw	1
  9221  004D5A  6E22               	movwf	___flmul@aexp^0,c
  9222  004D5C  EFB9  F026         	goto	l921
  9223  004D60                     l922:
  9224  004D60  A028               	btfss	___flmul@prod^0,0,c
  9225  004D62  EFB5  F026         	goto	u4971
  9226  004D66  EFB7  F026         	goto	u4970
  9227  004D6A                     u4971:
  9228  004D6A  EFB9  F026         	goto	l921
  9229  004D6E                     u4970:
  9230  004D6E  EFAC  F026         	goto	l4274
  9231  004D72                     l921:
  9232  004D72  5022               	movf	___flmul@aexp^0,w,c
  9233  004D74  B4D8               	btfsc	status,2,c
  9234  004D76  EFBF  F026         	goto	u4981
  9235  004D7A  EFC1  F026         	goto	u4980
  9236  004D7E                     u4981:
  9237  004D7E  EFE5  F026         	goto	l4286
  9238  004D82                     u4980:
  9239  004D82  0E01               	movlw	1
  9240  004D84  2628               	addwf	___flmul@prod^0,f,c
  9241  004D86  0E00               	movlw	0
  9242  004D88  2229               	addwfc	(___flmul@prod+1)^0,f,c
  9243  004D8A  222A               	addwfc	(___flmul@prod+2)^0,f,c
  9244  004D8C  222B               	addwfc	(___flmul@prod+3)^0,f,c
  9245  004D8E  A02B               	btfss	(___flmul@prod+3)^0,0,c
  9246  004D90  EFCC  F026         	goto	u4991
  9247  004D94  EFCE  F026         	goto	u4990
  9248  004D98                     u4991:
  9249  004D98  EFE5  F026         	goto	l4286
  9250  004D9C                     u4990:
  9251  004D9C  C028  F01D         	movff	___flmul@prod,??___flmul
  9252  004DA0  C029  F01E         	movff	___flmul@prod+1,??___flmul+1
  9253  004DA4  C02A  F01F         	movff	___flmul@prod+2,??___flmul+2
  9254  004DA8  C02B  F020         	movff	___flmul@prod+3,??___flmul+3
  9255  004DAC  3420               	rlcf	(??___flmul+3)^0,w,c
  9256  004DAE  3220               	rrcf	(??___flmul+3)^0,f,c
  9257  004DB0  321F               	rrcf	(??___flmul+2)^0,f,c
  9258  004DB2  321E               	rrcf	(??___flmul+1)^0,f,c
  9259  004DB4  321D               	rrcf	??___flmul^0,f,c
  9260  004DB6  C01D  F028         	movff	??___flmul,___flmul@prod
  9261  004DBA  C01E  F029         	movff	??___flmul+1,___flmul@prod+1
  9262  004DBE  C01F  F02A         	movff	??___flmul+2,___flmul@prod+2
  9263  004DC2  C020  F02B         	movff	??___flmul+3,___flmul@prod+3
  9264  004DC6  4A2C               	infsnz	___flmul@temp^0,f,c
  9265  004DC8  2A2D               	incf	(___flmul@temp+1)^0,f,c
  9266  004DCA                     l4286:
  9267  004DCA  BE2D               	btfsc	(___flmul@temp+1)^0,7,c
  9268  004DCC  EFF0  F026         	goto	u5001
  9269  004DD0  502D               	movf	(___flmul@temp+1)^0,w,c
  9270  004DD2  E108               	bnz	u5000
  9271  004DD4  282C               	incf	___flmul@temp^0,w,c
  9272  004DD6  A0D8               	btfss	status,0,c
  9273  004DD8  EFF0  F026         	goto	u5001
  9274  004DDC  EFF2  F026         	goto	u5000
  9275  004DE0                     u5001:
  9276  004DE0  EFFC  F026         	goto	l4290
  9277  004DE4                     u5000:
  9278  004DE4  0E00               	movlw	0
  9279  004DE6  6E28               	movwf	___flmul@prod^0,c
  9280  004DE8  0E00               	movlw	0
  9281  004DEA  6E29               	movwf	(___flmul@prod+1)^0,c
  9282  004DEC  0E80               	movlw	128
  9283  004DEE  6E2A               	movwf	(___flmul@prod+2)^0,c
  9284  004DF0  0E7F               	movlw	127
  9285  004DF2  6E2B               	movwf	(___flmul@prod+3)^0,c
  9286  004DF4  EF2A  F027         	goto	l4302
  9287  004DF8                     l4290:
  9288  004DF8  BE2D               	btfsc	(___flmul@temp+1)^0,7,c
  9289  004DFA  EF09  F027         	goto	u5010
  9290  004DFE  502D               	movf	(___flmul@temp+1)^0,w,c
  9291  004E00  E106               	bnz	u5011
  9292  004E02  042C               	decf	___flmul@temp^0,w,c
  9293  004E04  B0D8               	btfsc	status,0,c
  9294  004E06  EF07  F027         	goto	u5011
  9295  004E0A  EF09  F027         	goto	u5010
  9296  004E0E                     u5011:
  9297  004E0E  EF15  F027         	goto	l929
  9298  004E12                     u5010:
  9299  004E12  0E00               	movlw	0
  9300  004E14  6E28               	movwf	___flmul@prod^0,c
  9301  004E16  0E00               	movlw	0
  9302  004E18  6E29               	movwf	(___flmul@prod+1)^0,c
  9303  004E1A  0E00               	movlw	0
  9304  004E1C  6E2A               	movwf	(___flmul@prod+2)^0,c
  9305  004E1E  0E00               	movlw	0
  9306  004E20  6E2B               	movwf	(___flmul@prod+3)^0,c
  9307  004E22  0E00               	movlw	0
  9308  004E24  6E21               	movwf	___flmul@sign^0,c
  9309  004E26  EF2A  F027         	goto	l4302
  9310  004E2A                     l929:
  9311  004E2A  C02C  F027         	movff	___flmul@temp,___flmul@bexp
  9312  004E2E  0EFF               	movlw	255
  9313  004E30  1628               	andwf	___flmul@prod^0,f,c
  9314  004E32  0EFF               	movlw	255
  9315  004E34  1629               	andwf	(___flmul@prod+1)^0,f,c
  9316  004E36  0E7F               	movlw	127
  9317  004E38  162A               	andwf	(___flmul@prod+2)^0,f,c
  9318  004E3A  0E00               	movlw	0
  9319  004E3C  162B               	andwf	(___flmul@prod+3)^0,f,c
  9320  004E3E  A027               	btfss	___flmul@bexp^0,0,c
  9321  004E40  EF24  F027         	goto	u5021
  9322  004E44  EF26  F027         	goto	u5020
  9323  004E48                     u5021:
  9324  004E48  EF27  F027         	goto	l4300
  9325  004E4C                     u5020:
  9326  004E4C  8E2A               	bsf	(___flmul@prod+2)^0,7,c
  9327  004E4E                     l4300:
  9328  004E4E  90D8               	bcf	status,0,c
  9329  004E50  3027               	rrcf	___flmul@bexp^0,w,c
  9330  004E52  6E2B               	movwf	(___flmul@prod+3)^0,c
  9331  004E54                     l4302:
  9332  004E54  5021               	movf	___flmul@sign^0,w,c
  9333  004E56  122B               	iorwf	(___flmul@prod+3)^0,f,c
  9334  004E58  C028  F015         	movff	___flmul@prod,?___flmul
  9335  004E5C  C029  F016         	movff	___flmul@prod+1,?___flmul+1
  9336  004E60  C02A  F017         	movff	___flmul@prod+2,?___flmul+2
  9337  004E64  C02B  F018         	movff	___flmul@prod+3,?___flmul+3
  9338  004E68                     l916:
  9339  004E68  0012               	return		;funcret
  9340  004E6A                     __end_of___flmul:
  9341                           	opt callstack 0
  9342                           
  9343 ;; *************** function _fabsf *****************
  9344 ;; Defined at:
  9345 ;;		line 4 in file "/opt/microchip/xc8/v2.10/pic/sources/c99/common/fabsf.c"
  9346 ;; Parameters:    Size  Location     Type
  9347 ;;  x               4   20[COMRAM] float 
  9348 ;; Auto vars:     Size  Location     Type
  9349 ;;  u               4   24[COMRAM] struct .
  9350 ;; Return value:  Size  Location     Type
  9351 ;;                  4   20[COMRAM] float 
  9352 ;; Registers used:
  9353 ;;		status,2, status,0
  9354 ;; Tracked objects:
  9355 ;;		On entry : 0/0
  9356 ;;		On exit  : 0/0
  9357 ;;		Unchanged: 0/0
  9358 ;; Data sizes:     COMRAM   BANK0   BANK1   BANK2   BANK3   BANK4   BANK5   BANK6   BANK7   BANK8   BANK9  BANK10  BANK1
      +1  BANK12  BANK13  BANK14  BANK15
  9359 ;;      Params:         4       0       0       0       0       0       0       0       0       0       0       0       
      +0       0       0       0       0
  9360 ;;      Locals:         4       0       0       0       0       0       0       0       0       0       0       0       
      +0       0       0       0       0
  9361 ;;      Temps:          0       0       0       0       0       0       0       0       0       0       0       0       
      +0       0       0       0       0
  9362 ;;      Totals:         8       0       0       0       0       0       0       0       0       0       0       0       
      +0       0       0       0       0
  9363 ;;Total ram usage:        8 bytes
  9364 ;; Hardware stack levels used:    1
  9365 ;; Hardware stack levels required when called:    4
  9366 ;; This function calls:
  9367 ;;		Nothing
  9368 ;; This function is called by:
  9369 ;;		_powf
  9370 ;; This function uses a non-reentrant model
  9371 ;;
  9372                           
  9373                           	psect	text25
  9374  00636A                     __ptext25:
  9375                           	opt callstack 0
  9376  00636A                     _fabsf:
  9377                           	opt callstack 23
  9378  00636A  C038  F019         	movff	fabsf@F463,fabsf@u
  9379  00636E  C039  F01A         	movff	fabsf@F463+1,fabsf@u+1
  9380  006372  C03A  F01B         	movff	fabsf@F463+2,fabsf@u+2
  9381  006376  C03B  F01C         	movff	fabsf@F463+3,fabsf@u+3
  9382  00637A  C015  F019         	movff	fabsf@x,fabsf@u
  9383  00637E  C016  F01A         	movff	fabsf@x+1,fabsf@u+1
  9384  006382  C017  F01B         	movff	fabsf@x+2,fabsf@u+2
  9385  006386  C018  F01C         	movff	fabsf@x+3,fabsf@u+3
  9386  00638A  9E1C               	bcf	(fabsf@u+3)^0,7,c
  9387  00638C  C019  F015         	movff	fabsf@u,?_fabsf
  9388  006390  C01A  F016         	movff	fabsf@u+1,?_fabsf+1
  9389  006394  C01B  F017         	movff	fabsf@u+2,?_fabsf+2
  9390  006398  C01C  F018         	movff	fabsf@u+3,?_fabsf+3
  9391  00639C  0012               	return		;funcret
  9392  00639E                     __end_of_fabsf:
  9393                           	opt callstack 0
  9394                           
  9395 ;; *************** function ___xxtofl *****************
  9396 ;; Defined at:
  9397 ;;		line 10 in file "/opt/microchip/xc8/v2.10/pic/sources/c99/common/xxtofl.c"
  9398 ;; Parameters:    Size  Location     Type
  9399 ;;  sign            1    wreg     unsigned char 
  9400 ;;  val             4   45[COMRAM] long 
  9401 ;; Auto vars:     Size  Location     Type
  9402 ;;  sign            1    0[BANK0 ] unsigned char 
  9403 ;;  arg             4    2[BANK0 ] unsigned long 
  9404 ;;  exp             1    1[BANK0 ] unsigned char 
  9405 ;; Return value:  Size  Location     Type
  9406 ;;                  4   45[COMRAM] unsigned char 
  9407 ;; Registers used:
  9408 ;;		wreg, status,2, status,0
  9409 ;; Tracked objects:
  9410 ;;		On entry : 0/0
  9411 ;;		On exit  : 0/0
  9412 ;;		Unchanged: 0/0
  9413 ;; Data sizes:     COMRAM   BANK0   BANK1   BANK2   BANK3   BANK4   BANK5   BANK6   BANK7   BANK8   BANK9  BANK10  BANK1
      +1  BANK12  BANK13  BANK14  BANK15
  9414 ;;      Params:         4       0       0       0       0       0       0       0       0       0       0       0       
      +0       0       0       0       0
  9415 ;;      Locals:         0       6       0       0       0       0       0       0       0       0       0       0       
      +0       0       0       0       0
  9416 ;;      Temps:          4       0       0       0       0       0       0       0       0       0       0       0       
      +0       0       0       0       0
  9417 ;;      Totals:         8       6       0       0       0       0       0       0       0       0       0       0       
      +0       0       0       0       0
  9418 ;;Total ram usage:       14 bytes
  9419 ;; Hardware stack levels used:    1
  9420 ;; Hardware stack levels required when called:    4
  9421 ;; This function calls:
  9422 ;;		Nothing
  9423 ;; This function is called by:
  9424 ;;		_calculate_init_tmr0
  9425 ;;		_calculate_init_tmr1
  9426 ;;		_powf
  9427 ;; This function uses a non-reentrant model
  9428 ;;
  9429                           
  9430                           	psect	text26
  9431  00573C                     __ptext26:
  9432                           	opt callstack 0
  9433  00573C                     ___xxtofl:
  9434                           	opt callstack 23
  9435                           
  9436                           ;incstack = 0
  9437                           ;___xxtofl@sign stored from wreg
  9438  00573C  0100               	movlb	0	; () banked
  9439  00573E  6F60               	movwf	___xxtofl@sign& (0+255),b
  9440  005740  0100               	movlb	0	; () banked
  9441  005742  5160               	movf	___xxtofl@sign& (0+255),w,b
  9442  005744  B4D8               	btfsc	status,2,c
  9443  005746  EFA7  F02B         	goto	u5321
  9444  00574A  EFA9  F02B         	goto	u5320
  9445  00574E                     u5321:
  9446  00574E  EFCB  F02B         	goto	l953
  9447  005752                     u5320:
  9448  005752                     
  9449                           ; BSR set to: 0
  9450  005752  BE31               	btfsc	(___xxtofl@val+3)^0,7,c
  9451  005754  EFB0  F02B         	goto	u5330
  9452  005758  EFAE  F02B         	goto	u5331
  9453  00575C                     u5331:
  9454  00575C  EFCB  F02B         	goto	l953
  9455  005760                     u5330:
  9456  005760                     
  9457                           ; BSR set to: 0
  9458  005760  C02E  F032         	movff	___xxtofl@val,??___xxtofl
  9459  005764  C02F  F033         	movff	___xxtofl@val+1,??___xxtofl+1
  9460  005768  C030  F034         	movff	___xxtofl@val+2,??___xxtofl+2
  9461  00576C  C031  F035         	movff	___xxtofl@val+3,??___xxtofl+3
  9462  005770  1E32               	comf	??___xxtofl^0,f,c
  9463  005772  1E33               	comf	(??___xxtofl+1)^0,f,c
  9464  005774  1E34               	comf	(??___xxtofl+2)^0,f,c
  9465  005776  1E35               	comf	(??___xxtofl+3)^0,f,c
  9466  005778  2A32               	incf	??___xxtofl^0,f,c
  9467  00577A  0E00               	movlw	0
  9468  00577C  2233               	addwfc	(??___xxtofl+1)^0,f,c
  9469  00577E  2234               	addwfc	(??___xxtofl+2)^0,f,c
  9470  005780  2235               	addwfc	(??___xxtofl+3)^0,f,c
  9471  005782  C032  F062         	movff	??___xxtofl,___xxtofl@arg
  9472  005786  C033  F063         	movff	??___xxtofl+1,___xxtofl@arg+1
  9473  00578A  C034  F064         	movff	??___xxtofl+2,___xxtofl@arg+2
  9474  00578E  C035  F065         	movff	??___xxtofl+3,___xxtofl@arg+3
  9475  005792  EFD3  F02B         	goto	l4500
  9476  005796                     l953:
  9477                           
  9478                           ; BSR set to: 0
  9479  005796  C02E  F062         	movff	___xxtofl@val,___xxtofl@arg
  9480  00579A  C02F  F063         	movff	___xxtofl@val+1,___xxtofl@arg+1
  9481  00579E  C030  F064         	movff	___xxtofl@val+2,___xxtofl@arg+2
  9482  0057A2  C031  F065         	movff	___xxtofl@val+3,___xxtofl@arg+3
  9483  0057A6                     l4500:
  9484                           
  9485                           ; BSR set to: 0
  9486  0057A6  502E               	movf	___xxtofl@val^0,w,c
  9487  0057A8  102F               	iorwf	(___xxtofl@val+1)^0,w,c
  9488  0057AA  1030               	iorwf	(___xxtofl@val+2)^0,w,c
  9489  0057AC  1031               	iorwf	(___xxtofl@val+3)^0,w,c
  9490  0057AE  A4D8               	btfss	status,2,c
  9491  0057B0  EFDC  F02B         	goto	u5341
  9492  0057B4  EFDE  F02B         	goto	u5340
  9493  0057B8                     u5341:
  9494  0057B8  EFE8  F02B         	goto	l4506
  9495  0057BC                     u5340:
  9496  0057BC                     
  9497                           ; BSR set to: 0
  9498  0057BC  0E00               	movlw	0
  9499  0057BE  6E2E               	movwf	?___xxtofl^0,c
  9500  0057C0  0E00               	movlw	0
  9501  0057C2  6E2F               	movwf	(?___xxtofl+1)^0,c
  9502  0057C4  0E00               	movlw	0
  9503  0057C6  6E30               	movwf	(?___xxtofl+2)^0,c
  9504  0057C8  0E00               	movlw	0
  9505  0057CA  6E31               	movwf	(?___xxtofl+3)^0,c
  9506  0057CC  EF79  F02C         	goto	l956
  9507  0057D0                     l4506:
  9508                           
  9509                           ; BSR set to: 0
  9510  0057D0  0E96               	movlw	150
  9511  0057D2  6F61               	movwf	___xxtofl@exp& (0+255),b
  9512  0057D4  EFF2  F02B         	goto	l4510
  9513  0057D8                     l4508:
  9514                           
  9515                           ; BSR set to: 0
  9516  0057D8  2B61               	incf	___xxtofl@exp& (0+255),f,b
  9517  0057DA  90D8               	bcf	status,0,c
  9518  0057DC  3365               	rrcf	(___xxtofl@arg+3)& (0+255),f,b
  9519  0057DE  3364               	rrcf	(___xxtofl@arg+2)& (0+255),f,b
  9520  0057E0  3363               	rrcf	(___xxtofl@arg+1)& (0+255),f,b
  9521  0057E2  3362               	rrcf	___xxtofl@arg& (0+255),f,b
  9522  0057E4                     l4510:
  9523                           
  9524                           ; BSR set to: 0
  9525  0057E4  0E00               	movlw	0
  9526  0057E6  1562               	andwf	___xxtofl@arg& (0+255),w,b
  9527  0057E8  6E32               	movwf	??___xxtofl^0,c
  9528  0057EA  0E00               	movlw	0
  9529  0057EC  1563               	andwf	(___xxtofl@arg+1)& (0+255),w,b
  9530  0057EE  6E33               	movwf	(??___xxtofl+1)^0,c
  9531  0057F0  0E00               	movlw	0
  9532  0057F2  1564               	andwf	(___xxtofl@arg+2)& (0+255),w,b
  9533  0057F4  6E34               	movwf	(??___xxtofl+2)^0,c
  9534  0057F6  0EFE               	movlw	254
  9535  0057F8  1565               	andwf	(___xxtofl@arg+3)& (0+255),w,b
  9536  0057FA  6E35               	movwf	(??___xxtofl+3)^0,c
  9537  0057FC  5032               	movf	??___xxtofl^0,w,c
  9538  0057FE  1033               	iorwf	(??___xxtofl+1)^0,w,c
  9539  005800  1034               	iorwf	(??___xxtofl+2)^0,w,c
  9540  005802  1035               	iorwf	(??___xxtofl+3)^0,w,c
  9541  005804  A4D8               	btfss	status,2,c
  9542  005806  EF07  F02C         	goto	u5351
  9543  00580A  EF09  F02C         	goto	u5350
  9544  00580E                     u5351:
  9545  00580E  EFEC  F02B         	goto	l4508
  9546  005812                     u5350:
  9547  005812  EF17  F02C         	goto	l960
  9548  005816                     l4512:
  9549                           
  9550                           ; BSR set to: 0
  9551  005816  2B61               	incf	___xxtofl@exp& (0+255),f,b
  9552  005818                     
  9553                           ; BSR set to: 0
  9554  005818  0E01               	movlw	1
  9555  00581A  2762               	addwf	___xxtofl@arg& (0+255),f,b
  9556  00581C  0E00               	movlw	0
  9557  00581E  2363               	addwfc	(___xxtofl@arg+1)& (0+255),f,b
  9558  005820  2364               	addwfc	(___xxtofl@arg+2)& (0+255),f,b
  9559  005822  2365               	addwfc	(___xxtofl@arg+3)& (0+255),f,b
  9560  005824                     
  9561                           ; BSR set to: 0
  9562  005824  90D8               	bcf	status,0,c
  9563  005826  3365               	rrcf	(___xxtofl@arg+3)& (0+255),f,b
  9564  005828  3364               	rrcf	(___xxtofl@arg+2)& (0+255),f,b
  9565  00582A  3363               	rrcf	(___xxtofl@arg+1)& (0+255),f,b
  9566  00582C  3362               	rrcf	___xxtofl@arg& (0+255),f,b
  9567  00582E                     l960:
  9568                           
  9569                           ; BSR set to: 0
  9570  00582E  0E00               	movlw	0
  9571  005830  1562               	andwf	___xxtofl@arg& (0+255),w,b
  9572  005832  6E32               	movwf	??___xxtofl^0,c
  9573  005834  0E00               	movlw	0
  9574  005836  1563               	andwf	(___xxtofl@arg+1)& (0+255),w,b
  9575  005838  6E33               	movwf	(??___xxtofl+1)^0,c
  9576  00583A  0E00               	movlw	0
  9577  00583C  1564               	andwf	(___xxtofl@arg+2)& (0+255),w,b
  9578  00583E  6E34               	movwf	(??___xxtofl+2)^0,c
  9579  005840  0EFF               	movlw	255
  9580  005842  1565               	andwf	(___xxtofl@arg+3)& (0+255),w,b
  9581  005844  6E35               	movwf	(??___xxtofl+3)^0,c
  9582  005846  5032               	movf	??___xxtofl^0,w,c
  9583  005848  1033               	iorwf	(??___xxtofl+1)^0,w,c
  9584  00584A  1034               	iorwf	(??___xxtofl+2)^0,w,c
  9585  00584C  1035               	iorwf	(??___xxtofl+3)^0,w,c
  9586  00584E  A4D8               	btfss	status,2,c
  9587  005850  EF2C  F02C         	goto	u5361
  9588  005854  EF2E  F02C         	goto	u5360
  9589  005858                     u5361:
  9590  005858  EF0B  F02C         	goto	l4512
  9591  00585C                     u5360:
  9592  00585C  EF36  F02C         	goto	l4520
  9593  005860                     l4518:
  9594                           
  9595                           ; BSR set to: 0
  9596  005860  0761               	decf	___xxtofl@exp& (0+255),f,b
  9597  005862  90D8               	bcf	status,0,c
  9598  005864  3762               	rlcf	___xxtofl@arg& (0+255),f,b
  9599  005866  3763               	rlcf	(___xxtofl@arg+1)& (0+255),f,b
  9600  005868  3764               	rlcf	(___xxtofl@arg+2)& (0+255),f,b
  9601  00586A  3765               	rlcf	(___xxtofl@arg+3)& (0+255),f,b
  9602  00586C                     l4520:
  9603                           
  9604                           ; BSR set to: 0
  9605  00586C  BF64               	btfsc	(___xxtofl@arg+2)& (0+255),7,b
  9606  00586E  EF3B  F02C         	goto	u5371
  9607  005872  EF3D  F02C         	goto	u5370
  9608  005876                     u5371:
  9609  005876  EF45  F02C         	goto	l967
  9610  00587A                     u5370:
  9611  00587A                     
  9612                           ; BSR set to: 0
  9613  00587A  0E02               	movlw	2
  9614  00587C  6161               	cpfslt	___xxtofl@exp& (0+255),b
  9615  00587E  EF43  F02C         	goto	u5381
  9616  005882  EF45  F02C         	goto	u5380
  9617  005886                     u5381:
  9618  005886  EF30  F02C         	goto	l4518
  9619  00588A                     u5380:
  9620  00588A                     l967:
  9621                           
  9622                           ; BSR set to: 0
  9623  00588A  B161               	btfsc	___xxtofl@exp& (0+255),0,b
  9624  00588C  EF4A  F02C         	goto	u5391
  9625  005890  EF4C  F02C         	goto	u5390
  9626  005894                     u5391:
  9627  005894  EF4D  F02C         	goto	l4526
  9628  005898                     u5390:
  9629  005898                     
  9630                           ; BSR set to: 0
  9631  005898  9F64               	bcf	(___xxtofl@arg+2)& (0+255),7,b
  9632  00589A                     l4526:
  9633                           
  9634                           ; BSR set to: 0
  9635  00589A  90D8               	bcf	status,0,c
  9636  00589C  3361               	rrcf	___xxtofl@exp& (0+255),f,b
  9637  00589E                     
  9638                           ; BSR set to: 0
  9639  00589E  C061  F032         	movff	___xxtofl@exp,??___xxtofl
  9640  0058A2  6A33               	clrf	(??___xxtofl+1)^0,c
  9641  0058A4  6A34               	clrf	(??___xxtofl+2)^0,c
  9642  0058A6  6A35               	clrf	(??___xxtofl+3)^0,c
  9643  0058A8  C032  F035         	movff	??___xxtofl,??___xxtofl+3
  9644  0058AC  6A34               	clrf	(??___xxtofl+2)^0,c
  9645  0058AE  6A33               	clrf	(??___xxtofl+1)^0,c
  9646  0058B0  6A32               	clrf	??___xxtofl^0,c
  9647  0058B2  5032               	movf	??___xxtofl^0,w,c
  9648  0058B4  1362               	iorwf	___xxtofl@arg& (0+255),f,b
  9649  0058B6  5033               	movf	(??___xxtofl+1)^0,w,c
  9650  0058B8  1363               	iorwf	(___xxtofl@arg+1)& (0+255),f,b
  9651  0058BA  5034               	movf	(??___xxtofl+2)^0,w,c
  9652  0058BC  1364               	iorwf	(___xxtofl@arg+2)& (0+255),f,b
  9653  0058BE  5035               	movf	(??___xxtofl+3)^0,w,c
  9654  0058C0  1365               	iorwf	(___xxtofl@arg+3)& (0+255),f,b
  9655  0058C2                     
  9656                           ; BSR set to: 0
  9657  0058C2  5160               	movf	___xxtofl@sign& (0+255),w,b
  9658  0058C4  B4D8               	btfsc	status,2,c
  9659  0058C6  EF67  F02C         	goto	u5401
  9660  0058CA  EF69  F02C         	goto	u5400
  9661  0058CE                     u5401:
  9662  0058CE  EF71  F02C         	goto	l4536
  9663  0058D2                     u5400:
  9664  0058D2                     
  9665                           ; BSR set to: 0
  9666  0058D2  BE31               	btfsc	(___xxtofl@val+3)^0,7,c
  9667  0058D4  EF70  F02C         	goto	u5410
  9668  0058D8  EF6E  F02C         	goto	u5411
  9669  0058DC                     u5411:
  9670  0058DC  EF71  F02C         	goto	l4536
  9671  0058E0                     u5410:
  9672  0058E0                     
  9673                           ; BSR set to: 0
  9674  0058E0  8F65               	bsf	(___xxtofl@arg+3)& (0+255),7,b
  9675  0058E2                     l4536:
  9676                           
  9677                           ; BSR set to: 0
  9678  0058E2  C062  F02E         	movff	___xxtofl@arg,?___xxtofl
  9679  0058E6  C063  F02F         	movff	___xxtofl@arg+1,?___xxtofl+1
  9680  0058EA  C064  F030         	movff	___xxtofl@arg+2,?___xxtofl+2
  9681  0058EE  C065  F031         	movff	___xxtofl@arg+3,?___xxtofl+3
  9682  0058F2                     l956:
  9683                           
  9684                           ; BSR set to: 0
  9685  0058F2  0012               	return		;funcret
  9686  0058F4                     __end_of___xxtofl:
  9687                           	opt callstack 0
  9688                           
  9689 ;; *************** function ___flsub *****************
  9690 ;; Defined at:
  9691 ;;		line 245 in file "/opt/microchip/xc8/v2.10/pic/sources/c99/common/sprcadd.c"
  9692 ;; Parameters:    Size  Location     Type
  9693 ;;  b               4   22[BANK0 ] unsigned char 
  9694 ;;  a               4   26[BANK0 ] unsigned char 
  9695 ;; Auto vars:     Size  Location     Type
  9696 ;;		None
  9697 ;; Return value:  Size  Location     Type
  9698 ;;                  4   22[BANK0 ] unsigned char 
  9699 ;; Registers used:
  9700 ;;		wreg, status,2, status,0, cstack
  9701 ;; Tracked objects:
  9702 ;;		On entry : 0/0
  9703 ;;		On exit  : 0/0
  9704 ;;		Unchanged: 0/0
  9705 ;; Data sizes:     COMRAM   BANK0   BANK1   BANK2   BANK3   BANK4   BANK5   BANK6   BANK7   BANK8   BANK9  BANK10  BANK1
      +1  BANK12  BANK13  BANK14  BANK15
  9706 ;;      Params:         0       8       0       0       0       0       0       0       0       0       0       0       
      +0       0       0       0       0
  9707 ;;      Locals:         0       0       0       0       0       0       0       0       0       0       0       0       
      +0       0       0       0       0
  9708 ;;      Temps:          0       0       0       0       0       0       0       0       0       0       0       0       
      +0       0       0       0       0
  9709 ;;      Totals:         0       8       0       0       0       0       0       0       0       0       0       0       
      +0       0       0       0       0
  9710 ;;Total ram usage:        8 bytes
  9711 ;; Hardware stack levels used:    1
  9712 ;; Hardware stack levels required when called:    5
  9713 ;; This function calls:
  9714 ;;		___fladd
  9715 ;; This function is called by:
  9716 ;;		_calculate_init_tmr0
  9717 ;;		_calculate_init_tmr1
  9718 ;;		_powf
  9719 ;; This function uses a non-reentrant model
  9720 ;;
  9721                           
  9722                           	psect	text27
  9723  00627E                     __ptext27:
  9724                           	opt callstack 0
  9725  00627E                     ___flsub:
  9726                           	opt callstack 22
  9727  00627E  0E00               	movlw	0
  9728  006280  0100               	movlb	0	; () banked
  9729  006282  1B7A               	xorwf	___flsub@a& (0+255),f,b
  9730  006284  0E00               	movlw	0
  9731  006286  1B7B               	xorwf	(___flsub@a+1)& (0+255),f,b
  9732  006288  0E00               	movlw	0
  9733  00628A  1B7C               	xorwf	(___flsub@a+2)& (0+255),f,b
  9734  00628C  0E80               	movlw	128
  9735  00628E  1B7D               	xorwf	(___flsub@a+3)& (0+255),f,b
  9736  006290                     
  9737                           ; BSR set to: 0
  9738  006290  C076  F066         	movff	___flsub@b,___fladd@b
  9739  006294  C077  F067         	movff	___flsub@b+1,___fladd@b+1
  9740  006298  C078  F068         	movff	___flsub@b+2,___fladd@b+2
  9741  00629C  C079  F069         	movff	___flsub@b+3,___fladd@b+3
  9742  0062A0  C07A  F06A         	movff	___flsub@a,___fladd@a
  9743  0062A4  C07B  F06B         	movff	___flsub@a+1,___fladd@a+1
  9744  0062A8  C07C  F06C         	movff	___flsub@a+2,___fladd@a+2
  9745  0062AC  C07D  F06D         	movff	___flsub@a+3,___fladd@a+3
  9746  0062B0  EC61  F020         	call	___fladd	;wreg free
  9747  0062B4  C066  F076         	movff	?___fladd,?___flsub
  9748  0062B8  C067  F077         	movff	?___fladd+1,?___flsub+1
  9749  0062BC  C068  F078         	movff	?___fladd+2,?___flsub+2
  9750  0062C0  C069  F079         	movff	?___fladd+3,?___flsub+3
  9751  0062C4  0012               	return		;funcret
  9752  0062C6                     __end_of___flsub:
  9753                           	opt callstack 0
  9754                           
  9755 ;; *************** function ___fladd *****************
  9756 ;; Defined at:
  9757 ;;		line 10 in file "/opt/microchip/xc8/v2.10/pic/sources/c99/common/sprcadd.c"
  9758 ;; Parameters:    Size  Location     Type
  9759 ;;  b               4    6[BANK0 ] unsigned char 
  9760 ;;  a               4   10[BANK0 ] unsigned char 
  9761 ;; Auto vars:     Size  Location     Type
  9762 ;;  grs             1   21[BANK0 ] unsigned char 
  9763 ;;  bexp            1   20[BANK0 ] unsigned char 
  9764 ;;  aexp            1   19[BANK0 ] unsigned char 
  9765 ;;  signs           1   18[BANK0 ] unsigned char 
  9766 ;; Return value:  Size  Location     Type
  9767 ;;                  4    6[BANK0 ] unsigned char 
  9768 ;; Registers used:
  9769 ;;		wreg, status,2, status,0
  9770 ;; Tracked objects:
  9771 ;;		On entry : 0/0
  9772 ;;		On exit  : 0/0
  9773 ;;		Unchanged: 0/0
  9774 ;; Data sizes:     COMRAM   BANK0   BANK1   BANK2   BANK3   BANK4   BANK5   BANK6   BANK7   BANK8   BANK9  BANK10  BANK1
      +1  BANK12  BANK13  BANK14  BANK15
  9775 ;;      Params:         0       8       0       0       0       0       0       0       0       0       0       0       
      +0       0       0       0       0
  9776 ;;      Locals:         0       4       0       0       0       0       0       0       0       0       0       0       
      +0       0       0       0       0
  9777 ;;      Temps:          0       4       0       0       0       0       0       0       0       0       0       0       
      +0       0       0       0       0
  9778 ;;      Totals:         0      16       0       0       0       0       0       0       0       0       0       0       
      +0       0       0       0       0
  9779 ;;Total ram usage:       16 bytes
  9780 ;; Hardware stack levels used:    1
  9781 ;; Hardware stack levels required when called:    4
  9782 ;; This function calls:
  9783 ;;		Nothing
  9784 ;; This function is called by:
  9785 ;;		_calculate_init_tmr0
  9786 ;;		___flsub
  9787 ;;		_powf
  9788 ;;		_sqrtf
  9789 ;; This function uses a non-reentrant model
  9790 ;;
  9791                           
  9792                           	psect	text28
  9793  0040C2                     __ptext28:
  9794                           	opt callstack 0
  9795  0040C2                     ___fladd:
  9796                           	opt callstack 22
  9797  0040C2  0100               	movlb	0	; () banked
  9798  0040C4  5169               	movf	(___fladd@b+3)& (0+255),w,b
  9799  0040C6  0B80               	andlw	128
  9800  0040C8  6F72               	movwf	___fladd@signs& (0+255),b
  9801  0040CA  5169               	movf	(___fladd@b+3)& (0+255),w,b
  9802  0040CC  2569               	addwf	(___fladd@b+3)& (0+255),w,b
  9803  0040CE  6F74               	movwf	___fladd@bexp& (0+255),b
  9804  0040D0                     
  9805                           ; BSR set to: 0
  9806  0040D0  AF68               	btfss	(___fladd@b+2)& (0+255),7,b
  9807  0040D2  EF6D  F020         	goto	u4451
  9808  0040D6  EF6F  F020         	goto	u4450
  9809  0040DA                     u4451:
  9810  0040DA  EF70  F020         	goto	l3982
  9811  0040DE                     u4450:
  9812  0040DE                     
  9813                           ; BSR set to: 0
  9814  0040DE  8174               	bsf	___fladd@bexp& (0+255),0,b
  9815  0040E0                     l3982:
  9816                           
  9817                           ; BSR set to: 0
  9818  0040E0  5174               	movf	___fladd@bexp& (0+255),w,b
  9819  0040E2  B4D8               	btfsc	status,2,c
  9820  0040E4  EF76  F020         	goto	u4461
  9821  0040E8  EF78  F020         	goto	u4460
  9822  0040EC                     u4461:
  9823  0040EC  EF8D  F020         	goto	l3992
  9824  0040F0                     u4460:
  9825  0040F0                     
  9826                           ; BSR set to: 0
  9827  0040F0  2974               	incf	___fladd@bexp& (0+255),w,b
  9828  0040F2  A4D8               	btfss	status,2,c
  9829  0040F4  EF7E  F020         	goto	u4471
  9830  0040F8  EF80  F020         	goto	u4470
  9831  0040FC                     u4471:
  9832  0040FC  EF88  F020         	goto	l3988
  9833  004100                     u4470:
  9834  004100                     
  9835                           ; BSR set to: 0
  9836  004100  0E00               	movlw	0
  9837  004102  6F66               	movwf	___fladd@b& (0+255),b
  9838  004104  0E00               	movlw	0
  9839  004106  6F67               	movwf	(___fladd@b+1)& (0+255),b
  9840  004108  0E00               	movlw	0
  9841  00410A  6F68               	movwf	(___fladd@b+2)& (0+255),b
  9842  00410C  0E00               	movlw	0
  9843  00410E  6F69               	movwf	(___fladd@b+3)& (0+255),b
  9844  004110                     l3988:
  9845                           
  9846                           ; BSR set to: 0
  9847  004110  8F68               	bsf	(___fladd@b+2)& (0+255),7,b
  9848  004112                     
  9849                           ; BSR set to: 0
  9850  004112  0E00               	movlw	0
  9851  004114  6F69               	movwf	(___fladd@b+3)& (0+255),b
  9852  004116  EF95  F020         	goto	l3994
  9853  00411A                     l3992:
  9854                           
  9855                           ; BSR set to: 0
  9856  00411A  0E00               	movlw	0
  9857  00411C  6F66               	movwf	___fladd@b& (0+255),b
  9858  00411E  0E00               	movlw	0
  9859  004120  6F67               	movwf	(___fladd@b+1)& (0+255),b
  9860  004122  0E00               	movlw	0
  9861  004124  6F68               	movwf	(___fladd@b+2)& (0+255),b
  9862  004126  0E00               	movlw	0
  9863  004128  6F69               	movwf	(___fladd@b+3)& (0+255),b
  9864  00412A                     l3994:
  9865                           
  9866                           ; BSR set to: 0
  9867  00412A  516D               	movf	(___fladd@a+3)& (0+255),w,b
  9868  00412C  0B80               	andlw	128
  9869  00412E  6F73               	movwf	___fladd@aexp& (0+255),b
  9870  004130                     
  9871                           ; BSR set to: 0
  9872  004130  5172               	movf	___fladd@signs& (0+255),w,b
  9873  004132  1973               	xorwf	___fladd@aexp& (0+255),w,b
  9874  004134  B4D8               	btfsc	status,2,c
  9875  004136  EF9F  F020         	goto	u4481
  9876  00413A  EFA1  F020         	goto	u4480
  9877  00413E                     u4481:
  9878  00413E  EFA2  F020         	goto	l4000
  9879  004142                     u4480:
  9880  004142                     
  9881                           ; BSR set to: 0
  9882  004142  8D72               	bsf	___fladd@signs& (0+255),6,b
  9883  004144                     l4000:
  9884                           
  9885                           ; BSR set to: 0
  9886  004144  516D               	movf	(___fladd@a+3)& (0+255),w,b
  9887  004146  256D               	addwf	(___fladd@a+3)& (0+255),w,b
  9888  004148  6F73               	movwf	___fladd@aexp& (0+255),b
  9889  00414A                     
  9890                           ; BSR set to: 0
  9891  00414A  AF6C               	btfss	(___fladd@a+2)& (0+255),7,b
  9892  00414C  EFAA  F020         	goto	u4491
  9893  004150  EFAC  F020         	goto	u4490
  9894  004154                     u4491:
  9895  004154  EFAD  F020         	goto	l4006
  9896  004158                     u4490:
  9897  004158                     
  9898                           ; BSR set to: 0
  9899  004158  8173               	bsf	___fladd@aexp& (0+255),0,b
  9900  00415A                     l4006:
  9901                           
  9902                           ; BSR set to: 0
  9903  00415A  5173               	movf	___fladd@aexp& (0+255),w,b
  9904  00415C  B4D8               	btfsc	status,2,c
  9905  00415E  EFB3  F020         	goto	u4501
  9906  004162  EFB5  F020         	goto	u4500
  9907  004166                     u4501:
  9908  004166  EFCA  F020         	goto	l4016
  9909  00416A                     u4500:
  9910  00416A                     
  9911                           ; BSR set to: 0
  9912  00416A  2973               	incf	___fladd@aexp& (0+255),w,b
  9913  00416C  A4D8               	btfss	status,2,c
  9914  00416E  EFBB  F020         	goto	u4511
  9915  004172  EFBD  F020         	goto	u4510
  9916  004176                     u4511:
  9917  004176  EFC5  F020         	goto	l4012
  9918  00417A                     u4510:
  9919  00417A                     
  9920                           ; BSR set to: 0
  9921  00417A  0E00               	movlw	0
  9922  00417C  6F6A               	movwf	___fladd@a& (0+255),b
  9923  00417E  0E00               	movlw	0
  9924  004180  6F6B               	movwf	(___fladd@a+1)& (0+255),b
  9925  004182  0E00               	movlw	0
  9926  004184  6F6C               	movwf	(___fladd@a+2)& (0+255),b
  9927  004186  0E00               	movlw	0
  9928  004188  6F6D               	movwf	(___fladd@a+3)& (0+255),b
  9929  00418A                     l4012:
  9930                           
  9931                           ; BSR set to: 0
  9932  00418A  8F6C               	bsf	(___fladd@a+2)& (0+255),7,b
  9933  00418C                     
  9934                           ; BSR set to: 0
  9935  00418C  0E00               	movlw	0
  9936  00418E  6F6D               	movwf	(___fladd@a+3)& (0+255),b
  9937  004190  EFD2  F020         	goto	l4018
  9938  004194                     l4016:
  9939                           
  9940                           ; BSR set to: 0
  9941  004194  0E00               	movlw	0
  9942  004196  6F6A               	movwf	___fladd@a& (0+255),b
  9943  004198  0E00               	movlw	0
  9944  00419A  6F6B               	movwf	(___fladd@a+1)& (0+255),b
  9945  00419C  0E00               	movlw	0
  9946  00419E  6F6C               	movwf	(___fladd@a+2)& (0+255),b
  9947  0041A0  0E00               	movlw	0
  9948  0041A2  6F6D               	movwf	(___fladd@a+3)& (0+255),b
  9949  0041A4                     l4018:
  9950                           
  9951                           ; BSR set to: 0
  9952  0041A4  5174               	movf	___fladd@bexp& (0+255),w,b
  9953  0041A6  5D73               	subwf	___fladd@aexp& (0+255),w,b
  9954  0041A8  B0D8               	btfsc	status,0,c
  9955  0041AA  EFD9  F020         	goto	u4521
  9956  0041AE  EFDB  F020         	goto	u4520
  9957  0041B2                     u4521:
  9958  0041B2  EF02  F021         	goto	l4054
  9959  0041B6                     u4520:
  9960  0041B6                     
  9961                           ; BSR set to: 0
  9962  0041B6  AD72               	btfss	___fladd@signs& (0+255),6,b
  9963  0041B8  EFE0  F020         	goto	u4531
  9964  0041BC  EFE2  F020         	goto	u4530
  9965  0041C0                     u4531:
  9966  0041C0  EFE4  F020         	goto	l4024
  9967  0041C4                     u4530:
  9968  0041C4                     
  9969                           ; BSR set to: 0
  9970  0041C4  0E80               	movlw	128
  9971  0041C6  1B72               	xorwf	___fladd@signs& (0+255),f,b
  9972  0041C8                     l4024:
  9973                           
  9974                           ; BSR set to: 0
  9975  0041C8  C074  F075         	movff	___fladd@bexp,___fladd@grs
  9976  0041CC                     
  9977                           ; BSR set to: 0
  9978  0041CC  C073  F074         	movff	___fladd@aexp,___fladd@bexp
  9979  0041D0                     
  9980                           ; BSR set to: 0
  9981  0041D0  C075  F073         	movff	___fladd@grs,___fladd@aexp
  9982  0041D4                     
  9983                           ; BSR set to: 0
  9984  0041D4  C066  F075         	movff	___fladd@b,___fladd@grs
  9985  0041D8                     
  9986                           ; BSR set to: 0
  9987  0041D8  C06A  F066         	movff	___fladd@a,___fladd@b
  9988  0041DC                     
  9989                           ; BSR set to: 0
  9990  0041DC  C075  F06A         	movff	___fladd@grs,___fladd@a
  9991  0041E0                     
  9992                           ; BSR set to: 0
  9993  0041E0  C067  F075         	movff	___fladd@b+1,___fladd@grs
  9994  0041E4                     
  9995                           ; BSR set to: 0
  9996  0041E4  C06B  F067         	movff	___fladd@a+1,___fladd@b+1
  9997  0041E8                     
  9998                           ; BSR set to: 0
  9999  0041E8  C075  F06B         	movff	___fladd@grs,___fladd@a+1
 10000  0041EC                     
 10001                           ; BSR set to: 0
 10002  0041EC  C068  F075         	movff	___fladd@b+2,___fladd@grs
 10003  0041F0                     
 10004                           ; BSR set to: 0
 10005  0041F0  C06C  F068         	movff	___fladd@a+2,___fladd@b+2
 10006  0041F4                     
 10007                           ; BSR set to: 0
 10008  0041F4  C075  F06C         	movff	___fladd@grs,___fladd@a+2
 10009  0041F8                     
 10010                           ; BSR set to: 0
 10011  0041F8  C069  F075         	movff	___fladd@b+3,___fladd@grs
 10012  0041FC                     
 10013                           ; BSR set to: 0
 10014  0041FC  C06D  F069         	movff	___fladd@a+3,___fladd@b+3
 10015  004200                     
 10016                           ; BSR set to: 0
 10017  004200  C075  F06D         	movff	___fladd@grs,___fladd@a+3
 10018  004204                     l4054:
 10019                           
 10020                           ; BSR set to: 0
 10021  004204  0E00               	movlw	0
 10022  004206  6F75               	movwf	___fladd@grs& (0+255),b
 10023  004208                     
 10024                           ; BSR set to: 0
 10025  004208  5174               	movf	___fladd@bexp& (0+255),w,b
 10026  00420A  C073  F06E         	movff	___fladd@aexp,??___fladd
 10027  00420E  6B6F               	clrf	(??___fladd+1)& (0+255),b
 10028  004210  5F6E               	subwf	??___fladd& (0+255),f,b
 10029  004212  0E00               	movlw	0
 10030  004214  5B6F               	subwfb	(??___fladd+1)& (0+255),f,b
 10031  004216  BF6F               	btfsc	(??___fladd+1)& (0+255),7,b
 10032  004218  EF17  F021         	goto	u4541
 10033  00421C  516F               	movf	(??___fladd+1)& (0+255),w,b
 10034  00421E  E109               	bnz	u4540
 10035  004220  0E1A               	movlw	26
 10036  004222  5D6E               	subwf	??___fladd& (0+255),w,b
 10037  004224  A0D8               	btfss	status,0,c
 10038  004226  EF17  F021         	goto	u4541
 10039  00422A  EF19  F021         	goto	u4540
 10040  00422E                     u4541:
 10041  00422E  EF50  F021         	goto	l827
 10042  004232                     u4540:
 10043  004232                     
 10044                           ; BSR set to: 0
 10045  004232  5166               	movf	___fladd@b& (0+255),w,b
 10046  004234  1167               	iorwf	(___fladd@b+1)& (0+255),w,b
 10047  004236  1168               	iorwf	(___fladd@b+2)& (0+255),w,b
 10048  004238  1169               	iorwf	(___fladd@b+3)& (0+255),w,b
 10049  00423A  A4D8               	btfss	status,2,c
 10050  00423C  EF22  F021         	goto	u4551
 10051  004240  EF25  F021         	goto	u4550
 10052  004244                     u4551:
 10053  004244  0E01               	movlw	1
 10054  004246  EF26  F021         	goto	u4560
 10055  00424A                     u4550:
 10056  00424A  0E00               	movlw	0
 10057  00424C                     u4560:
 10058  00424C  6F75               	movwf	___fladd@grs& (0+255),b
 10059  00424E                     
 10060                           ; BSR set to: 0
 10061  00424E  0E00               	movlw	0
 10062  004250  6F66               	movwf	___fladd@b& (0+255),b
 10063  004252  0E00               	movlw	0
 10064  004254  6F67               	movwf	(___fladd@b+1)& (0+255),b
 10065  004256  0E00               	movlw	0
 10066  004258  6F68               	movwf	(___fladd@b+2)& (0+255),b
 10067  00425A  0E00               	movlw	0
 10068  00425C  6F69               	movwf	(___fladd@b+3)& (0+255),b
 10069  00425E                     
 10070                           ; BSR set to: 0
 10071  00425E  C073  F074         	movff	___fladd@aexp,___fladd@bexp
 10072  004262  EF59  F021         	goto	l826
 10073  004266                     l828:
 10074                           
 10075                           ; BSR set to: 0
 10076  004266  A175               	btfss	___fladd@grs& (0+255),0,b
 10077  004268  EF38  F021         	goto	u4571
 10078  00426C  EF3A  F021         	goto	u4570
 10079  004270                     u4571:
 10080  004270  EF40  F021         	goto	l4066
 10081  004274                     u4570:
 10082  004274                     
 10083                           ; BSR set to: 0
 10084  004274  90D8               	bcf	status,0,c
 10085  004276  3175               	rrcf	___fladd@grs& (0+255),w,b
 10086  004278  0901               	iorlw	1
 10087  00427A  6F75               	movwf	___fladd@grs& (0+255),b
 10088  00427C  EF42  F021         	goto	l4068
 10089  004280                     l4066:
 10090                           
 10091                           ; BSR set to: 0
 10092  004280  90D8               	bcf	status,0,c
 10093  004282  3375               	rrcf	___fladd@grs& (0+255),f,b
 10094  004284                     l4068:
 10095                           
 10096                           ; BSR set to: 0
 10097  004284  A166               	btfss	___fladd@b& (0+255),0,b
 10098  004286  EF47  F021         	goto	u4581
 10099  00428A  EF49  F021         	goto	u4580
 10100  00428E                     u4581:
 10101  00428E  EF4A  F021         	goto	l4072
 10102  004292                     u4580:
 10103  004292                     
 10104                           ; BSR set to: 0
 10105  004292  8F75               	bsf	___fladd@grs& (0+255),7,b
 10106  004294                     l4072:
 10107                           
 10108                           ; BSR set to: 0
 10109  004294  3569               	rlcf	(___fladd@b+3)& (0+255),w,b
 10110  004296  3369               	rrcf	(___fladd@b+3)& (0+255),f,b
 10111  004298  3368               	rrcf	(___fladd@b+2)& (0+255),f,b
 10112  00429A  3367               	rrcf	(___fladd@b+1)& (0+255),f,b
 10113  00429C  3366               	rrcf	___fladd@b& (0+255),f,b
 10114  00429E                     
 10115                           ; BSR set to: 0
 10116  00429E  2B74               	incf	___fladd@bexp& (0+255),f,b
 10117  0042A0                     l827:
 10118                           
 10119                           ; BSR set to: 0
 10120  0042A0  5173               	movf	___fladd@aexp& (0+255),w,b
 10121  0042A2  5D74               	subwf	___fladd@bexp& (0+255),w,b
 10122  0042A4  A0D8               	btfss	status,0,c
 10123  0042A6  EF57  F021         	goto	u4591
 10124  0042AA  EF59  F021         	goto	u4590
 10125  0042AE                     u4591:
 10126  0042AE  EF33  F021         	goto	l828
 10127  0042B2                     u4590:
 10128  0042B2                     l826:
 10129                           
 10130                           ; BSR set to: 0
 10131  0042B2  BD72               	btfsc	___fladd@signs& (0+255),6,b
 10132  0042B4  EF5E  F021         	goto	u4601
 10133  0042B8  EF60  F021         	goto	u4600
 10134  0042BC                     u4601:
 10135  0042BC  EFA0  F021         	goto	l4100
 10136  0042C0                     u4600:
 10137  0042C0                     
 10138                           ; BSR set to: 0
 10139  0042C0  5174               	movf	___fladd@bexp& (0+255),w,b
 10140  0042C2  A4D8               	btfss	status,2,c
 10141  0042C4  EF66  F021         	goto	u4611
 10142  0042C8  EF68  F021         	goto	u4610
 10143  0042CC                     u4611:
 10144  0042CC  EF72  F021         	goto	l4082
 10145  0042D0                     u4610:
 10146  0042D0                     
 10147                           ; BSR set to: 0
 10148  0042D0  0E00               	movlw	0
 10149  0042D2  6F66               	movwf	?___fladd& (0+255),b
 10150  0042D4  0E00               	movlw	0
 10151  0042D6  6F67               	movwf	(?___fladd+1)& (0+255),b
 10152  0042D8  0E00               	movlw	0
 10153  0042DA  6F68               	movwf	(?___fladd+2)& (0+255),b
 10154  0042DC  0E00               	movlw	0
 10155  0042DE  6F69               	movwf	(?___fladd+3)& (0+255),b
 10156  0042E0  EFC1  F022         	goto	l835
 10157  0042E4                     l4082:
 10158                           
 10159                           ; BSR set to: 0
 10160  0042E4  516A               	movf	___fladd@a& (0+255),w,b
 10161  0042E6  2766               	addwf	___fladd@b& (0+255),f,b
 10162  0042E8  516B               	movf	(___fladd@a+1)& (0+255),w,b
 10163  0042EA  2367               	addwfc	(___fladd@b+1)& (0+255),f,b
 10164  0042EC  516C               	movf	(___fladd@a+2)& (0+255),w,b
 10165  0042EE  2368               	addwfc	(___fladd@b+2)& (0+255),f,b
 10166  0042F0  516D               	movf	(___fladd@a+3)& (0+255),w,b
 10167  0042F2  2369               	addwfc	(___fladd@b+3)& (0+255),f,b
 10168  0042F4                     
 10169                           ; BSR set to: 0
 10170  0042F4  A169               	btfss	(___fladd@b+3)& (0+255),0,b
 10171  0042F6  EF7F  F021         	goto	u4621
 10172  0042FA  EF81  F021         	goto	u4620
 10173  0042FE                     u4621:
 10174  0042FE  EF2D  F022         	goto	l4136
 10175  004302                     u4620:
 10176  004302                     
 10177                           ; BSR set to: 0
 10178  004302  A175               	btfss	___fladd@grs& (0+255),0,b
 10179  004304  EF86  F021         	goto	u4631
 10180  004308  EF88  F021         	goto	u4630
 10181  00430C                     u4631:
 10182  00430C  EF8E  F021         	goto	l4090
 10183  004310                     u4630:
 10184  004310                     
 10185                           ; BSR set to: 0
 10186  004310  90D8               	bcf	status,0,c
 10187  004312  3175               	rrcf	___fladd@grs& (0+255),w,b
 10188  004314  0901               	iorlw	1
 10189  004316  6F75               	movwf	___fladd@grs& (0+255),b
 10190  004318  EF90  F021         	goto	l4092
 10191  00431C                     l4090:
 10192                           
 10193                           ; BSR set to: 0
 10194  00431C  90D8               	bcf	status,0,c
 10195  00431E  3375               	rrcf	___fladd@grs& (0+255),f,b
 10196  004320                     l4092:
 10197                           
 10198                           ; BSR set to: 0
 10199  004320  A166               	btfss	___fladd@b& (0+255),0,b
 10200  004322  EF95  F021         	goto	u4641
 10201  004326  EF97  F021         	goto	u4640
 10202  00432A                     u4641:
 10203  00432A  EF98  F021         	goto	l4096
 10204  00432E                     u4640:
 10205  00432E                     
 10206                           ; BSR set to: 0
 10207  00432E  8F75               	bsf	___fladd@grs& (0+255),7,b
 10208  004330                     l4096:
 10209                           
 10210                           ; BSR set to: 0
 10211  004330  3569               	rlcf	(___fladd@b+3)& (0+255),w,b
 10212  004332  3369               	rrcf	(___fladd@b+3)& (0+255),f,b
 10213  004334  3368               	rrcf	(___fladd@b+2)& (0+255),f,b
 10214  004336  3367               	rrcf	(___fladd@b+1)& (0+255),f,b
 10215  004338  3366               	rrcf	___fladd@b& (0+255),f,b
 10216  00433A                     
 10217                           ; BSR set to: 0
 10218  00433A  2B74               	incf	___fladd@bexp& (0+255),f,b
 10219  00433C  EF2D  F022         	goto	l4136
 10220  004340                     l4100:
 10221                           
 10222                           ; BSR set to: 0
 10223  004340  516A               	movf	___fladd@a& (0+255),w,b
 10224  004342  5D66               	subwf	___fladd@b& (0+255),w,b
 10225  004344  516B               	movf	(___fladd@a+1)& (0+255),w,b
 10226  004346  5967               	subwfb	(___fladd@b+1)& (0+255),w,b
 10227  004348  516C               	movf	(___fladd@a+2)& (0+255),w,b
 10228  00434A  5968               	subwfb	(___fladd@b+2)& (0+255),w,b
 10229  00434C  5169               	movf	(___fladd@b+3)& (0+255),w,b
 10230  00434E  0A80               	xorlw	128
 10231  004350  6F6E               	movwf	??___fladd& (0+255),b
 10232  004352  516D               	movf	(___fladd@a+3)& (0+255),w,b
 10233  004354  0A80               	xorlw	128
 10234  004356  596E               	subwfb	??___fladd& (0+255),w,b
 10235  004358  B0D8               	btfsc	status,0,c
 10236  00435A  EFB1  F021         	goto	u4651
 10237  00435E  EFB3  F021         	goto	u4650
 10238  004362                     u4651:
 10239  004362  EFDE  F021         	goto	l4110
 10240  004366                     u4650:
 10241  004366                     
 10242                           ; BSR set to: 0
 10243  004366  5166               	movf	___fladd@b& (0+255),w,b
 10244  004368  5D6A               	subwf	___fladd@a& (0+255),w,b
 10245  00436A  6F6E               	movwf	??___fladd& (0+255),b
 10246  00436C  5167               	movf	(___fladd@b+1)& (0+255),w,b
 10247  00436E  596B               	subwfb	(___fladd@a+1)& (0+255),w,b
 10248  004370  6F6F               	movwf	(??___fladd+1)& (0+255),b
 10249  004372  5168               	movf	(___fladd@b+2)& (0+255),w,b
 10250  004374  596C               	subwfb	(___fladd@a+2)& (0+255),w,b
 10251  004376  6F70               	movwf	(??___fladd+2)& (0+255),b
 10252  004378  5169               	movf	(___fladd@b+3)& (0+255),w,b
 10253  00437A  596D               	subwfb	(___fladd@a+3)& (0+255),w,b
 10254  00437C  6F71               	movwf	(??___fladd+3)& (0+255),b
 10255  00437E  0EFF               	movlw	255
 10256  004380  256E               	addwf	??___fladd& (0+255),w,b
 10257  004382  6F66               	movwf	___fladd@b& (0+255),b
 10258  004384  0EFF               	movlw	255
 10259  004386  216F               	addwfc	(??___fladd+1)& (0+255),w,b
 10260  004388  6F67               	movwf	(___fladd@b+1)& (0+255),b
 10261  00438A  0EFF               	movlw	255
 10262  00438C  2170               	addwfc	(??___fladd+2)& (0+255),w,b
 10263  00438E  6F68               	movwf	(___fladd@b+2)& (0+255),b
 10264  004390  0EFF               	movlw	255
 10265  004392  2171               	addwfc	(??___fladd+3)& (0+255),w,b
 10266  004394  6F69               	movwf	(___fladd@b+3)& (0+255),b
 10267  004396  0E80               	movlw	128
 10268  004398  1B72               	xorwf	___fladd@signs& (0+255),f,b
 10269  00439A                     
 10270                           ; BSR set to: 0
 10271  00439A  6D75               	negf	___fladd@grs& (0+255),b
 10272  00439C                     
 10273                           ; BSR set to: 0
 10274  00439C  5175               	movf	___fladd@grs& (0+255),w,b
 10275  00439E  A4D8               	btfss	status,2,c
 10276  0043A0  EFD4  F021         	goto	u4661
 10277  0043A4  EFD6  F021         	goto	u4660
 10278  0043A8                     u4661:
 10279  0043A8  EFE6  F021         	goto	l843
 10280  0043AC                     u4660:
 10281  0043AC                     
 10282                           ; BSR set to: 0
 10283  0043AC  0E01               	movlw	1
 10284  0043AE  2766               	addwf	___fladd@b& (0+255),f,b
 10285  0043B0  0E00               	movlw	0
 10286  0043B2  2367               	addwfc	(___fladd@b+1)& (0+255),f,b
 10287  0043B4  2368               	addwfc	(___fladd@b+2)& (0+255),f,b
 10288  0043B6  2369               	addwfc	(___fladd@b+3)& (0+255),f,b
 10289  0043B8  EFE6  F021         	goto	l843
 10290  0043BC                     l4110:
 10291                           
 10292                           ; BSR set to: 0
 10293  0043BC  516A               	movf	___fladd@a& (0+255),w,b
 10294  0043BE  5F66               	subwf	___fladd@b& (0+255),f,b
 10295  0043C0  516B               	movf	(___fladd@a+1)& (0+255),w,b
 10296  0043C2  5B67               	subwfb	(___fladd@b+1)& (0+255),f,b
 10297  0043C4  516C               	movf	(___fladd@a+2)& (0+255),w,b
 10298  0043C6  5B68               	subwfb	(___fladd@b+2)& (0+255),f,b
 10299  0043C8  516D               	movf	(___fladd@a+3)& (0+255),w,b
 10300  0043CA  5B69               	subwfb	(___fladd@b+3)& (0+255),f,b
 10301  0043CC                     l843:
 10302                           
 10303                           ; BSR set to: 0
 10304  0043CC  5166               	movf	___fladd@b& (0+255),w,b
 10305  0043CE  1167               	iorwf	(___fladd@b+1)& (0+255),w,b
 10306  0043D0  1168               	iorwf	(___fladd@b+2)& (0+255),w,b
 10307  0043D2  1169               	iorwf	(___fladd@b+3)& (0+255),w,b
 10308  0043D4  A4D8               	btfss	status,2,c
 10309  0043D6  EFEF  F021         	goto	u4671
 10310  0043DA  EFF1  F021         	goto	u4670
 10311  0043DE                     u4671:
 10312  0043DE  EF26  F022         	goto	l4134
 10313  0043E2                     u4670:
 10314  0043E2                     
 10315                           ; BSR set to: 0
 10316  0043E2  5175               	movf	___fladd@grs& (0+255),w,b
 10317  0043E4  A4D8               	btfss	status,2,c
 10318  0043E6  EFF7  F021         	goto	u4681
 10319  0043EA  EFF9  F021         	goto	u4680
 10320  0043EE                     u4681:
 10321  0043EE  EF26  F022         	goto	l4134
 10322  0043F2                     u4680:
 10323  0043F2                     
 10324                           ; BSR set to: 0
 10325  0043F2  0E00               	movlw	0
 10326  0043F4  6F66               	movwf	?___fladd& (0+255),b
 10327  0043F6  0E00               	movlw	0
 10328  0043F8  6F67               	movwf	(?___fladd+1)& (0+255),b
 10329  0043FA  0E00               	movlw	0
 10330  0043FC  6F68               	movwf	(?___fladd+2)& (0+255),b
 10331  0043FE  0E00               	movlw	0
 10332  004400  6F69               	movwf	(?___fladd+3)& (0+255),b
 10333  004402  EFC1  F022         	goto	l835
 10334  004406                     l4118:
 10335                           
 10336                           ; BSR set to: 0
 10337  004406  90D8               	bcf	status,0,c
 10338  004408  3766               	rlcf	___fladd@b& (0+255),f,b
 10339  00440A  3767               	rlcf	(___fladd@b+1)& (0+255),f,b
 10340  00440C  3768               	rlcf	(___fladd@b+2)& (0+255),f,b
 10341  00440E  3769               	rlcf	(___fladd@b+3)& (0+255),f,b
 10342  004410                     
 10343                           ; BSR set to: 0
 10344  004410  AF75               	btfss	___fladd@grs& (0+255),7,b
 10345  004412  EF0D  F022         	goto	u4691
 10346  004416  EF0F  F022         	goto	u4690
 10347  00441A                     u4691:
 10348  00441A  EF10  F022         	goto	l4124
 10349  00441E                     u4690:
 10350  00441E                     
 10351                           ; BSR set to: 0
 10352  00441E  8166               	bsf	___fladd@b& (0+255),0,b
 10353  004420                     l4124:
 10354                           
 10355                           ; BSR set to: 0
 10356  004420  A175               	btfss	___fladd@grs& (0+255),0,b
 10357  004422  EF15  F022         	goto	u4701
 10358  004426  EF17  F022         	goto	u4700
 10359  00442A                     u4701:
 10360  00442A  EF1B  F022         	goto	l4128
 10361  00442E                     u4700:
 10362  00442E                     
 10363                           ; BSR set to: 0
 10364  00442E  80D8               	bsf	status,0,c
 10365  004430  3775               	rlcf	___fladd@grs& (0+255),f,b
 10366  004432  EF1D  F022         	goto	l4130
 10367  004436                     l4128:
 10368                           
 10369                           ; BSR set to: 0
 10370  004436  90D8               	bcf	status,0,c
 10371  004438  3775               	rlcf	___fladd@grs& (0+255),f,b
 10372  00443A                     l4130:
 10373                           
 10374                           ; BSR set to: 0
 10375  00443A  5174               	movf	___fladd@bexp& (0+255),w,b
 10376  00443C  B4D8               	btfsc	status,2,c
 10377  00443E  EF23  F022         	goto	u4711
 10378  004442  EF25  F022         	goto	u4710
 10379  004446                     u4711:
 10380  004446  EF26  F022         	goto	l4134
 10381  00444A                     u4710:
 10382  00444A                     
 10383                           ; BSR set to: 0
 10384  00444A  0774               	decf	___fladd@bexp& (0+255),f,b
 10385  00444C                     l4134:
 10386                           
 10387                           ; BSR set to: 0
 10388  00444C  AF68               	btfss	(___fladd@b+2)& (0+255),7,b
 10389  00444E  EF2B  F022         	goto	u4721
 10390  004452  EF2D  F022         	goto	u4720
 10391  004456                     u4721:
 10392  004456  EF03  F022         	goto	l4118
 10393  00445A                     u4720:
 10394  00445A                     l4136:
 10395                           
 10396                           ; BSR set to: 0
 10397  00445A  0E00               	movlw	0
 10398  00445C  6F73               	movwf	___fladd@aexp& (0+255),b
 10399  00445E                     
 10400                           ; BSR set to: 0
 10401  00445E  AF75               	btfss	___fladd@grs& (0+255),7,b
 10402  004460  EF34  F022         	goto	u4731
 10403  004464  EF36  F022         	goto	u4730
 10404  004468                     u4731:
 10405  004468  EF4E  F022         	goto	l852
 10406  00446C                     u4730:
 10407  00446C                     
 10408                           ; BSR set to: 0
 10409  00446C  C075  F06E         	movff	___fladd@grs,??___fladd
 10410  004470  0E7F               	movlw	127
 10411  004472  176E               	andwf	??___fladd& (0+255),f,b
 10412  004474  B4D8               	btfsc	status,2,c
 10413  004476  EF3F  F022         	goto	u4741
 10414  00447A  EF41  F022         	goto	u4740
 10415  00447E                     u4741:
 10416  00447E  EF45  F022         	goto	l853
 10417  004482                     u4740:
 10418  004482                     l4142:
 10419                           
 10420                           ; BSR set to: 0
 10421  004482  0E01               	movlw	1
 10422  004484  6F73               	movwf	___fladd@aexp& (0+255),b
 10423  004486  EF4E  F022         	goto	l852
 10424  00448A                     l853:
 10425                           
 10426                           ; BSR set to: 0
 10427  00448A  A166               	btfss	___fladd@b& (0+255),0,b
 10428  00448C  EF4A  F022         	goto	u4751
 10429  004490  EF4C  F022         	goto	u4750
 10430  004494                     u4751:
 10431  004494  EF4E  F022         	goto	l852
 10432  004498                     u4750:
 10433  004498  EF41  F022         	goto	l4142
 10434  00449C                     l852:
 10435                           
 10436                           ; BSR set to: 0
 10437  00449C  5173               	movf	___fladd@aexp& (0+255),w,b
 10438  00449E  B4D8               	btfsc	status,2,c
 10439  0044A0  EF54  F022         	goto	u4761
 10440  0044A4  EF56  F022         	goto	u4760
 10441  0044A8                     u4761:
 10442  0044A8  EF81  F022         	goto	l4154
 10443  0044AC                     u4760:
 10444  0044AC                     
 10445                           ; BSR set to: 0
 10446  0044AC  0E01               	movlw	1
 10447  0044AE  2766               	addwf	___fladd@b& (0+255),f,b
 10448  0044B0  0E00               	movlw	0
 10449  0044B2  2367               	addwfc	(___fladd@b+1)& (0+255),f,b
 10450  0044B4  2368               	addwfc	(___fladd@b+2)& (0+255),f,b
 10451  0044B6  2369               	addwfc	(___fladd@b+3)& (0+255),f,b
 10452  0044B8                     
 10453                           ; BSR set to: 0
 10454  0044B8  A169               	btfss	(___fladd@b+3)& (0+255),0,b
 10455  0044BA  EF61  F022         	goto	u4771
 10456  0044BE  EF63  F022         	goto	u4770
 10457  0044C2                     u4771:
 10458  0044C2  EF81  F022         	goto	l4154
 10459  0044C6                     u4770:
 10460  0044C6                     
 10461                           ; BSR set to: 0
 10462  0044C6  C066  F06E         	movff	___fladd@b,??___fladd
 10463  0044CA  C067  F06F         	movff	___fladd@b+1,??___fladd+1
 10464  0044CE  C068  F070         	movff	___fladd@b+2,??___fladd+2
 10465  0044D2  C069  F071         	movff	___fladd@b+3,??___fladd+3
 10466  0044D6  3571               	rlcf	(??___fladd+3)& (0+255),w,b
 10467  0044D8  3371               	rrcf	(??___fladd+3)& (0+255),f,b
 10468  0044DA  3370               	rrcf	(??___fladd+2)& (0+255),f,b
 10469  0044DC  336F               	rrcf	(??___fladd+1)& (0+255),f,b
 10470  0044DE  336E               	rrcf	??___fladd& (0+255),f,b
 10471  0044E0  C06E  F066         	movff	??___fladd,___fladd@b
 10472  0044E4  C06F  F067         	movff	??___fladd+1,___fladd@b+1
 10473  0044E8  C070  F068         	movff	??___fladd+2,___fladd@b+2
 10474  0044EC  C071  F069         	movff	??___fladd+3,___fladd@b+3
 10475  0044F0  2974               	incf	___fladd@bexp& (0+255),w,b
 10476  0044F2  B4D8               	btfsc	status,2,c
 10477  0044F4  EF7E  F022         	goto	u4781
 10478  0044F8  EF80  F022         	goto	u4780
 10479  0044FC                     u4781:
 10480  0044FC  EF81  F022         	goto	l4154
 10481  004500                     u4780:
 10482  004500                     
 10483                           ; BSR set to: 0
 10484  004500  2B74               	incf	___fladd@bexp& (0+255),f,b
 10485  004502                     l4154:
 10486                           
 10487                           ; BSR set to: 0
 10488  004502  2974               	incf	___fladd@bexp& (0+255),w,b
 10489  004504  B4D8               	btfsc	status,2,c
 10490  004506  EF87  F022         	goto	u4791
 10491  00450A  EF89  F022         	goto	u4790
 10492  00450E                     u4791:
 10493  00450E  EF91  F022         	goto	l4158
 10494  004512                     u4790:
 10495  004512                     
 10496                           ; BSR set to: 0
 10497  004512  5174               	movf	___fladd@bexp& (0+255),w,b
 10498  004514  A4D8               	btfss	status,2,c
 10499  004516  EF8F  F022         	goto	u4801
 10500  00451A  EF91  F022         	goto	u4800
 10501  00451E                     u4801:
 10502  00451E  EFA3  F022         	goto	l4162
 10503  004522                     u4800:
 10504  004522                     l4158:
 10505                           
 10506                           ; BSR set to: 0
 10507  004522  0E00               	movlw	0
 10508  004524  6F66               	movwf	___fladd@b& (0+255),b
 10509  004526  0E00               	movlw	0
 10510  004528  6F67               	movwf	(___fladd@b+1)& (0+255),b
 10511  00452A  0E00               	movlw	0
 10512  00452C  6F68               	movwf	(___fladd@b+2)& (0+255),b
 10513  00452E  0E00               	movlw	0
 10514  004530  6F69               	movwf	(___fladd@b+3)& (0+255),b
 10515  004532  5174               	movf	___fladd@bexp& (0+255),w,b
 10516  004534  A4D8               	btfss	status,2,c
 10517  004536  EF9F  F022         	goto	u4811
 10518  00453A  EFA1  F022         	goto	u4810
 10519  00453E                     u4811:
 10520  00453E  EFA3  F022         	goto	l4162
 10521  004542                     u4810:
 10522  004542                     
 10523                           ; BSR set to: 0
 10524  004542  0E00               	movlw	0
 10525  004544  6F72               	movwf	___fladd@signs& (0+255),b
 10526  004546                     l4162:
 10527                           
 10528                           ; BSR set to: 0
 10529  004546  A174               	btfss	___fladd@bexp& (0+255),0,b
 10530  004548  EFA8  F022         	goto	u4821
 10531  00454C  EFAA  F022         	goto	u4820
 10532  004550                     u4821:
 10533  004550  EFAD  F022         	goto	l4166
 10534  004554                     u4820:
 10535  004554                     
 10536                           ; BSR set to: 0
 10537  004554  8F68               	bsf	(___fladd@b+2)& (0+255),7,b
 10538  004556  EFAE  F022         	goto	l4168
 10539  00455A                     l4166:
 10540                           
 10541                           ; BSR set to: 0
 10542  00455A  9F68               	bcf	(___fladd@b+2)& (0+255),7,b
 10543  00455C                     l4168:
 10544                           
 10545                           ; BSR set to: 0
 10546  00455C  90D8               	bcf	status,0,c
 10547  00455E  3174               	rrcf	___fladd@bexp& (0+255),w,b
 10548  004560  6F69               	movwf	(___fladd@b+3)& (0+255),b
 10549  004562                     
 10550                           ; BSR set to: 0
 10551  004562  AF72               	btfss	___fladd@signs& (0+255),7,b
 10552  004564  EFB6  F022         	goto	u4831
 10553  004568  EFB8  F022         	goto	u4830
 10554  00456C                     u4831:
 10555  00456C  EFB9  F022         	goto	l4174
 10556  004570                     u4830:
 10557  004570                     
 10558                           ; BSR set to: 0
 10559  004570  8F69               	bsf	(___fladd@b+3)& (0+255),7,b
 10560  004572                     l4174:
 10561                           
 10562                           ; BSR set to: 0
 10563  004572  C066  F066         	movff	___fladd@b,?___fladd
 10564  004576  C067  F067         	movff	___fladd@b+1,?___fladd+1
 10565  00457A  C068  F068         	movff	___fladd@b+2,?___fladd+2
 10566  00457E  C069  F069         	movff	___fladd@b+3,?___fladd+3
 10567  004582                     l835:
 10568                           
 10569                           ; BSR set to: 0
 10570  004582  0012               	return		;funcret
 10571  004584                     __end_of___fladd:
 10572                           	opt callstack 0
 10573                           
 10574 ;; *************** function ___flneg *****************
 10575 ;; Defined at:
 10576 ;;		line 15 in file "/opt/microchip/xc8/v2.10/pic/sources/c99/common/flneg.c"
 10577 ;; Parameters:    Size  Location     Type
 10578 ;;  f1              4   20[COMRAM] unsigned char 
 10579 ;; Auto vars:     Size  Location     Type
 10580 ;;		None
 10581 ;; Return value:  Size  Location     Type
 10582 ;;                  4   20[COMRAM] unsigned char 
 10583 ;; Registers used:
 10584 ;;		wreg, status,2, status,0
 10585 ;; Tracked objects:
 10586 ;;		On entry : 0/0
 10587 ;;		On exit  : 0/0
 10588 ;;		Unchanged: 0/0
 10589 ;; Data sizes:     COMRAM   BANK0   BANK1   BANK2   BANK3   BANK4   BANK5   BANK6   BANK7   BANK8   BANK9  BANK10  BANK1
      +1  BANK12  BANK13  BANK14  BANK15
 10590 ;;      Params:         4       0       0       0       0       0       0       0       0       0       0       0       
      +0       0       0       0       0
 10591 ;;      Locals:         0       0       0       0       0       0       0       0       0       0       0       0       
      +0       0       0       0       0
 10592 ;;      Temps:          0       0       0       0       0       0       0       0       0       0       0       0       
      +0       0       0       0       0
 10593 ;;      Totals:         4       0       0       0       0       0       0       0       0       0       0       0       
      +0       0       0       0       0
 10594 ;;Total ram usage:        4 bytes
 10595 ;; Hardware stack levels used:    1
 10596 ;; Hardware stack levels required when called:    4
 10597 ;; This function calls:
 10598 ;;		Nothing
 10599 ;; This function is called by:
 10600 ;;		_powf
 10601 ;; This function uses a non-reentrant model
 10602 ;;
 10603                           
 10604                           	psect	text29
 10605  0062C6                     __ptext29:
 10606                           	opt callstack 0
 10607  0062C6                     ___flneg:
 10608                           	opt callstack 23
 10609  0062C6  5015               	movf	___flneg@f1^0,w,c
 10610  0062C8  1016               	iorwf	(___flneg@f1+1)^0,w,c
 10611  0062CA  1017               	iorwf	(___flneg@f1+2)^0,w,c
 10612  0062CC  1018               	iorwf	(___flneg@f1+3)^0,w,c
 10613  0062CE  B4D8               	btfsc	status,2,c
 10614  0062D0  EF6C  F031         	goto	u5311
 10615  0062D4  EF6E  F031         	goto	u5310
 10616  0062D8                     u5311:
 10617  0062D8  EF76  F031         	goto	l4490
 10618  0062DC                     u5310:
 10619  0062DC  0E00               	movlw	0
 10620  0062DE  1A15               	xorwf	___flneg@f1^0,f,c
 10621  0062E0  0E00               	movlw	0
 10622  0062E2  1A16               	xorwf	(___flneg@f1+1)^0,f,c
 10623  0062E4  0E00               	movlw	0
 10624  0062E6  1A17               	xorwf	(___flneg@f1+2)^0,f,c
 10625  0062E8  0E80               	movlw	128
 10626  0062EA  1A18               	xorwf	(___flneg@f1+3)^0,f,c
 10627  0062EC                     l4490:
 10628  0062EC  C015  F015         	movff	___flneg@f1,?___flneg
 10629  0062F0  C016  F016         	movff	___flneg@f1+1,?___flneg+1
 10630  0062F4  C017  F017         	movff	___flneg@f1+2,?___flneg+2
 10631  0062F8  C018  F018         	movff	___flneg@f1+3,?___flneg+3
 10632  0062FC  0012               	return		;funcret
 10633  0062FE                     __end_of___flneg:
 10634                           	opt callstack 0
 10635                           
 10636 ;; *************** function ___fldiv *****************
 10637 ;; Defined at:
 10638 ;;		line 11 in file "/opt/microchip/xc8/v2.10/pic/sources/c99/common/sprcdiv.c"
 10639 ;; Parameters:    Size  Location     Type
 10640 ;;  b               4   30[BANK0 ] unsigned char 
 10641 ;;  a               4   34[BANK0 ] unsigned char 
 10642 ;; Auto vars:     Size  Location     Type
 10643 ;;  grs             4   49[BANK0 ] unsigned long 
 10644 ;;  rem             4   42[BANK0 ] unsigned long 
 10645 ;;  new_exp         2   47[BANK0 ] short 
 10646 ;;  aexp            1   54[BANK0 ] unsigned char 
 10647 ;;  bexp            1   53[BANK0 ] unsigned char 
 10648 ;;  sign            1   46[BANK0 ] unsigned char 
 10649 ;; Return value:  Size  Location     Type
 10650 ;;                  4   30[BANK0 ] unsigned char 
 10651 ;; Registers used:
 10652 ;;		wreg, status,2, status,0
 10653 ;; Tracked objects:
 10654 ;;		On entry : 0/0
 10655 ;;		On exit  : 0/0
 10656 ;;		Unchanged: 0/0
 10657 ;; Data sizes:     COMRAM   BANK0   BANK1   BANK2   BANK3   BANK4   BANK5   BANK6   BANK7   BANK8   BANK9  BANK10  BANK1
      +1  BANK12  BANK13  BANK14  BANK15
 10658 ;;      Params:         0       8       0       0       0       0       0       0       0       0       0       0       
      +0       0       0       0       0
 10659 ;;      Locals:         0      13       0       0       0       0       0       0       0       0       0       0       
      +0       0       0       0       0
 10660 ;;      Temps:          0       4       0       0       0       0       0       0       0       0       0       0       
      +0       0       0       0       0
 10661 ;;      Totals:         0      25       0       0       0       0       0       0       0       0       0       0       
      +0       0       0       0       0
 10662 ;;Total ram usage:       25 bytes
 10663 ;; Hardware stack levels used:    1
 10664 ;; Hardware stack levels required when called:    4
 10665 ;; This function calls:
 10666 ;;		Nothing
 10667 ;; This function is called by:
 10668 ;;		_powf
 10669 ;; This function uses a non-reentrant model
 10670 ;;
 10671                           
 10672                           	psect	text30
 10673  004E6A                     __ptext30:
 10674                           	opt callstack 0
 10675  004E6A                     ___fldiv:
 10676                           	opt callstack 23
 10677  004E6A  0100               	movlb	0	; () banked
 10678  004E6C  5181               	movf	(___fldiv@b+3)& (0+255),w,b
 10679  004E6E  0B80               	andlw	128
 10680  004E70  6F8E               	movwf	___fldiv@sign& (0+255),b
 10681  004E72  5181               	movf	(___fldiv@b+3)& (0+255),w,b
 10682  004E74  2581               	addwf	(___fldiv@b+3)& (0+255),w,b
 10683  004E76  6F95               	movwf	___fldiv@bexp& (0+255),b
 10684  004E78                     
 10685                           ; BSR set to: 0
 10686  004E78  AF80               	btfss	(___fldiv@b+2)& (0+255),7,b
 10687  004E7A  EF41  F027         	goto	u5081
 10688  004E7E  EF43  F027         	goto	u5080
 10689  004E82                     u5081:
 10690  004E82  EF44  F027         	goto	l4348
 10691  004E86                     u5080:
 10692  004E86                     
 10693                           ; BSR set to: 0
 10694  004E86  8195               	bsf	___fldiv@bexp& (0+255),0,b
 10695  004E88                     l4348:
 10696                           
 10697                           ; BSR set to: 0
 10698  004E88  5195               	movf	___fldiv@bexp& (0+255),w,b
 10699  004E8A  B4D8               	btfsc	status,2,c
 10700  004E8C  EF4A  F027         	goto	u5091
 10701  004E90  EF4C  F027         	goto	u5090
 10702  004E94                     u5091:
 10703  004E94  EF61  F027         	goto	l4358
 10704  004E98                     u5090:
 10705  004E98                     
 10706                           ; BSR set to: 0
 10707  004E98  2995               	incf	___fldiv@bexp& (0+255),w,b
 10708  004E9A  A4D8               	btfss	status,2,c
 10709  004E9C  EF52  F027         	goto	u5101
 10710  004EA0  EF54  F027         	goto	u5100
 10711  004EA4                     u5101:
 10712  004EA4  EF5C  F027         	goto	l4354
 10713  004EA8                     u5100:
 10714  004EA8                     
 10715                           ; BSR set to: 0
 10716  004EA8  0E00               	movlw	0
 10717  004EAA  6F7E               	movwf	___fldiv@b& (0+255),b
 10718  004EAC  0E00               	movlw	0
 10719  004EAE  6F7F               	movwf	(___fldiv@b+1)& (0+255),b
 10720  004EB0  0E00               	movlw	0
 10721  004EB2  6F80               	movwf	(___fldiv@b+2)& (0+255),b
 10722  004EB4  0E00               	movlw	0
 10723  004EB6  6F81               	movwf	(___fldiv@b+3)& (0+255),b
 10724  004EB8                     l4354:
 10725                           
 10726                           ; BSR set to: 0
 10727  004EB8  8F80               	bsf	(___fldiv@b+2)& (0+255),7,b
 10728  004EBA                     
 10729                           ; BSR set to: 0
 10730  004EBA  0E00               	movlw	0
 10731  004EBC  6F81               	movwf	(___fldiv@b+3)& (0+255),b
 10732  004EBE  EF69  F027         	goto	l4360
 10733  004EC2                     l4358:
 10734                           
 10735                           ; BSR set to: 0
 10736  004EC2  0E00               	movlw	0
 10737  004EC4  6F7E               	movwf	___fldiv@b& (0+255),b
 10738  004EC6  0E00               	movlw	0
 10739  004EC8  6F7F               	movwf	(___fldiv@b+1)& (0+255),b
 10740  004ECA  0E00               	movlw	0
 10741  004ECC  6F80               	movwf	(___fldiv@b+2)& (0+255),b
 10742  004ECE  0E00               	movlw	0
 10743  004ED0  6F81               	movwf	(___fldiv@b+3)& (0+255),b
 10744  004ED2                     l4360:
 10745                           
 10746                           ; BSR set to: 0
 10747  004ED2  5185               	movf	(___fldiv@a+3)& (0+255),w,b
 10748  004ED4  0B80               	andlw	128
 10749  004ED6  1B8E               	xorwf	___fldiv@sign& (0+255),f,b
 10750  004ED8                     
 10751                           ; BSR set to: 0
 10752  004ED8  5185               	movf	(___fldiv@a+3)& (0+255),w,b
 10753  004EDA  2585               	addwf	(___fldiv@a+3)& (0+255),w,b
 10754  004EDC  6F96               	movwf	___fldiv@aexp& (0+255),b
 10755  004EDE                     
 10756                           ; BSR set to: 0
 10757  004EDE  AF84               	btfss	(___fldiv@a+2)& (0+255),7,b
 10758  004EE0  EF74  F027         	goto	u5111
 10759  004EE4  EF76  F027         	goto	u5110
 10760  004EE8                     u5111:
 10761  004EE8  EF77  F027         	goto	l4368
 10762  004EEC                     u5110:
 10763  004EEC                     
 10764                           ; BSR set to: 0
 10765  004EEC  8196               	bsf	___fldiv@aexp& (0+255),0,b
 10766  004EEE                     l4368:
 10767                           
 10768                           ; BSR set to: 0
 10769  004EEE  5196               	movf	___fldiv@aexp& (0+255),w,b
 10770  004EF0  B4D8               	btfsc	status,2,c
 10771  004EF2  EF7D  F027         	goto	u5121
 10772  004EF6  EF7F  F027         	goto	u5120
 10773  004EFA                     u5121:
 10774  004EFA  EF94  F027         	goto	l4378
 10775  004EFE                     u5120:
 10776  004EFE                     
 10777                           ; BSR set to: 0
 10778  004EFE  2996               	incf	___fldiv@aexp& (0+255),w,b
 10779  004F00  A4D8               	btfss	status,2,c
 10780  004F02  EF85  F027         	goto	u5131
 10781  004F06  EF87  F027         	goto	u5130
 10782  004F0A                     u5131:
 10783  004F0A  EF8F  F027         	goto	l4374
 10784  004F0E                     u5130:
 10785  004F0E                     
 10786                           ; BSR set to: 0
 10787  004F0E  0E00               	movlw	0
 10788  004F10  6F82               	movwf	___fldiv@a& (0+255),b
 10789  004F12  0E00               	movlw	0
 10790  004F14  6F83               	movwf	(___fldiv@a+1)& (0+255),b
 10791  004F16  0E00               	movlw	0
 10792  004F18  6F84               	movwf	(___fldiv@a+2)& (0+255),b
 10793  004F1A  0E00               	movlw	0
 10794  004F1C  6F85               	movwf	(___fldiv@a+3)& (0+255),b
 10795  004F1E                     l4374:
 10796                           
 10797                           ; BSR set to: 0
 10798  004F1E  8F84               	bsf	(___fldiv@a+2)& (0+255),7,b
 10799  004F20                     
 10800                           ; BSR set to: 0
 10801  004F20  0E00               	movlw	0
 10802  004F22  6F85               	movwf	(___fldiv@a+3)& (0+255),b
 10803  004F24  EF9C  F027         	goto	l4380
 10804  004F28                     l4378:
 10805                           
 10806                           ; BSR set to: 0
 10807  004F28  0E00               	movlw	0
 10808  004F2A  6F82               	movwf	___fldiv@a& (0+255),b
 10809  004F2C  0E00               	movlw	0
 10810  004F2E  6F83               	movwf	(___fldiv@a+1)& (0+255),b
 10811  004F30  0E00               	movlw	0
 10812  004F32  6F84               	movwf	(___fldiv@a+2)& (0+255),b
 10813  004F34  0E00               	movlw	0
 10814  004F36  6F85               	movwf	(___fldiv@a+3)& (0+255),b
 10815  004F38                     l4380:
 10816                           
 10817                           ; BSR set to: 0
 10818  004F38  5182               	movf	___fldiv@a& (0+255),w,b
 10819  004F3A  1183               	iorwf	(___fldiv@a+1)& (0+255),w,b
 10820  004F3C  1184               	iorwf	(___fldiv@a+2)& (0+255),w,b
 10821  004F3E  1185               	iorwf	(___fldiv@a+3)& (0+255),w,b
 10822  004F40  A4D8               	btfss	status,2,c
 10823  004F42  EFA5  F027         	goto	u5141
 10824  004F46  EFA7  F027         	goto	u5140
 10825  004F4A                     u5141:
 10826  004F4A  EFBF  F027         	goto	l4392
 10827  004F4E                     u5140:
 10828  004F4E                     
 10829                           ; BSR set to: 0
 10830  004F4E  0E00               	movlw	0
 10831  004F50  6F7E               	movwf	___fldiv@b& (0+255),b
 10832  004F52  0E00               	movlw	0
 10833  004F54  6F7F               	movwf	(___fldiv@b+1)& (0+255),b
 10834  004F56  0E00               	movlw	0
 10835  004F58  6F80               	movwf	(___fldiv@b+2)& (0+255),b
 10836  004F5A  0E00               	movlw	0
 10837  004F5C  6F81               	movwf	(___fldiv@b+3)& (0+255),b
 10838  004F5E                     
 10839                           ; BSR set to: 0
 10840  004F5E  0E80               	movlw	128
 10841  004F60  1380               	iorwf	(___fldiv@b+2)& (0+255),f,b
 10842  004F62  0E7F               	movlw	127
 10843  004F64  1381               	iorwf	(___fldiv@b+3)& (0+255),f,b
 10844  004F66                     l4386:
 10845                           
 10846                           ; BSR set to: 0
 10847  004F66  518E               	movf	___fldiv@sign& (0+255),w,b
 10848  004F68  1381               	iorwf	(___fldiv@b+3)& (0+255),f,b
 10849  004F6A                     
 10850                           ; BSR set to: 0
 10851  004F6A  C07E  F07E         	movff	___fldiv@b,?___fldiv
 10852  004F6E  C07F  F07F         	movff	___fldiv@b+1,?___fldiv+1
 10853  004F72  C080  F080         	movff	___fldiv@b+2,?___fldiv+2
 10854  004F76  C081  F081         	movff	___fldiv@b+3,?___fldiv+3
 10855  004F7A  EF02  F029         	goto	l880
 10856  004F7E                     l4392:
 10857                           
 10858                           ; BSR set to: 0
 10859  004F7E  5195               	movf	___fldiv@bexp& (0+255),w,b
 10860  004F80  A4D8               	btfss	status,2,c
 10861  004F82  EFC5  F027         	goto	u5151
 10862  004F86  EFC7  F027         	goto	u5150
 10863  004F8A                     u5151:
 10864  004F8A  EFD1  F027         	goto	l4400
 10865  004F8E                     u5150:
 10866  004F8E                     
 10867                           ; BSR set to: 0
 10868  004F8E  0E00               	movlw	0
 10869  004F90  6F7E               	movwf	?___fldiv& (0+255),b
 10870  004F92  0E00               	movlw	0
 10871  004F94  6F7F               	movwf	(?___fldiv+1)& (0+255),b
 10872  004F96  0E00               	movlw	0
 10873  004F98  6F80               	movwf	(?___fldiv+2)& (0+255),b
 10874  004F9A  0E00               	movlw	0
 10875  004F9C  6F81               	movwf	(?___fldiv+3)& (0+255),b
 10876  004F9E  EF02  F029         	goto	l880
 10877  004FA2                     l4400:
 10878                           
 10879                           ; BSR set to: 0
 10880  004FA2  5196               	movf	___fldiv@aexp& (0+255),w,b
 10881  004FA4  C095  F086         	movff	___fldiv@bexp,??___fldiv
 10882  004FA8  6B87               	clrf	(??___fldiv+1)& (0+255),b
 10883  004FAA  5F86               	subwf	??___fldiv& (0+255),f,b
 10884  004FAC  0E00               	movlw	0
 10885  004FAE  5B87               	subwfb	(??___fldiv+1)& (0+255),f,b
 10886  004FB0  0E7F               	movlw	127
 10887  004FB2  2586               	addwf	??___fldiv& (0+255),w,b
 10888  004FB4  6F8F               	movwf	___fldiv@new_exp& (0+255),b
 10889  004FB6  0E00               	movlw	0
 10890  004FB8  2187               	addwfc	(??___fldiv+1)& (0+255),w,b
 10891  004FBA  6F90               	movwf	(___fldiv@new_exp+1)& (0+255),b
 10892  004FBC                     
 10893                           ; BSR set to: 0
 10894  004FBC  C07E  F08A         	movff	___fldiv@b,___fldiv@rem
 10895  004FC0  C07F  F08B         	movff	___fldiv@b+1,___fldiv@rem+1
 10896  004FC4  C080  F08C         	movff	___fldiv@b+2,___fldiv@rem+2
 10897  004FC8  C081  F08D         	movff	___fldiv@b+3,___fldiv@rem+3
 10898  004FCC                     
 10899                           ; BSR set to: 0
 10900  004FCC  0E00               	movlw	0
 10901  004FCE  6F7E               	movwf	___fldiv@b& (0+255),b
 10902  004FD0  0E00               	movlw	0
 10903  004FD2  6F7F               	movwf	(___fldiv@b+1)& (0+255),b
 10904  004FD4  0E00               	movlw	0
 10905  004FD6  6F80               	movwf	(___fldiv@b+2)& (0+255),b
 10906  004FD8  0E00               	movlw	0
 10907  004FDA  6F81               	movwf	(___fldiv@b+3)& (0+255),b
 10908  004FDC                     
 10909                           ; BSR set to: 0
 10910  004FDC  0E00               	movlw	0
 10911  004FDE  6F91               	movwf	___fldiv@grs& (0+255),b
 10912  004FE0  0E00               	movlw	0
 10913  004FE2  6F92               	movwf	(___fldiv@grs+1)& (0+255),b
 10914  004FE4  0E00               	movlw	0
 10915  004FE6  6F93               	movwf	(___fldiv@grs+2)& (0+255),b
 10916  004FE8  0E00               	movlw	0
 10917  004FEA  6F94               	movwf	(___fldiv@grs+3)& (0+255),b
 10918  004FEC                     
 10919                           ; BSR set to: 0
 10920  004FEC  0E00               	movlw	0
 10921  004FEE  6F96               	movwf	___fldiv@aexp& (0+255),b
 10922  004FF0  EF32  F028         	goto	l882
 10923  004FF4                     l4410:
 10924                           
 10925                           ; BSR set to: 0
 10926  004FF4  5196               	movf	___fldiv@aexp& (0+255),w,b
 10927  004FF6  B4D8               	btfsc	status,2,c
 10928  004FF8  EF00  F028         	goto	u5161
 10929  004FFC  EF02  F028         	goto	u5160
 10930  005000                     u5161:
 10931  005000  EF19  F028         	goto	l4418
 10932  005004                     u5160:
 10933  005004                     
 10934                           ; BSR set to: 0
 10935  005004  90D8               	bcf	status,0,c
 10936  005006  378A               	rlcf	___fldiv@rem& (0+255),f,b
 10937  005008  378B               	rlcf	(___fldiv@rem+1)& (0+255),f,b
 10938  00500A  378C               	rlcf	(___fldiv@rem+2)& (0+255),f,b
 10939  00500C  378D               	rlcf	(___fldiv@rem+3)& (0+255),f,b
 10940  00500E  90D8               	bcf	status,0,c
 10941  005010  377E               	rlcf	___fldiv@b& (0+255),f,b
 10942  005012  377F               	rlcf	(___fldiv@b+1)& (0+255),f,b
 10943  005014  3780               	rlcf	(___fldiv@b+2)& (0+255),f,b
 10944  005016  3781               	rlcf	(___fldiv@b+3)& (0+255),f,b
 10945  005018                     
 10946                           ; BSR set to: 0
 10947  005018  AF94               	btfss	(___fldiv@grs+3)& (0+255),7,b
 10948  00501A  EF11  F028         	goto	u5171
 10949  00501E  EF13  F028         	goto	u5170
 10950  005022                     u5171:
 10951  005022  EF14  F028         	goto	l885
 10952  005026                     u5170:
 10953  005026                     
 10954                           ; BSR set to: 0
 10955  005026  817E               	bsf	___fldiv@b& (0+255),0,b
 10956  005028                     l885:
 10957                           
 10958                           ; BSR set to: 0
 10959  005028  90D8               	bcf	status,0,c
 10960  00502A  3791               	rlcf	___fldiv@grs& (0+255),f,b
 10961  00502C  3792               	rlcf	(___fldiv@grs+1)& (0+255),f,b
 10962  00502E  3793               	rlcf	(___fldiv@grs+2)& (0+255),f,b
 10963  005030  3794               	rlcf	(___fldiv@grs+3)& (0+255),f,b
 10964  005032                     l4418:
 10965                           
 10966                           ; BSR set to: 0
 10967  005032  5182               	movf	___fldiv@a& (0+255),w,b
 10968  005034  5D8A               	subwf	___fldiv@rem& (0+255),w,b
 10969  005036  5183               	movf	(___fldiv@a+1)& (0+255),w,b
 10970  005038  598B               	subwfb	(___fldiv@rem+1)& (0+255),w,b
 10971  00503A  5184               	movf	(___fldiv@a+2)& (0+255),w,b
 10972  00503C  598C               	subwfb	(___fldiv@rem+2)& (0+255),w,b
 10973  00503E  5185               	movf	(___fldiv@a+3)& (0+255),w,b
 10974  005040  598D               	subwfb	(___fldiv@rem+3)& (0+255),w,b
 10975  005042  A0D8               	btfss	status,0,c
 10976  005044  EF26  F028         	goto	u5181
 10977  005048  EF28  F028         	goto	u5180
 10978  00504C                     u5181:
 10979  00504C  EF31  F028         	goto	l4424
 10980  005050                     u5180:
 10981  005050                     
 10982                           ; BSR set to: 0
 10983  005050  8D94               	bsf	(___fldiv@grs+3)& (0+255),6,b
 10984  005052                     
 10985                           ; BSR set to: 0
 10986  005052  5182               	movf	___fldiv@a& (0+255),w,b
 10987  005054  5F8A               	subwf	___fldiv@rem& (0+255),f,b
 10988  005056  5183               	movf	(___fldiv@a+1)& (0+255),w,b
 10989  005058  5B8B               	subwfb	(___fldiv@rem+1)& (0+255),f,b
 10990  00505A  5184               	movf	(___fldiv@a+2)& (0+255),w,b
 10991  00505C  5B8C               	subwfb	(___fldiv@rem+2)& (0+255),f,b
 10992  00505E  5185               	movf	(___fldiv@a+3)& (0+255),w,b
 10993  005060  5B8D               	subwfb	(___fldiv@rem+3)& (0+255),f,b
 10994  005062                     l4424:
 10995                           
 10996                           ; BSR set to: 0
 10997  005062  2B96               	incf	___fldiv@aexp& (0+255),f,b
 10998  005064                     l882:
 10999                           
 11000                           ; BSR set to: 0
 11001  005064  0E19               	movlw	25
 11002  005066  6596               	cpfsgt	___fldiv@aexp& (0+255),b
 11003  005068  EF38  F028         	goto	u5191
 11004  00506C  EF3A  F028         	goto	u5190
 11005  005070                     u5191:
 11006  005070  EFFA  F027         	goto	l4410
 11007  005074                     u5190:
 11008  005074                     
 11009                           ; BSR set to: 0
 11010  005074  518A               	movf	___fldiv@rem& (0+255),w,b
 11011  005076  118B               	iorwf	(___fldiv@rem+1)& (0+255),w,b
 11012  005078  118C               	iorwf	(___fldiv@rem+2)& (0+255),w,b
 11013  00507A  118D               	iorwf	(___fldiv@rem+3)& (0+255),w,b
 11014  00507C  B4D8               	btfsc	status,2,c
 11015  00507E  EF43  F028         	goto	u5201
 11016  005082  EF45  F028         	goto	u5200
 11017  005086                     u5201:
 11018  005086  EF5D  F028         	goto	l4436
 11019  00508A                     u5200:
 11020  00508A                     
 11021                           ; BSR set to: 0
 11022  00508A  8191               	bsf	___fldiv@grs& (0+255),0,b
 11023  00508C  EF5D  F028         	goto	l4436
 11024  005090                     l4430:
 11025                           
 11026                           ; BSR set to: 0
 11027  005090  90D8               	bcf	status,0,c
 11028  005092  377E               	rlcf	___fldiv@b& (0+255),f,b
 11029  005094  377F               	rlcf	(___fldiv@b+1)& (0+255),f,b
 11030  005096  3780               	rlcf	(___fldiv@b+2)& (0+255),f,b
 11031  005098  3781               	rlcf	(___fldiv@b+3)& (0+255),f,b
 11032  00509A                     
 11033                           ; BSR set to: 0
 11034  00509A  AF94               	btfss	(___fldiv@grs+3)& (0+255),7,b
 11035  00509C  EF52  F028         	goto	u5211
 11036  0050A0  EF54  F028         	goto	u5210
 11037  0050A4                     u5211:
 11038  0050A4  EF55  F028         	goto	l891
 11039  0050A8                     u5210:
 11040  0050A8                     
 11041                           ; BSR set to: 0
 11042  0050A8  817E               	bsf	___fldiv@b& (0+255),0,b
 11043  0050AA                     l891:
 11044                           
 11045                           ; BSR set to: 0
 11046  0050AA  90D8               	bcf	status,0,c
 11047  0050AC  3791               	rlcf	___fldiv@grs& (0+255),f,b
 11048  0050AE  3792               	rlcf	(___fldiv@grs+1)& (0+255),f,b
 11049  0050B0  3793               	rlcf	(___fldiv@grs+2)& (0+255),f,b
 11050  0050B2  3794               	rlcf	(___fldiv@grs+3)& (0+255),f,b
 11051  0050B4  078F               	decf	___fldiv@new_exp& (0+255),f,b
 11052  0050B6  A0D8               	btfss	status,0,c
 11053  0050B8  0790               	decf	(___fldiv@new_exp+1)& (0+255),f,b
 11054  0050BA                     l4436:
 11055                           
 11056                           ; BSR set to: 0
 11057  0050BA  AF80               	btfss	(___fldiv@b+2)& (0+255),7,b
 11058  0050BC  EF62  F028         	goto	u5221
 11059  0050C0  EF64  F028         	goto	u5220
 11060  0050C4                     u5221:
 11061  0050C4  EF48  F028         	goto	l4430
 11062  0050C8                     u5220:
 11063  0050C8                     
 11064                           ; BSR set to: 0
 11065  0050C8  0E00               	movlw	0
 11066  0050CA  6F96               	movwf	___fldiv@aexp& (0+255),b
 11067  0050CC                     
 11068                           ; BSR set to: 0
 11069  0050CC  AF94               	btfss	(___fldiv@grs+3)& (0+255),7,b
 11070  0050CE  EF6B  F028         	goto	u5231
 11071  0050D2  EF6D  F028         	goto	u5230
 11072  0050D6                     u5231:
 11073  0050D6  EF91  F028         	goto	l893
 11074  0050DA                     u5230:
 11075  0050DA                     
 11076                           ; BSR set to: 0
 11077  0050DA  0EFF               	movlw	255
 11078  0050DC  1591               	andwf	___fldiv@grs& (0+255),w,b
 11079  0050DE  6F86               	movwf	??___fldiv& (0+255),b
 11080  0050E0  0EFF               	movlw	255
 11081  0050E2  1592               	andwf	(___fldiv@grs+1)& (0+255),w,b
 11082  0050E4  6F87               	movwf	(??___fldiv+1)& (0+255),b
 11083  0050E6  0EFF               	movlw	255
 11084  0050E8  1593               	andwf	(___fldiv@grs+2)& (0+255),w,b
 11085  0050EA  6F88               	movwf	(??___fldiv+2)& (0+255),b
 11086  0050EC  0E7F               	movlw	127
 11087  0050EE  1594               	andwf	(___fldiv@grs+3)& (0+255),w,b
 11088  0050F0  6F89               	movwf	(??___fldiv+3)& (0+255),b
 11089  0050F2  5186               	movf	??___fldiv& (0+255),w,b
 11090  0050F4  1187               	iorwf	(??___fldiv+1)& (0+255),w,b
 11091  0050F6  1188               	iorwf	(??___fldiv+2)& (0+255),w,b
 11092  0050F8  1189               	iorwf	(??___fldiv+3)& (0+255),w,b
 11093  0050FA  B4D8               	btfsc	status,2,c
 11094  0050FC  EF82  F028         	goto	u5241
 11095  005100  EF84  F028         	goto	u5240
 11096  005104                     u5241:
 11097  005104  EF88  F028         	goto	l894
 11098  005108                     u5240:
 11099  005108                     l4444:
 11100                           
 11101                           ; BSR set to: 0
 11102  005108  0E01               	movlw	1
 11103  00510A  6F96               	movwf	___fldiv@aexp& (0+255),b
 11104  00510C  EF91  F028         	goto	l893
 11105  005110                     l894:
 11106                           
 11107                           ; BSR set to: 0
 11108  005110  A17E               	btfss	___fldiv@b& (0+255),0,b
 11109  005112  EF8D  F028         	goto	u5251
 11110  005116  EF8F  F028         	goto	u5250
 11111  00511A                     u5251:
 11112  00511A  EF91  F028         	goto	l893
 11113  00511E                     u5250:
 11114  00511E  EF84  F028         	goto	l4444
 11115  005122                     l893:
 11116                           
 11117                           ; BSR set to: 0
 11118  005122  5196               	movf	___fldiv@aexp& (0+255),w,b
 11119  005124  B4D8               	btfsc	status,2,c
 11120  005126  EF97  F028         	goto	u5261
 11121  00512A  EF99  F028         	goto	u5260
 11122  00512E                     u5261:
 11123  00512E  EFBD  F028         	goto	l4456
 11124  005132                     u5260:
 11125  005132                     
 11126                           ; BSR set to: 0
 11127  005132  0E01               	movlw	1
 11128  005134  277E               	addwf	___fldiv@b& (0+255),f,b
 11129  005136  0E00               	movlw	0
 11130  005138  237F               	addwfc	(___fldiv@b+1)& (0+255),f,b
 11131  00513A  2380               	addwfc	(___fldiv@b+2)& (0+255),f,b
 11132  00513C  2381               	addwfc	(___fldiv@b+3)& (0+255),f,b
 11133  00513E                     
 11134                           ; BSR set to: 0
 11135  00513E  A181               	btfss	(___fldiv@b+3)& (0+255),0,b
 11136  005140  EFA4  F028         	goto	u5271
 11137  005144  EFA6  F028         	goto	u5270
 11138  005148                     u5271:
 11139  005148  EFBD  F028         	goto	l4456
 11140  00514C                     u5270:
 11141  00514C                     
 11142                           ; BSR set to: 0
 11143  00514C  C07E  F086         	movff	___fldiv@b,??___fldiv
 11144  005150  C07F  F087         	movff	___fldiv@b+1,??___fldiv+1
 11145  005154  C080  F088         	movff	___fldiv@b+2,??___fldiv+2
 11146  005158  C081  F089         	movff	___fldiv@b+3,??___fldiv+3
 11147  00515C  3589               	rlcf	(??___fldiv+3)& (0+255),w,b
 11148  00515E  3389               	rrcf	(??___fldiv+3)& (0+255),f,b
 11149  005160  3388               	rrcf	(??___fldiv+2)& (0+255),f,b
 11150  005162  3387               	rrcf	(??___fldiv+1)& (0+255),f,b
 11151  005164  3386               	rrcf	??___fldiv& (0+255),f,b
 11152  005166  C086  F07E         	movff	??___fldiv,___fldiv@b
 11153  00516A  C087  F07F         	movff	??___fldiv+1,___fldiv@b+1
 11154  00516E  C088  F080         	movff	??___fldiv+2,___fldiv@b+2
 11155  005172  C089  F081         	movff	??___fldiv+3,___fldiv@b+3
 11156  005176                     
 11157                           ; BSR set to: 0
 11158  005176  4B8F               	infsnz	___fldiv@new_exp& (0+255),f,b
 11159  005178  2B90               	incf	(___fldiv@new_exp+1)& (0+255),f,b
 11160  00517A                     l4456:
 11161                           
 11162                           ; BSR set to: 0
 11163  00517A  BF90               	btfsc	(___fldiv@new_exp+1)& (0+255),7,b
 11164  00517C  EFC8  F028         	goto	u5281
 11165  005180  5190               	movf	(___fldiv@new_exp+1)& (0+255),w,b
 11166  005182  E108               	bnz	u5280
 11167  005184  298F               	incf	___fldiv@new_exp& (0+255),w,b
 11168  005186  A0D8               	btfss	status,0,c
 11169  005188  EFC8  F028         	goto	u5281
 11170  00518C  EFCA  F028         	goto	u5280
 11171  005190                     u5281:
 11172  005190  EFD5  F028         	goto	l4460
 11173  005194                     u5280:
 11174  005194                     
 11175                           ; BSR set to: 0
 11176  005194  0E00               	movlw	0
 11177  005196  6F90               	movwf	(___fldiv@new_exp+1)& (0+255),b
 11178  005198  698F               	setf	___fldiv@new_exp& (0+255),b
 11179  00519A  0E00               	movlw	0
 11180  00519C  6F7E               	movwf	___fldiv@b& (0+255),b
 11181  00519E  0E00               	movlw	0
 11182  0051A0  6F7F               	movwf	(___fldiv@b+1)& (0+255),b
 11183  0051A2  0E00               	movlw	0
 11184  0051A4  6F80               	movwf	(___fldiv@b+2)& (0+255),b
 11185  0051A6  0E00               	movlw	0
 11186  0051A8  6F81               	movwf	(___fldiv@b+3)& (0+255),b
 11187  0051AA                     l4460:
 11188                           
 11189                           ; BSR set to: 0
 11190  0051AA  BF90               	btfsc	(___fldiv@new_exp+1)& (0+255),7,b
 11191  0051AC  EFE2  F028         	goto	u5290
 11192  0051B0  5190               	movf	(___fldiv@new_exp+1)& (0+255),w,b
 11193  0051B2  E106               	bnz	u5291
 11194  0051B4  058F               	decf	___fldiv@new_exp& (0+255),w,b
 11195  0051B6  B0D8               	btfsc	status,0,c
 11196  0051B8  EFE0  F028         	goto	u5291
 11197  0051BC  EFE2  F028         	goto	u5290
 11198  0051C0                     u5291:
 11199  0051C0  EFF0  F028         	goto	l4464
 11200  0051C4                     u5290:
 11201  0051C4                     
 11202                           ; BSR set to: 0
 11203  0051C4  0E00               	movlw	0
 11204  0051C6  6F90               	movwf	(___fldiv@new_exp+1)& (0+255),b
 11205  0051C8  0E00               	movlw	0
 11206  0051CA  6F8F               	movwf	___fldiv@new_exp& (0+255),b
 11207  0051CC  0E00               	movlw	0
 11208  0051CE  6F7E               	movwf	___fldiv@b& (0+255),b
 11209  0051D0  0E00               	movlw	0
 11210  0051D2  6F7F               	movwf	(___fldiv@b+1)& (0+255),b
 11211  0051D4  0E00               	movlw	0
 11212  0051D6  6F80               	movwf	(___fldiv@b+2)& (0+255),b
 11213  0051D8  0E00               	movlw	0
 11214  0051DA  6F81               	movwf	(___fldiv@b+3)& (0+255),b
 11215  0051DC  0E00               	movlw	0
 11216  0051DE  6F8E               	movwf	___fldiv@sign& (0+255),b
 11217  0051E0                     l4464:
 11218                           
 11219                           ; BSR set to: 0
 11220  0051E0  C08F  F095         	movff	___fldiv@new_exp,___fldiv@bexp
 11221  0051E4                     
 11222                           ; BSR set to: 0
 11223  0051E4  A195               	btfss	___fldiv@bexp& (0+255),0,b
 11224  0051E6  EFF7  F028         	goto	u5301
 11225  0051EA  EFF9  F028         	goto	u5300
 11226  0051EE                     u5301:
 11227  0051EE  EFFC  F028         	goto	l4470
 11228  0051F2                     u5300:
 11229  0051F2                     
 11230                           ; BSR set to: 0
 11231  0051F2  8F80               	bsf	(___fldiv@b+2)& (0+255),7,b
 11232  0051F4  EFFD  F028         	goto	l4472
 11233  0051F8                     l4470:
 11234                           
 11235                           ; BSR set to: 0
 11236  0051F8  9F80               	bcf	(___fldiv@b+2)& (0+255),7,b
 11237  0051FA                     l4472:
 11238                           
 11239                           ; BSR set to: 0
 11240  0051FA  90D8               	bcf	status,0,c
 11241  0051FC  3195               	rrcf	___fldiv@bexp& (0+255),w,b
 11242  0051FE  6F81               	movwf	(___fldiv@b+3)& (0+255),b
 11243  005200  EFB3  F027         	goto	l4386
 11244  005204                     l880:
 11245                           
 11246                           ; BSR set to: 0
 11247  005204  0012               	return		;funcret
 11248  005206                     __end_of___fldiv:
 11249                           	opt callstack 0
 11250                           
 11251 ;; *************** function ___fltol *****************
 11252 ;; Defined at:
 11253 ;;		line 43 in file "/opt/microchip/xc8/v2.10/pic/sources/c99/common/fltol.c"
 11254 ;; Parameters:    Size  Location     Type
 11255 ;;  f1              4  108[BANK0 ] unsigned char 
 11256 ;; Auto vars:     Size  Location     Type
 11257 ;;  exp1            1  117[BANK0 ] unsigned char 
 11258 ;;  sign1           1  116[BANK0 ] unsigned char 
 11259 ;; Return value:  Size  Location     Type
 11260 ;;                  4  108[BANK0 ] long 
 11261 ;; Registers used:
 11262 ;;		wreg, status,2, status,0
 11263 ;; Tracked objects:
 11264 ;;		On entry : 0/0
 11265 ;;		On exit  : 0/0
 11266 ;;		Unchanged: 0/0
 11267 ;; Data sizes:     COMRAM   BANK0   BANK1   BANK2   BANK3   BANK4   BANK5   BANK6   BANK7   BANK8   BANK9  BANK10  BANK1
      +1  BANK12  BANK13  BANK14  BANK15
 11268 ;;      Params:         0       4       0       0       0       0       0       0       0       0       0       0       
      +0       0       0       0       0
 11269 ;;      Locals:         0       2       0       0       0       0       0       0       0       0       0       0       
      +0       0       0       0       0
 11270 ;;      Temps:          0       4       0       0       0       0       0       0       0       0       0       0       
      +0       0       0       0       0
 11271 ;;      Totals:         0      10       0       0       0       0       0       0       0       0       0       0       
      +0       0       0       0       0
 11272 ;;Total ram usage:       10 bytes
 11273 ;; Hardware stack levels used:    1
 11274 ;; Hardware stack levels required when called:    4
 11275 ;; This function calls:
 11276 ;;		Nothing
 11277 ;; This function is called by:
 11278 ;;		_calculate_init_tmr0
 11279 ;;		_calculate_init_tmr1
 11280 ;; This function uses a non-reentrant model
 11281 ;;
 11282                           
 11283                           	psect	text31
 11284  005F12                     __ptext31:
 11285                           	opt callstack 0
 11286  005F12                     ___fltol:
 11287                           	opt callstack 24
 11288  005F12  0100               	movlb	0	; () banked
 11289  005F14  35CE               	rlcf	(___fltol@f1+2)& (0+255),w,b
 11290  005F16  35CF               	rlcf	(___fltol@f1+3)& (0+255),w,b
 11291  005F18  6FD5               	movwf	___fltol@exp1& (0+255),b
 11292  005F1A  51D5               	movf	___fltol@exp1& (0+255),w,b
 11293  005F1C  A4D8               	btfss	status,2,c
 11294  005F1E  EF93  F02F         	goto	u6281
 11295  005F22  EF95  F02F         	goto	u6280
 11296  005F26                     u6281:
 11297  005F26  EF9F  F02F         	goto	l5176
 11298  005F2A                     u6280:
 11299  005F2A                     l5172:
 11300                           
 11301                           ; BSR set to: 0
 11302  005F2A  0E00               	movlw	0
 11303  005F2C  6FCC               	movwf	?___fltol& (0+255),b
 11304  005F2E  0E00               	movlw	0
 11305  005F30  6FCD               	movwf	(?___fltol+1)& (0+255),b
 11306  005F32  0E00               	movlw	0
 11307  005F34  6FCE               	movwf	(?___fltol+2)& (0+255),b
 11308  005F36  0E00               	movlw	0
 11309  005F38  6FCF               	movwf	(?___fltol+3)& (0+255),b
 11310  005F3A  EF0C  F030         	goto	l595
 11311  005F3E                     l5176:
 11312                           
 11313                           ; BSR set to: 0
 11314  005F3E  C0CC  F0D0         	movff	___fltol@f1,??___fltol
 11315  005F42  C0CD  F0D1         	movff	___fltol@f1+1,??___fltol+1
 11316  005F46  C0CE  F0D2         	movff	___fltol@f1+2,??___fltol+2
 11317  005F4A  C0CF  F0D3         	movff	___fltol@f1+3,??___fltol+3
 11318  005F4E  0E20               	movlw	32
 11319  005F50  EFAF  F02F         	goto	u6290
 11320  005F54                     u6295:
 11321  005F54  90D8               	bcf	status,0,c
 11322  005F56  33D3               	rrcf	(??___fltol+3)& (0+255),f,b
 11323  005F58  33D2               	rrcf	(??___fltol+2)& (0+255),f,b
 11324  005F5A  33D1               	rrcf	(??___fltol+1)& (0+255),f,b
 11325  005F5C  33D0               	rrcf	??___fltol& (0+255),f,b
 11326  005F5E                     u6290:
 11327  005F5E  2EE8               	decfsz	wreg,f,c
 11328  005F60  EFAA  F02F         	goto	u6295
 11329  005F64  51D0               	movf	??___fltol& (0+255),w,b
 11330  005F66  6FD4               	movwf	___fltol@sign1& (0+255),b
 11331  005F68                     
 11332                           ; BSR set to: 0
 11333  005F68  8FCE               	bsf	(___fltol@f1+2)& (0+255),7,b
 11334  005F6A                     
 11335                           ; BSR set to: 0
 11336  005F6A  0EFF               	movlw	255
 11337  005F6C  17CC               	andwf	___fltol@f1& (0+255),f,b
 11338  005F6E  0EFF               	movlw	255
 11339  005F70  17CD               	andwf	(___fltol@f1+1)& (0+255),f,b
 11340  005F72  0EFF               	movlw	255
 11341  005F74  17CE               	andwf	(___fltol@f1+2)& (0+255),f,b
 11342  005F76  0E00               	movlw	0
 11343  005F78  17CF               	andwf	(___fltol@f1+3)& (0+255),f,b
 11344  005F7A                     
 11345                           ; BSR set to: 0
 11346  005F7A  0E96               	movlw	150
 11347  005F7C  5FD5               	subwf	___fltol@exp1& (0+255),f,b
 11348  005F7E                     
 11349                           ; BSR set to: 0
 11350  005F7E  BFD5               	btfsc	___fltol@exp1& (0+255),7,b
 11351  005F80  EFC6  F02F         	goto	u6300
 11352  005F84  EFC4  F02F         	goto	u6301
 11353  005F88                     u6301:
 11354  005F88  EFDC  F02F         	goto	l5196
 11355  005F8C                     u6300:
 11356  005F8C                     
 11357                           ; BSR set to: 0
 11358  005F8C  51D5               	movf	___fltol@exp1& (0+255),w,b
 11359  005F8E  0A80               	xorlw	128
 11360  005F90  0F97               	addlw	151
 11361  005F92  B0D8               	btfsc	status,0,c
 11362  005F94  EFCE  F02F         	goto	u6311
 11363  005F98  EFD0  F02F         	goto	u6310
 11364  005F9C                     u6311:
 11365  005F9C  EFD2  F02F         	goto	l5192
 11366  005FA0                     u6310:
 11367  005FA0  EF95  F02F         	goto	l5172
 11368  005FA4                     l5192:
 11369                           
 11370                           ; BSR set to: 0
 11371  005FA4  90D8               	bcf	status,0,c
 11372  005FA6  33CF               	rrcf	(___fltol@f1+3)& (0+255),f,b
 11373  005FA8  33CE               	rrcf	(___fltol@f1+2)& (0+255),f,b
 11374  005FAA  33CD               	rrcf	(___fltol@f1+1)& (0+255),f,b
 11375  005FAC  33CC               	rrcf	___fltol@f1& (0+255),f,b
 11376  005FAE                     
 11377                           ; BSR set to: 0
 11378  005FAE  3FD5               	incfsz	___fltol@exp1& (0+255),f,b
 11379  005FB0  EFD2  F02F         	goto	l5192
 11380  005FB4  EFF4  F02F         	goto	l5206
 11381  005FB8                     l5196:
 11382                           
 11383                           ; BSR set to: 0
 11384  005FB8  0E1F               	movlw	31
 11385  005FBA  65D5               	cpfsgt	___fltol@exp1& (0+255),b
 11386  005FBC  EFE2  F02F         	goto	u6321
 11387  005FC0  EFE4  F02F         	goto	u6320
 11388  005FC4                     u6321:
 11389  005FC4  EFEC  F02F         	goto	l5204
 11390  005FC8                     u6320:
 11391  005FC8  EF95  F02F         	goto	l5172
 11392  005FCC                     l5202:
 11393                           
 11394                           ; BSR set to: 0
 11395  005FCC  90D8               	bcf	status,0,c
 11396  005FCE  37CC               	rlcf	___fltol@f1& (0+255),f,b
 11397  005FD0  37CD               	rlcf	(___fltol@f1+1)& (0+255),f,b
 11398  005FD2  37CE               	rlcf	(___fltol@f1+2)& (0+255),f,b
 11399  005FD4  37CF               	rlcf	(___fltol@f1+3)& (0+255),f,b
 11400  005FD6  07D5               	decf	___fltol@exp1& (0+255),f,b
 11401  005FD8                     l5204:
 11402                           
 11403                           ; BSR set to: 0
 11404  005FD8  51D5               	movf	___fltol@exp1& (0+255),w,b
 11405  005FDA  A4D8               	btfss	status,2,c
 11406  005FDC  EFF2  F02F         	goto	u6331
 11407  005FE0  EFF4  F02F         	goto	u6330
 11408  005FE4                     u6331:
 11409  005FE4  EFE6  F02F         	goto	l5202
 11410  005FE8                     u6330:
 11411  005FE8                     l5206:
 11412                           
 11413                           ; BSR set to: 0
 11414  005FE8  51D4               	movf	___fltol@sign1& (0+255),w,b
 11415  005FEA  B4D8               	btfsc	status,2,c
 11416  005FEC  EFFA  F02F         	goto	u6341
 11417  005FF0  EFFC  F02F         	goto	u6340
 11418  005FF4                     u6341:
 11419  005FF4  EF04  F030         	goto	l5210
 11420  005FF8                     u6340:
 11421  005FF8                     
 11422                           ; BSR set to: 0
 11423  005FF8  1FCF               	comf	(___fltol@f1+3)& (0+255),f,b
 11424  005FFA  1FCE               	comf	(___fltol@f1+2)& (0+255),f,b
 11425  005FFC  1FCD               	comf	(___fltol@f1+1)& (0+255),f,b
 11426  005FFE  6DCC               	negf	___fltol@f1& (0+255),b
 11427  006000  0E00               	movlw	0
 11428  006002  23CD               	addwfc	(___fltol@f1+1)& (0+255),f,b
 11429  006004  23CE               	addwfc	(___fltol@f1+2)& (0+255),f,b
 11430  006006  23CF               	addwfc	(___fltol@f1+3)& (0+255),f,b
 11431  006008                     l5210:
 11432                           
 11433                           ; BSR set to: 0
 11434  006008  C0CC  F0CC         	movff	___fltol@f1,?___fltol
 11435  00600C  C0CD  F0CD         	movff	___fltol@f1+1,?___fltol+1
 11436  006010  C0CE  F0CE         	movff	___fltol@f1+2,?___fltol+2
 11437  006014  C0CF  F0CF         	movff	___fltol@f1+3,?___fltol+3
 11438  006018                     l595:
 11439                           
 11440                           ; BSR set to: 0
 11441  006018  0012               	return		;funcret
 11442  00601A                     __end_of___fltol:
 11443                           	opt callstack 0
 11444                           
 11445 ;; *************** function _ISR *****************
 11446 ;; Defined at:
 11447 ;;		line 5 in file "Interrupt.c"
 11448 ;; Parameters:    Size  Location     Type
 11449 ;;		None
 11450 ;; Auto vars:     Size  Location     Type
 11451 ;;		None
 11452 ;; Return value:  Size  Location     Type
 11453 ;;                  1    wreg      void 
 11454 ;; Registers used:
 11455 ;;		wreg, fsr2l, fsr2h, status,2, status,0, prodl, prodh, cstack
 11456 ;; Tracked objects:
 11457 ;;		On entry : 0/0
 11458 ;;		On exit  : 0/0
 11459 ;;		Unchanged: 0/0
 11460 ;; Data sizes:     COMRAM   BANK0   BANK1   BANK2   BANK3   BANK4   BANK5   BANK6   BANK7   BANK8   BANK9  BANK10  BANK1
      +1  BANK12  BANK13  BANK14  BANK15
 11461 ;;      Params:         0       0       0       0       0       0       0       0       0       0       0       0       
      +0       0       0       0       0
 11462 ;;      Locals:         0       0       0       0       0       0       0       0       0       0       0       0       
      +0       0       0       0       0
 11463 ;;      Temps:          4       0       0       0       0       0       0       0       0       0       0       0       
      +0       0       0       0       0
 11464 ;;      Totals:         4       0       0       0       0       0       0       0       0       0       0       0       
      +0       0       0       0       0
 11465 ;;Total ram usage:        4 bytes
 11466 ;; Hardware stack levels used:    1
 11467 ;; Hardware stack levels required when called:    3
 11468 ;; This function calls:
 11469 ;;		_timer_ISR
 11470 ;; This function is called by:
 11471 ;;		Interrupt level 2
 11472 ;; This function uses a non-reentrant model
 11473 ;;
 11474                           
 11475                           	psect	intcode
 11476  000008                     __pintcode:
 11477                           	opt callstack 0
 11478  000008                     _ISR:
 11479                           	opt callstack 22
 11480                           
 11481                           ; BSR set to: 0
 11482                           ;incstack = 0
 11483  000008  824A               	bsf	int$flags,1,c	;set compiler interrupt flag (level 2)
 11484  00000A  ED02  F031         	call	int_func,f	;refresh shadow registers
 11485                           
 11486                           	psect	intcode_body
 11487  006204                     __pintcode_body:
 11488                           	opt callstack 22
 11489  006204                     int_func:
 11490                           	opt callstack 22
 11491  006204  0006               	pop		; remove dummy address from shadow register refresh
 11492  006206  CFD9 F011          	movff	fsr2l,??_ISR
 11493  00620A  CFDA F012          	movff	fsr2h,??_ISR+1
 11494  00620E  CFF3 F013          	movff	prodl,??_ISR+2
 11495  006212  CFF4 F014          	movff	prodh,??_ISR+3
 11496  006216                     
 11497                           ;Interrupt.c: 6:     if (INTCONbits.TMR0IE && INTCONbits.TMR0IF) {
 11498  006216  AAF2               	btfss	242,5,c	;volatile
 11499  006218  EF10  F031         	goto	i2u441_41
 11500  00621C  EF12  F031         	goto	i2u441_40
 11501  006220                     i2u441_41:
 11502  006220  EF20  F031         	goto	i2l3964
 11503  006224                     i2u441_40:
 11504  006224  A4F2               	btfss	242,2,c	;volatile
 11505  006226  EF17  F031         	goto	i2u442_41
 11506  00622A  EF19  F031         	goto	i2u442_40
 11507  00622E                     i2u442_41:
 11508  00622E  EF20  F031         	goto	i2l3964
 11509  006232                     i2u442_40:
 11510  006232                     
 11511                           ;Interrupt.c: 7:         timer_ISR();
 11512  006232  EC5A  F032         	call	_timer_ISR	;wreg free
 11513  006236                     
 11514                           ;Interrupt.c: 8:         INTCONbits.TMR0IF = 0;
 11515  006236  94F2               	bcf	242,2,c	;volatile
 11516  006238                     
 11517                           ;Interrupt.c: 9:         TMR0 = timer0Counter;
 11518  006238  C046  FFD6         	movff	_timer0Counter,4054	;volatile
 11519  00623C  C047  FFD7         	movff	_timer0Counter+1,4055	;volatile
 11520  006240                     i2l3964:
 11521                           
 11522                           ;Interrupt.c: 17:     if (PIE1bits.TMR1IE && PIR1bits.TMR1IF) {
 11523  006240  A09D               	btfss	157,0,c	;volatile
 11524  006242  EF25  F031         	goto	i2u443_41
 11525  006246  EF27  F031         	goto	i2u443_40
 11526  00624A                     i2u443_41:
 11527  00624A  EF35  F031         	goto	i2l211
 11528  00624E                     i2u443_40:
 11529  00624E  A09E               	btfss	158,0,c	;volatile
 11530  006250  EF2C  F031         	goto	i2u444_41
 11531  006254  EF2E  F031         	goto	i2u444_40
 11532  006258                     i2u444_41:
 11533  006258  EF35  F031         	goto	i2l211
 11534  00625C                     i2u444_40:
 11535  00625C                     
 11536                           ;Interrupt.c: 18:         PIR1bits.TMR1IF = 0;
 11537  00625C  909E               	bcf	158,0,c	;volatile
 11538                           
 11539                           ;Interrupt.c: 19:         TMR1 = timer1Counter;
 11540  00625E  C0F1  FFCE         	movff	_timer1Counter,4046	;volatile
 11541  006262  C0F2  FFCF         	movff	_timer1Counter+1,4047	;volatile
 11542  006266                     
 11543                           ;Interrupt.c: 20:         current_time++;
 11544  006266  4A44               	infsnz	_current_time^0,f,c
 11545  006268  2A45               	incf	(_current_time+1)^0,f,c
 11546  00626A                     i2l211:
 11547  00626A  C014  FFF4         	movff	??_ISR+3,prodh
 11548  00626E  C013  FFF3         	movff	??_ISR+2,prodl
 11549  006272  C012  FFDA         	movff	??_ISR+1,fsr2h
 11550  006276  C011  FFD9         	movff	??_ISR,fsr2l
 11551  00627A  924A               	bcf	int$flags,1,c	;clear compiler interrupt flag (level 2)
 11552  00627C  0011               	retfie		f
 11553  00627E                     __end_of_ISR:
 11554                           	opt callstack 0
 11555                           
 11556 ;; *************** function _timer_ISR *****************
 11557 ;; Defined at:
 11558 ;;		line 29 in file "Driver.c"
 11559 ;; Parameters:    Size  Location     Type
 11560 ;;		None
 11561 ;; Auto vars:     Size  Location     Type
 11562 ;;		None
 11563 ;; Return value:  Size  Location     Type
 11564 ;;                  1    wreg      void 
 11565 ;; Registers used:
 11566 ;;		wreg, fsr2l, fsr2h, status,2, status,0, prodl, prodh, cstack
 11567 ;; Tracked objects:
 11568 ;;		On entry : 0/0
 11569 ;;		On exit  : 0/0
 11570 ;;		Unchanged: 0/0
 11571 ;; Data sizes:     COMRAM   BANK0   BANK1   BANK2   BANK3   BANK4   BANK5   BANK6   BANK7   BANK8   BANK9  BANK10  BANK1
      +1  BANK12  BANK13  BANK14  BANK15
 11572 ;;      Params:         0       0       0       0       0       0       0       0       0       0       0       0       
      +0       0       0       0       0
 11573 ;;      Locals:         0       0       0       0       0       0       0       0       0       0       0       0       
      +0       0       0       0       0
 11574 ;;      Temps:          0       0       0       0       0       0       0       0       0       0       0       0       
      +0       0       0       0       0
 11575 ;;      Totals:         0       0       0       0       0       0       0       0       0       0       0       0       
      +0       0       0       0       0
 11576 ;;Total ram usage:        0 bytes
 11577 ;; Hardware stack levels used:    1
 11578 ;; Hardware stack levels required when called:    2
 11579 ;; This function calls:
 11580 ;;		_Sched_Update
 11581 ;; This function is called by:
 11582 ;;		_ISR
 11583 ;; This function uses a non-reentrant model
 11584 ;;
 11585                           
 11586                           	psect	text33
 11587  0064B4                     __ptext33:
 11588                           	opt callstack 0
 11589  0064B4                     _timer_ISR:
 11590                           	opt callstack 22
 11591  0064B4                     
 11592                           ;Driver.c: 30:     Sched_Update();
 11593  0064B4  EC90  F030         	call	_Sched_Update	;wreg free
 11594  0064B8  0012               	return		;funcret
 11595  0064BA                     __end_of_timer_ISR:
 11596                           	opt callstack 0
 11597                           
 11598 ;; *************** function _Sched_Update *****************
 11599 ;; Defined at:
 11600 ;;		line 93 in file "Linked_List.c"
 11601 ;; Parameters:    Size  Location     Type
 11602 ;;		None
 11603 ;; Auto vars:     Size  Location     Type
 11604 ;;  temp            2   14[COMRAM] int 
 11605 ;; Return value:  Size  Location     Type
 11606 ;;                  1    wreg      void 
 11607 ;; Registers used:
 11608 ;;		wreg, fsr2l, fsr2h, status,2, status,0, prodl, prodh, cstack
 11609 ;; Tracked objects:
 11610 ;;		On entry : 0/0
 11611 ;;		On exit  : 0/0
 11612 ;;		Unchanged: 0/0
 11613 ;; Data sizes:     COMRAM   BANK0   BANK1   BANK2   BANK3   BANK4   BANK5   BANK6   BANK7   BANK8   BANK9  BANK10  BANK1
      +1  BANK12  BANK13  BANK14  BANK15
 11614 ;;      Params:         0       0       0       0       0       0       0       0       0       0       0       0       
      +0       0       0       0       0
 11615 ;;      Locals:         2       0       0       0       0       0       0       0       0       0       0       0       
      +0       0       0       0       0
 11616 ;;      Temps:          8       0       0       0       0       0       0       0       0       0       0       0       
      +0       0       0       0       0
 11617 ;;      Totals:        10       0       0       0       0       0       0       0       0       0       0       0       
      +0       0       0       0       0
 11618 ;;Total ram usage:       10 bytes
 11619 ;; Hardware stack levels used:    1
 11620 ;; Hardware stack levels required when called:    1
 11621 ;; This function calls:
 11622 ;;		i2___wmul
 11623 ;; This function is called by:
 11624 ;;		_timer_ISR
 11625 ;; This function uses a non-reentrant model
 11626 ;;
 11627                           
 11628                           	psect	text34
 11629  006120                     __ptext34:
 11630                           	opt callstack 0
 11631  006120                     _Sched_Update:
 11632                           	opt callstack 22
 11633  006120                     
 11634                           ;Linked_List.c: 94:     if (size == 0) {
 11635  006120  503E               	movf	_size^0,w,c
 11636  006122  103F               	iorwf	(_size+1)^0,w,c
 11637  006124  A4D8               	btfss	status,2,c
 11638  006126  EF97  F030         	goto	i2u423_41
 11639  00612A  EF99  F030         	goto	i2u423_40
 11640  00612E                     i2u423_41:
 11641  00612E  EF9B  F030         	goto	i2l107
 11642  006132                     i2u423_40:
 11643  006132  EF01  F031         	goto	i2l108
 11644  006136                     i2l107:
 11645                           
 11646                           ;Linked_List.c: 98:     int temp = list_head;
 11647  006136  C040  F00F         	movff	_list_head,Sched_Update@temp
 11648  00613A  C041  F010         	movff	_list_head+1,Sched_Update@temp+1
 11649                           
 11650                           ;Linked_List.c: 99:     while (arr_task[temp].delay <= 0) {
 11651  00613E  EFC9  F030         	goto	i2l109
 11652  006142                     i2l3888:
 11653                           
 11654                           ;Linked_List.c: 100:         arr_task[temp].run_flag = 1;
 11655  006142  C00F  F001         	movff	Sched_Update@temp,i2___wmul@multiplier
 11656  006146  C010  F002         	movff	Sched_Update@temp+1,i2___wmul@multiplier+1
 11657  00614A  0E00               	movlw	0
 11658  00614C  6E04               	movwf	(i2___wmul@multiplicand+1)^0,c
 11659  00614E  0E19               	movlw	25
 11660  006150  6E03               	movwf	i2___wmul@multiplicand^0,c
 11661  006152  ECFB  F031         	call	i2___wmul	;wreg free
 11662  006156  0EDC               	movlw	low (_arr_task+16)
 11663  006158  2401               	addwf	?i2___wmul^0,w,c
 11664  00615A  6ED9               	movwf	fsr2l,c
 11665  00615C  0E01               	movlw	high (_arr_task+16)
 11666  00615E  2002               	addwfc	(?i2___wmul+1)^0,w,c
 11667  006160  6EDA               	movwf	fsr2h,c
 11668  006162  0E01               	movlw	1
 11669  006164  6EDE               	movwf	postinc2,c
 11670  006166  0E00               	movlw	0
 11671  006168  6EDD               	movwf	postdec2,c
 11672                           
 11673                           ;Linked_List.c: 101:         temp = arr_task[temp].next;
 11674  00616A  C00F  F001         	movff	Sched_Update@temp,i2___wmul@multiplier
 11675  00616E  C010  F002         	movff	Sched_Update@temp+1,i2___wmul@multiplier+1
 11676  006172  0E00               	movlw	0
 11677  006174  6E04               	movwf	(i2___wmul@multiplicand+1)^0,c
 11678  006176  0E19               	movlw	25
 11679  006178  6E03               	movwf	i2___wmul@multiplicand^0,c
 11680  00617A  ECFB  F031         	call	i2___wmul	;wreg free
 11681  00617E  0EE1               	movlw	low (_arr_task+21)
 11682  006180  2401               	addwf	?i2___wmul^0,w,c
 11683  006182  6ED9               	movwf	fsr2l,c
 11684  006184  0E01               	movlw	high (_arr_task+21)
 11685  006186  2002               	addwfc	(?i2___wmul+1)^0,w,c
 11686  006188  6EDA               	movwf	fsr2h,c
 11687  00618A  CFDE F00F          	movff	postinc2,Sched_Update@temp
 11688  00618E  CFDD F010          	movff	postdec2,Sched_Update@temp+1
 11689  006192                     i2l109:
 11690                           
 11691                           ;Linked_List.c: 99:     while (arr_task[temp].delay <= 0) {
 11692  006192  C00F  F001         	movff	Sched_Update@temp,i2___wmul@multiplier
 11693  006196  C010  F002         	movff	Sched_Update@temp+1,i2___wmul@multiplier+1
 11694  00619A  0E00               	movlw	0
 11695  00619C  6E04               	movwf	(i2___wmul@multiplicand+1)^0,c
 11696  00619E  0E19               	movlw	25
 11697  0061A0  6E03               	movwf	i2___wmul@multiplicand^0,c
 11698  0061A2  ECFB  F031         	call	i2___wmul	;wreg free
 11699  0061A6  0ED4               	movlw	low (_arr_task+8)
 11700  0061A8  2401               	addwf	?i2___wmul^0,w,c
 11701  0061AA  6ED9               	movwf	fsr2l,c
 11702  0061AC  0E01               	movlw	high (_arr_task+8)
 11703  0061AE  2002               	addwfc	(?i2___wmul+1)^0,w,c
 11704  0061B0  6EDA               	movwf	fsr2h,c
 11705  0061B2  50DE               	movf	postinc2,w,c
 11706  0061B4  10DE               	iorwf	postinc2,w,c
 11707  0061B6  10DE               	iorwf	postinc2,w,c
 11708  0061B8  10DE               	iorwf	postinc2,w,c
 11709  0061BA  10DE               	iorwf	postinc2,w,c
 11710  0061BC  10DE               	iorwf	postinc2,w,c
 11711  0061BE  10DE               	iorwf	postinc2,w,c
 11712  0061C0  10DE               	iorwf	postinc2,w,c
 11713  0061C2  B4D8               	btfsc	status,2,c
 11714  0061C4  EFE6  F030         	goto	i2u424_41
 11715  0061C8  EFE8  F030         	goto	i2u424_40
 11716  0061CC                     i2u424_41:
 11717  0061CC  EFA1  F030         	goto	i2l3888
 11718  0061D0                     i2u424_40:
 11719  0061D0                     
 11720                           ;Linked_List.c: 104:     arr_task[list_head].delay--;
 11721  0061D0  C040  F001         	movff	_list_head,i2___wmul@multiplier
 11722  0061D4  C041  F002         	movff	_list_head+1,i2___wmul@multiplier+1
 11723  0061D8  0E00               	movlw	0
 11724  0061DA  6E04               	movwf	(i2___wmul@multiplicand+1)^0,c
 11725  0061DC  0E19               	movlw	25
 11726  0061DE  6E03               	movwf	i2___wmul@multiplicand^0,c
 11727  0061E0  ECFB  F031         	call	i2___wmul	;wreg free
 11728  0061E4  0ED4               	movlw	low (_arr_task+8)
 11729  0061E6  2401               	addwf	?i2___wmul^0,w,c
 11730  0061E8  6ED9               	movwf	fsr2l,c
 11731  0061EA  0E01               	movlw	high (_arr_task+8)
 11732  0061EC  2002               	addwfc	(?i2___wmul+1)^0,w,c
 11733  0061EE  6EDA               	movwf	fsr2h,c
 11734  0061F0  06DE               	decf	postinc2,f,c
 11735  0061F2  0E00               	movlw	0
 11736  0061F4  5ADE               	subwfb	postinc2,f,c
 11737  0061F6  5ADE               	subwfb	postinc2,f,c
 11738  0061F8  5ADE               	subwfb	postinc2,f,c
 11739  0061FA  5ADE               	subwfb	postinc2,f,c
 11740  0061FC  5ADE               	subwfb	postinc2,f,c
 11741  0061FE  5ADE               	subwfb	postinc2,f,c
 11742  006200  5ADE               	subwfb	postinc2,f,c
 11743  006202                     i2l108:
 11744  006202  0012               	return		;funcret
 11745  006204                     __end_of_Sched_Update:
 11746                           	opt callstack 0
 11747                           
 11748 ;; *************** function i2___wmul *****************
 11749 ;; Defined at:
 11750 ;;		line 15 in file "/opt/microchip/xc8/v2.10/pic/sources/c99/common/Umul16.c"
 11751 ;; Parameters:    Size  Location     Type
 11752 ;;  multiplier      2    0[COMRAM] unsigned int 
 11753 ;;  multiplicand    2    2[COMRAM] unsigned int 
 11754 ;; Auto vars:     Size  Location     Type
 11755 ;;  __wmul          2    4[COMRAM] unsigned int 
 11756 ;; Return value:  Size  Location     Type
 11757 ;;                  2    0[COMRAM] unsigned int 
 11758 ;; Registers used:
 11759 ;;		wreg, status,2, status,0, prodl, prodh
 11760 ;; Tracked objects:
 11761 ;;		On entry : 0/0
 11762 ;;		On exit  : 0/0
 11763 ;;		Unchanged: 0/0
 11764 ;; Data sizes:     COMRAM   BANK0   BANK1   BANK2   BANK3   BANK4   BANK5   BANK6   BANK7   BANK8   BANK9  BANK10  BANK1
      +1  BANK12  BANK13  BANK14  BANK15
 11765 ;;      Params:         4       0       0       0       0       0       0       0       0       0       0       0       
      +0       0       0       0       0
 11766 ;;      Locals:         2       0       0       0       0       0       0       0       0       0       0       0       
      +0       0       0       0       0
 11767 ;;      Temps:          0       0       0       0       0       0       0       0       0       0       0       0       
      +0       0       0       0       0
 11768 ;;      Totals:         6       0       0       0       0       0       0       0       0       0       0       0       
      +0       0       0       0       0
 11769 ;;Total ram usage:        6 bytes
 11770 ;; Hardware stack levels used:    1
 11771 ;; This function calls:
 11772 ;;		Nothing
 11773 ;; This function is called by:
 11774 ;;		_Sched_Update
 11775 ;; This function uses a non-reentrant model
 11776 ;;
 11777                           
 11778                           	psect	text35
 11779  0063F6                     __ptext35:
 11780                           	opt callstack 0
 11781  0063F6                     i2___wmul:
 11782                           	opt callstack 22
 11783  0063F6  5001               	movf	i2___wmul@multiplier^0,w,c
 11784  0063F8  0203               	mulwf	i2___wmul@multiplicand^0,c
 11785  0063FA  CFF3 F005          	movff	prodl,i2___wmul@product
 11786  0063FE  CFF4 F006          	movff	prodh,i2___wmul@product+1
 11787  006402  5001               	movf	i2___wmul@multiplier^0,w,c
 11788  006404  0204               	mulwf	(i2___wmul@multiplicand+1)^0,c
 11789  006406  50F3               	movf	243,w,c
 11790  006408  2606               	addwf	(i2___wmul@product+1)^0,f,c
 11791  00640A  5002               	movf	(i2___wmul@multiplier+1)^0,w,c
 11792  00640C  0203               	mulwf	i2___wmul@multiplicand^0,c
 11793  00640E  50F3               	movf	243,w,c
 11794  006410  2606               	addwf	(i2___wmul@product+1)^0,f,c
 11795  006412  C005  F001         	movff	i2___wmul@product,?i2___wmul
 11796  006416  C006  F002         	movff	i2___wmul@product+1,?i2___wmul+1
 11797  00641A  0012               	return		;funcret
 11798  00641C                     __end_ofi2___wmul:
 11799                           	opt callstack 0
 11800                           
 11801                           	psect	text36
 11802  000000                     __ptext36:
 11803                           	opt callstack 0
 11804  000000                     
 11805                           	psect	rparam
 11806  0000                     
 11807                           	psect	temp
 11808  00004A                     btemp:
 11809                           	opt callstack 0
 11810  00004A                     	ds	1
 11811  0000                     int$flags	set	btemp
 11812  0000                     wtemp8	set	btemp+1
 11813  0000                     ttemp5	set	btemp+1
 11814  0000                     ttemp6	set	btemp+4
 11815  0000                     ttemp7	set	btemp+8
 11816                           tosu	equ	0xFFF
 11817                           tosh	equ	0xFFE
 11818                           tosl	equ	0xFFD
 11819                           stkptr	equ	0xFFC
 11820                           pclatu	equ	0xFFB
 11821                           pclath	equ	0xFFA
 11822                           pcl	equ	0xFF9
 11823                           tblptru	equ	0xFF8
 11824                           tblptrh	equ	0xFF7
 11825                           tblptrl	equ	0xFF6
 11826                           tablat	equ	0xFF5
 11827                           prodh	equ	0xFF4
 11828                           prodl	equ	0xFF3
 11829                           indf0	equ	0xFEF
 11830                           postinc0	equ	0xFEE
 11831                           postdec0	equ	0xFED
 11832                           preinc0	equ	0xFEC
 11833                           plusw0	equ	0xFEB
 11834                           fsr0h	equ	0xFEA
 11835                           fsr0l	equ	0xFE9
 11836                           wreg	equ	0xFE8
 11837                           indf1	equ	0xFE7
 11838                           postinc1	equ	0xFE6
 11839                           postdec1	equ	0xFE5
 11840                           preinc1	equ	0xFE4
 11841                           plusw1	equ	0xFE3
 11842                           fsr1h	equ	0xFE2
 11843                           fsr1l	equ	0xFE1
 11844                           bsr	equ	0xFE0
 11845                           indf2	equ	0xFDF
 11846                           postinc2	equ	0xFDE
 11847                           postdec2	equ	0xFDD
 11848                           preinc2	equ	0xFDC
 11849                           plusw2	equ	0xFDB
 11850                           fsr2h	equ	0xFDA
 11851                           fsr2l	equ	0xFD9
 11852                           status	equ	0xFD8


Data Sizes:
    Strings     1
    Constant    124
    Data        0
    BSS         541
    Persistent  6
    Stack       0

Auto Spaces:
    Space          Size  Autos    Used
    COMRAM           94     55      73
    BANK0           160    118     147
    BANK1           256    204     204
    BANK2           256      0       0
    BANK3           256      0       0
    BANK4           256      0       0
    BANK5           256      0       0
    BANK6           256      0       0
    BANK7           256      0       0
    BANK8           256      0       0
    BANK9           256      0       0
    BANK10          256      0       0
    BANK11          256      0       0
    BANK12          256      0       0
    BANK13          256      0       0
    BANK14          256      0       0
    BANK15           96      0       0

Pointer List with Targets:

    nanf@s	PTR const unsigned char  size(2) Largest target is 1
		 -> STR_1(CODE[1]), 

    add_task@data	PTR void  size(2) Largest target is 0
		 -> NULL(NULL[0]), 

    add_task@callback	PTR FTN()void  size(3) Largest target is 1
		 -> toggle_LED_4(), toggle_LED_2(), NULL(NULL[0]), toggle_LED_0(), 

    arr_task.data	PTR void  size(2) Largest target is 0
		 -> NULL(NULL[0]), 

    arr_task.pTask	PTR FTN()void  size(3) Largest target is 1
		 -> toggle_LED_4(), toggle_LED_2(), NULL(NULL[0]), toggle_LED_0(), 

    S25$data	PTR void  size(2) Largest target is 0
		 -> NULL(NULL[0]), 

    tempNode.data	PTR void  size(2) Largest target is 0
		 -> NULL(NULL[0]), 

    S25$pTask	PTR FTN()void  size(3) Largest target is 1
		 -> toggle_LED_4(), toggle_LED_2(), NULL(NULL[0]), toggle_LED_0(), 

    tempNode.pTask	PTR FTN()void  size(3) Largest target is 1
		 -> toggle_LED_4(), toggle_LED_2(), NULL(NULL[0]), toggle_LED_0(), 


Critical Paths under _main in COMRAM

    _dispatch_task->_add_task
    _remove_task->___wmul
    _init_task->_add_task
    _add_task->___wmul
    _init_arr_task->___wmul
    _powf->_scalbnf
    _scalbnf->___flmul
    ___xxtofl->___flmul
    ___flsub->___xxtofl
    ___fladd->___xxtofl

Critical Paths under _ISR in COMRAM

    _timer_ISR->_Sched_Update
    _Sched_Update->i2___wmul

Critical Paths under _main in BANK0

    _dispatch_task->_add_task
    _init_task->_add_task
    _calculate_init_tmr1->___fltol
    _calculate_init_tmr0->___fltol
    _powf->_sqrtf
    _sqrtf->___flge
    ___flge->___flsub
    ___flsub->___fladd
    ___fladd->___xxtofl
    ___fldiv->___flsub
    ___fltol->_powf

Critical Paths under _ISR in BANK0

    None.

Critical Paths under _main in BANK1

    _System_init->_calculate_init_tmr0
    _System_init->_calculate_init_tmr1
    _calculate_init_tmr1->_powf
    _calculate_init_tmr0->_powf
    ___fltol->_powf

Critical Paths under _ISR in BANK1

    None.

Critical Paths under _main in BANK2

    None.

Critical Paths under _ISR in BANK2

    None.

Critical Paths under _main in BANK3

    None.

Critical Paths under _ISR in BANK3

    None.

Critical Paths under _main in BANK4

    None.

Critical Paths under _ISR in BANK4

    None.

Critical Paths under _main in BANK5

    None.

Critical Paths under _ISR in BANK5

    None.

Critical Paths under _main in BANK6

    None.

Critical Paths under _ISR in BANK6

    None.

Critical Paths under _main in BANK7

    None.

Critical Paths under _ISR in BANK7

    None.

Critical Paths under _main in BANK8

    None.

Critical Paths under _ISR in BANK8

    None.

Critical Paths under _main in BANK9

    None.

Critical Paths under _ISR in BANK9

    None.

Critical Paths under _main in BANK10

    None.

Critical Paths under _ISR in BANK10

    None.

Critical Paths under _main in BANK11

    None.

Critical Paths under _ISR in BANK11

    None.

Critical Paths under _main in BANK12

    None.

Critical Paths under _ISR in BANK12

    None.

Critical Paths under _main in BANK13

    None.

Critical Paths under _ISR in BANK13

    None.

Critical Paths under _main in BANK14

    None.

Critical Paths under _ISR in BANK14

    None.

Critical Paths under _main in BANK15

    None.

Critical Paths under _ISR in BANK15

    None.

Call Graph Tables:

 ---------------------------------------------------------------------------------
 (Depth) Function   	        Calls       Base Space   Used Autos Params    Refs
 ---------------------------------------------------------------------------------
 (0) _main                                                 0     0      0  327413
                        _System_init
                      _dispatch_task
 ---------------------------------------------------------------------------------
 (1) _dispatch_task                                        2     2      0   31868
                                             10 BANK0      2     2      0
                             ___wmul
                           _add_task
                        _remove_task
                       _toggle_LED_0 *
                       _toggle_LED_2 *
                       _toggle_LED_4 *
 ---------------------------------------------------------------------------------
 (2) _toggle_LED_4                                         0     0      0       0
 ---------------------------------------------------------------------------------
 (2) _toggle_LED_2                                         0     0      0       0
 ---------------------------------------------------------------------------------
 (2) _toggle_LED_0                                         0     0      0       0
 ---------------------------------------------------------------------------------
 (2) _remove_task                                         16    12      4   10192
                                             26 COMRAM    16    12      4
                             ___wmul
 ---------------------------------------------------------------------------------
 (1) _System_init                                          0     0      0  295545
                _calculate_init_tmr0
                _calculate_init_tmr1
                           _init_LED
                      _init_arr_task
                          _init_task
                     _interrupt_init
                           _osc_init
                        _start_timer
 ---------------------------------------------------------------------------------
 (2) _start_timer                                          2     0      2     196
                                             20 COMRAM     2     0      2
                          _tmr0_init
                          _tmr1_init
 ---------------------------------------------------------------------------------
 (3) _tmr1_init                                            0     0      0       0
 ---------------------------------------------------------------------------------
 (3) _tmr0_init                                            0     0      0       0
 ---------------------------------------------------------------------------------
 (2) _osc_init                                             0     0      0       0
 ---------------------------------------------------------------------------------
 (2) _interrupt_init                                       0     0      0       0
 ---------------------------------------------------------------------------------
 (2) _init_task                                            0     0      0   12184
                           _add_task
 ---------------------------------------------------------------------------------
 (2) _add_task                                            39    18     21   12184
                                             26 COMRAM    29     8     21
                                              0 BANK0     10    10      0
                             ___wmul
 ---------------------------------------------------------------------------------
 (2) _init_arr_task                                        2     2      0    9715
                                             26 COMRAM     2     2      0
                             ___wmul
 ---------------------------------------------------------------------------------
 (3) ___wmul                                               6     2      4    9492
                                             20 COMRAM     6     2      4
 ---------------------------------------------------------------------------------
 (2) _init_LED                                             0     0      0       0
 ---------------------------------------------------------------------------------
 (2) _calculate_init_tmr1                                 16    16      0  131944
                                            188 BANK1     16    16      0
                            ___flmul
                            ___flsub
                            ___fltol
                           ___xxtofl
                               _powf
 ---------------------------------------------------------------------------------
 (2) _calculate_init_tmr0                                 16    16      0  141506
                                            188 BANK1     16    16      0
                            ___fladd
                            ___flmul
                            ___flsub
                            ___fltol
                           ___xxtofl
                               _powf
 ---------------------------------------------------------------------------------
 (3) _powf                                               205   197      8   99185
                                             91 BANK0     17     9      8
                                              0 BANK1    188   188      0
                            ___fladd
                            ___fldiv
                             ___flge
                            ___flmul
                            ___flneg
                            ___flsub
                           ___xxtofl
                              _fabsf
                            _scalbnf
                              _sqrtf
 ---------------------------------------------------------------------------------
 (4) _sqrtf                                               49    45      4   26963
                                             42 BANK0     49    45      4
                            ___fladd
                             ___flge
                            ___flmul
                               _nanf
 ---------------------------------------------------------------------------------
 (5) _nanf                                                 8     4      4     124
                                             20 COMRAM     8     4      4
 ---------------------------------------------------------------------------------
 (5) ___flge                                              12     4      8     986
                                             30 BANK0     12     4      8
                            ___fladd (ARG)
                            ___flsub (ARG)
 ---------------------------------------------------------------------------------
 (4) _scalbnf                                             18    12      6   15617
                                             45 COMRAM    10     4      6
                                              0 BANK0      8     8      0
                            ___flmul
 ---------------------------------------------------------------------------------
 (5) ___flmul                                             25    17      8   14933
                                             20 COMRAM    25    17      8
 ---------------------------------------------------------------------------------
 (4) _fabsf                                                8     4      4     161
                                             20 COMRAM     8     4      4
 ---------------------------------------------------------------------------------
 (4) ___xxtofl                                            14    10      4     746
                                             45 COMRAM     8     4      4
                                              0 BANK0      6     6      0
                            ___flmul (ARG)
 ---------------------------------------------------------------------------------
 (4) ___flsub                                              8     0      8   16247
                                             22 BANK0      8     0      8
                            ___fladd
                            ___flmul (ARG)
                           ___xxtofl (ARG)
 ---------------------------------------------------------------------------------
 (5) ___fladd                                             16     8      8    9562
                                              6 BANK0     16     8      8
                            ___flmul (ARG)
                           ___xxtofl (ARG)
 ---------------------------------------------------------------------------------
 (4) ___flneg                                              4     0      4     245
                                             20 COMRAM     4     0      4
 ---------------------------------------------------------------------------------
 (4) ___fldiv                                             25    17      8    2903
                                             30 BANK0     25    17      8
                            ___fladd (ARG)
                            ___flmul (ARG)
                            ___flsub (ARG)
 ---------------------------------------------------------------------------------
 (3) ___fltol                                             10     6      4     697
                                            108 BANK0     10     6      4
                            ___fladd (ARG)
                            ___flmul (ARG)
                            ___flsub (ARG)
                           ___xxtofl (ARG)
                               _powf (ARG)
 ---------------------------------------------------------------------------------
 Estimated maximum stack depth 5
 ---------------------------------------------------------------------------------
 (Depth) Function   	        Calls       Base Space   Used Autos Params    Refs
 ---------------------------------------------------------------------------------
 (6) _ISR                                                  4     4      0     435
                                             16 COMRAM     4     4      0
                          _timer_ISR
 ---------------------------------------------------------------------------------
 (7) _timer_ISR                                            0     0      0     435
                       _Sched_Update
 ---------------------------------------------------------------------------------
 (8) _Sched_Update                                        10    10      0     435
                                              6 COMRAM    10    10      0
                           i2___wmul
 ---------------------------------------------------------------------------------
 (9) i2___wmul                                             6     2      4     367
                                              0 COMRAM     6     2      4
 ---------------------------------------------------------------------------------
 Estimated maximum stack depth 9
 ---------------------------------------------------------------------------------

 Call Graph Graphs:

 _main (ROOT)
   _System_init
     _calculate_init_tmr0
       ___fladd
         ___flmul (ARG)
         ___xxtofl (ARG)
           ___flmul (ARG)
       ___flmul
       ___flsub
         ___fladd
           ___flmul (ARG)
           ___xxtofl (ARG)
             ___flmul (ARG)
         ___flmul (ARG)
         ___xxtofl (ARG)
           ___flmul (ARG)
       ___fltol
         ___fladd (ARG)
           ___flmul (ARG)
           ___xxtofl (ARG)
             ___flmul (ARG)
         ___flmul (ARG)
         ___flsub (ARG)
           ___fladd
             ___flmul (ARG)
             ___xxtofl (ARG)
               ___flmul (ARG)
           ___flmul (ARG)
           ___xxtofl (ARG)
             ___flmul (ARG)
         ___xxtofl (ARG)
           ___flmul (ARG)
         _powf (ARG)
           ___fladd
             ___flmul (ARG)
             ___xxtofl (ARG)
               ___flmul (ARG)
           ___fldiv
             ___fladd (ARG)
               ___flmul (ARG)
               ___xxtofl (ARG)
                 ___flmul (ARG)
             ___flmul (ARG)
             ___flsub (ARG)
               ___fladd
                 ___flmul (ARG)
                 ___xxtofl (ARG)
                   ___flmul (ARG)
               ___flmul (ARG)
               ___xxtofl (ARG)
                 ___flmul (ARG)
           ___flge
             ___fladd (ARG)
               ___flmul (ARG)
               ___xxtofl (ARG)
                 ___flmul (ARG)
             ___flsub (ARG)
               ___fladd
                 ___flmul (ARG)
                 ___xxtofl (ARG)
                   ___flmul (ARG)
               ___flmul (ARG)
               ___xxtofl (ARG)
                 ___flmul (ARG)
           ___flmul
           ___flneg
           ___flsub
             ___fladd
               ___flmul (ARG)
               ___xxtofl (ARG)
                 ___flmul (ARG)
             ___flmul (ARG)
             ___xxtofl (ARG)
               ___flmul (ARG)
           ___xxtofl
             ___flmul (ARG)
           _fabsf
           _scalbnf
             ___flmul
           _sqrtf
             ___fladd
               ___flmul (ARG)
               ___xxtofl (ARG)
                 ___flmul (ARG)
             ___flge
               ___fladd (ARG)
                 ___flmul (ARG)
                 ___xxtofl (ARG)
                   ___flmul (ARG)
               ___flsub (ARG)
                 ___fladd
                   ___flmul (ARG)
                   ___xxtofl (ARG)
                     ___flmul (ARG)
                 ___flmul (ARG)
                 ___xxtofl (ARG)
                   ___flmul (ARG)
             ___flmul
             _nanf
       ___xxtofl
         ___flmul (ARG)
       _powf
         ___fladd
           ___flmul (ARG)
           ___xxtofl (ARG)
             ___flmul (ARG)
         ___fldiv
           ___fladd (ARG)
             ___flmul (ARG)
             ___xxtofl (ARG)
               ___flmul (ARG)
           ___flmul (ARG)
           ___flsub (ARG)
             ___fladd
               ___flmul (ARG)
               ___xxtofl (ARG)
                 ___flmul (ARG)
             ___flmul (ARG)
             ___xxtofl (ARG)
               ___flmul (ARG)
         ___flge
           ___fladd (ARG)
             ___flmul (ARG)
             ___xxtofl (ARG)
               ___flmul (ARG)
           ___flsub (ARG)
             ___fladd
               ___flmul (ARG)
               ___xxtofl (ARG)
                 ___flmul (ARG)
             ___flmul (ARG)
             ___xxtofl (ARG)
               ___flmul (ARG)
         ___flmul
         ___flneg
         ___flsub
           ___fladd
             ___flmul (ARG)
             ___xxtofl (ARG)
               ___flmul (ARG)
           ___flmul (ARG)
           ___xxtofl (ARG)
             ___flmul (ARG)
         ___xxtofl
           ___flmul (ARG)
         _fabsf
         _scalbnf
           ___flmul
         _sqrtf
           ___fladd
             ___flmul (ARG)
             ___xxtofl (ARG)
               ___flmul (ARG)
           ___flge
             ___fladd (ARG)
               ___flmul (ARG)
               ___xxtofl (ARG)
                 ___flmul (ARG)
             ___flsub (ARG)
               ___fladd
                 ___flmul (ARG)
                 ___xxtofl (ARG)
                   ___flmul (ARG)
               ___flmul (ARG)
               ___xxtofl (ARG)
                 ___flmul (ARG)
           ___flmul
           _nanf
     _calculate_init_tmr1
       ___flmul
       ___flsub
         ___fladd
           ___flmul (ARG)
           ___xxtofl (ARG)
             ___flmul (ARG)
         ___flmul (ARG)
         ___xxtofl (ARG)
           ___flmul (ARG)
       ___fltol
         ___fladd (ARG)
           ___flmul (ARG)
           ___xxtofl (ARG)
             ___flmul (ARG)
         ___flmul (ARG)
         ___flsub (ARG)
           ___fladd
             ___flmul (ARG)
             ___xxtofl (ARG)
               ___flmul (ARG)
           ___flmul (ARG)
           ___xxtofl (ARG)
             ___flmul (ARG)
         ___xxtofl (ARG)
           ___flmul (ARG)
         _powf (ARG)
           ___fladd
             ___flmul (ARG)
             ___xxtofl (ARG)
               ___flmul (ARG)
           ___fldiv
             ___fladd (ARG)
               ___flmul (ARG)
               ___xxtofl (ARG)
                 ___flmul (ARG)
             ___flmul (ARG)
             ___flsub (ARG)
               ___fladd
                 ___flmul (ARG)
                 ___xxtofl (ARG)
                   ___flmul (ARG)
               ___flmul (ARG)
               ___xxtofl (ARG)
                 ___flmul (ARG)
           ___flge
             ___fladd (ARG)
               ___flmul (ARG)
               ___xxtofl (ARG)
                 ___flmul (ARG)
             ___flsub (ARG)
               ___fladd
                 ___flmul (ARG)
                 ___xxtofl (ARG)
                   ___flmul (ARG)
               ___flmul (ARG)
               ___xxtofl (ARG)
                 ___flmul (ARG)
           ___flmul
           ___flneg
           ___flsub
             ___fladd
               ___flmul (ARG)
               ___xxtofl (ARG)
                 ___flmul (ARG)
             ___flmul (ARG)
             ___xxtofl (ARG)
               ___flmul (ARG)
           ___xxtofl
             ___flmul (ARG)
           _fabsf
           _scalbnf
             ___flmul
           _sqrtf
             ___fladd
               ___flmul (ARG)
               ___xxtofl (ARG)
                 ___flmul (ARG)
             ___flge
               ___fladd (ARG)
                 ___flmul (ARG)
                 ___xxtofl (ARG)
                   ___flmul (ARG)
               ___flsub (ARG)
                 ___fladd
                   ___flmul (ARG)
                   ___xxtofl (ARG)
                     ___flmul (ARG)
                 ___flmul (ARG)
                 ___xxtofl (ARG)
                   ___flmul (ARG)
             ___flmul
             _nanf
       ___xxtofl
         ___flmul (ARG)
       _powf
         ___fladd
           ___flmul (ARG)
           ___xxtofl (ARG)
             ___flmul (ARG)
         ___fldiv
           ___fladd (ARG)
             ___flmul (ARG)
             ___xxtofl (ARG)
               ___flmul (ARG)
           ___flmul (ARG)
           ___flsub (ARG)
             ___fladd
               ___flmul (ARG)
               ___xxtofl (ARG)
                 ___flmul (ARG)
             ___flmul (ARG)
             ___xxtofl (ARG)
               ___flmul (ARG)
         ___flge
           ___fladd (ARG)
             ___flmul (ARG)
             ___xxtofl (ARG)
               ___flmul (ARG)
           ___flsub (ARG)
             ___fladd
               ___flmul (ARG)
               ___xxtofl (ARG)
                 ___flmul (ARG)
             ___flmul (ARG)
             ___xxtofl (ARG)
               ___flmul (ARG)
         ___flmul
         ___flneg
         ___flsub
           ___fladd
             ___flmul (ARG)
             ___xxtofl (ARG)
               ___flmul (ARG)
           ___flmul (ARG)
           ___xxtofl (ARG)
             ___flmul (ARG)
         ___xxtofl
           ___flmul (ARG)
         _fabsf
         _scalbnf
           ___flmul
         _sqrtf
           ___fladd
             ___flmul (ARG)
             ___xxtofl (ARG)
               ___flmul (ARG)
           ___flge
             ___fladd (ARG)
               ___flmul (ARG)
               ___xxtofl (ARG)
                 ___flmul (ARG)
             ___flsub (ARG)
               ___fladd
                 ___flmul (ARG)
                 ___xxtofl (ARG)
                   ___flmul (ARG)
               ___flmul (ARG)
               ___xxtofl (ARG)
                 ___flmul (ARG)
           ___flmul
           _nanf
     _init_LED
     _init_arr_task
       ___wmul
     _init_task
       _add_task
         ___wmul
     _interrupt_init
     _osc_init
     _start_timer
       _tmr0_init
       _tmr1_init
   _dispatch_task
     ___wmul
     _add_task
       ___wmul
     _remove_task
       ___wmul
     _toggle_LED_0 *
     _toggle_LED_2 *
     _toggle_LED_4 *

 _ISR (ROOT)
   _timer_ISR
     _Sched_Update
       i2___wmul

 Address spaces:
Name               Size   Autos  Total    Cost      Usage
BIGRAM             F5F      0     1F4      37       12.7%
EEDATA             400      0       0       0        0.0%
BITBANK14          100      0       0      33        0.0%
BANK14             100      0       0      34        0.0%
BITBANK13          100      0       0      30        0.0%
BANK13             100      0       0      31        0.0%
BITBANK12          100      0       0      28        0.0%
BANK12             100      0       0      29        0.0%
BITBANK11          100      0       0      26        0.0%
BANK11             100      0       0      27        0.0%
BITBANK10          100      0       0      24        0.0%
BANK10             100      0       0      25        0.0%
BITBANK9           100      0       0      22        0.0%
BANK9              100      0       0      23        0.0%
BITBANK8           100      0       0      20        0.0%
BANK8              100      0       0      21        0.0%
BITBANK7           100      0       0      18        0.0%
BANK7              100      0       0      19        0.0%
BITBANK6           100      0       0      16        0.0%
BANK6              100      0       0      17        0.0%
BITBANK5           100      0       0      14        0.0%
BANK5              100      0       0      15        0.0%
BITBANK4           100      0       0      12        0.0%
BANK4              100      0       0      13        0.0%
BITBANK3           100      0       0      10        0.0%
BANK3              100      0       0      11        0.0%
BITBANK2           100      0       0       8        0.0%
BANK2              100      0       0       9        0.0%
BITBANK1           100      0       0       6        0.0%
BANK1              100     CC      CC       7       79.7%
BITBANK0            A0      0       0       4        0.0%
BANK0               A0     76      93       5       91.9%
BITBANK15           60      0       0      35        0.0%
BANK15              60      0       0      36        0.0%
BITCOMRAM           5E      0       0       0        0.0%
COMRAM              5E     37      49       1       77.7%
BITSFR               0      0       0     200        0.0%
SFR                  0      0       0     200        0.0%
STACK                0      0       0       2        0.0%
NULL                 0      0       0       0        0.0%
ABS                  0      0     1A8      32        0.0%
DATA                 0      0     39C       3        0.0%
CODE                 0      0       0       0        0.0%


Microchip Technology PIC18 Macro Assembler V2.10 build 88905656 
Symbol Table                                                                                   Mon Nov 25 01:35:13 2019

                ___fldiv@aexp 0096                  ___fldiv@bexp 0095                  ___fldiv@sign 008E  
                          _L1 1059                            _L2 1055                            _L3 1051  
                          _L4 104D                            _L5 1049                            _L6 1045  
                          l51 64B2                            l60 5BAE                            l45 64AC  
                          _P1 1041                            l54 5F10                            _P2 103D  
                          l63 6368                            _P3 1039                            l48 64A6  
                          _P4 1035                            l57 5A60                            _P5 1031  
                          l85 5E06                            l96 3C9A                            l97 3D8C  
                          l89 40C0                            l98 3FC0                            l99 3E70  
                          _bp 1069                            _cp 101D           ___wmul@multiplicand 0017  
              ?_dispatch_task 0001        __end_of_interrupt_init 64B4                           l123 5506  
                         l115 5216                           l128 5CE4                           l162 6492  
                         l252 6450                           l246 6464                           l159 649C  
                         l168 63CE                           l258 6478                           l298 63F4  
                         l563 60D8                           l572 62FC                           l912 4B04  
                         l568 611E                           l921 4D72                           l826 42B2  
                         l922 4D60                           l595 6018                           l843 43CC  
                         l835 4582                           l827 42A0                           l852 449C  
                         l828 4266                           l916 4E68                           l853 448A  
                         l919 4CFA                           l880 5204                           l960 582E  
                         l953 5796                           l929 4E2A                           l882 5064  
                         l891 50AA                           l868 62C4                           l956 58F2  
                         l893 5122                           l885 5028                           l894 5110  
                         l967 588A                           _ISR 0008                           _lg2 102D  
                         _ovt 1021                   _start_timer 639E                           tosl 000FFD  
                         wreg 000FE8                  ___flmul@aexp 0022                  ___flmul@bexp 0027  
                ___flmul@sign 0021                  ___flmul@temp 002C                  ___flmul@prod 0028  
                __CFG_LVP$OFF 000000                          ?_ISR 0001                  ___fltol@exp1 00D5  
                __CFG_WDT$OFF 000000                          l1200 643C                          l1032 1080  
                        l1042 1382                          l1034 10A0                          l1052 1418  
                        l1037 3ADA                          l1070 1602                          l1062 14DC  
                        l1160 573A                          l1138 32C8                          l1139 3344  
                        l1180 47E0                          l1172 4A3E                          l1149 3A86  
                        l1183 48A4                          l4000 4144                          l1176 4782  
                        l2400 648A                          l1185 49AA                          l4010 417A  
                        l4002 414A                          l2402 648E                          l4100 4340  
                        l4020 41B6                          l4012 418A                          l4004 4158  
                        l1197 639C                          l4102 4366                          l4110 43BC  
                        l4030 41D4                          l4022 41C4                          l4014 418C  
                        l4006 415A                          l4120 4410                          l4112 43E2  
                        l4104 439A                          l4040 41E8                          l4032 41D8  
                        l4024 41C8                          l4008 416A                          l4016 4194  
                        l4200 4ABC                          l5000 287E                          l4130 443A  
                        l4122 441E                          l4114 43F2                          l4106 439C  
                        l4050 41FC                          l4042 41EC                          l4034 41DC  
                        l4026 41CC                          l4018 41A4                          l4210 4AF4  
                        l4202 4ABE                          l5010 28FC                          l5002 28B2  
                        l4140 446C                          l4132 444A                          l4124 4420  
                        l4108 43AC                          l4060 424E                          l4052 4200  
                        l4044 41F0                          l4036 41E0                          l4028 41D0  
                        l4300 4E4E                          l4220 4B44                          l4212 4B14  
                        l4204 4ACE                          l5100 31E0                          l5020 2A78  
                        l5012 2930                          l5004 28C2                          l4150 44C6  
                        l4142 4482                          l4126 442E                          l4118 4406  
                        l4134 444C                          l4070 4292                          l4062 425E  
                        l4046 41F4                          l4038 41E4                          l4054 4204  
                        l4302 4E54                          l4230 4B94                          l4222 4B4E  
                        l4214 4B24                          l4206 4ADE                          l4310 604A  
                        l5102 3202                          l5110 340A                          l5030 2B7A  
                        l5022 2A9E                          l5014 2964                          l5006 28D2  
                        l2454 64A8                          l4400 4FA2                          l4160 4542  
                        l4152 4500                          l4128 4436                          l4136 445A  
                        l4072 4294                          l4064 4274                          l4056 4208  
                        l4048 41F8                          l4304 4E58                          l4240 4BD6  
                        l4232 4BA0                          l4224 4B64                          l4208 4AEE  
                        l4320 60B8                          l4312 605A                          l5120 3488  
                        l5112 343E                          l5104 3334                          l5040 2C4C  
                        l5032 2B8A                          l5024 2AD2                          l5016 2998  
                        l5008 28EC                          l2456 649E                          l5210 6008  
                        l5202 5FCC                          l4410 4FF4                          l4402 4FBC  
                        l4170 4562                          l4162 4546                          l4146 44AC  
                        l4154 4502                          l4138 445E                          l4090 431C  
                        l4082 42E4                          l4074 429E                          l4066 4280  
                        l4058 4232                          l4250 4C38                          l4242 4BE6  
                        l4234 4BAE                          l4226 4B70                          l4218 4B38  
                        l4322 60C6                          l4314 6088                          l4330 641C  
                        l5130 35D4                          l5122 34BC                          l5114 344E  
                        l5106 33C6                          l5050 2CEE                          l5042 2C80  
                        l5034 2BA4                          l5026 2B36                          l5018 2A14  
                        l2458 64AE                          l5204 5FD8                          l4420 5050  
                        l4412 5004                          l4404 4FCC                          l4172 4570  
                        l4164 4554                          l4156 4512                          l4148 44B8  
                        l4092 4320                          l4084 42F4                          l4076 42C0  
                        l4068 4284                          l4500 57A6                          l4260 4CE0  
                        l4252 4C54                          l4244 4C00                          l4236 4BBA  
                        l4228 4B88                          l4180 4A4C                          l4324 6116  
                        l4316 6098                          l4308 601A                          l4332 642C  
                        l5140 3724                          l5132 3608                          l5124 34F0  
                        l5116 345E                          l5108 33D6                          l5060 2E16  
                        l5052 2CFE                          l5036 2BB4                          l5028 2B6A  
                        l5044 2CB4                          l5220 595E                          l2396 6494  
                        l5300 647E                          l5206 5FE8                          l4430 5090  
                        l4422 5052                          l4414 5018                          l4406 4FDC  
                        l4350 4E98                          l4342 4E6A                          l4174 4572  
                        l4166 455A                          l4158 4522                          l4094 432E  
                        l4086 4302                          l4078 42D0                          l4510 57E4  
                        l4502 57BC                          l4270 4D1C                          l4262 4CEA  
                        l4254 4C7E                          l4246 4C10                          l4238 4BCA  
                        l4190 4A8C                          l4182 4A5A                          l4326 611C  
                        l4318 60A6                          l5150 3906                          l5142 377E  
                        l5134 363C                          l5126 3548                          l5118 3478  
                        l5062 2E26                          l5054 2D56                          l5046 2CC4  
                        l5038 2BE8                          l5222 5A16                          l5230 5B88  
                        l5214 5E08                          l2398 6498                          l5208 5FF8  
                        l4440 50CC                          l4432 509A                          l4424 5062  
                        l4416 5026                          l4408 4FEC                          l4360 4ED2  
                        l4352 4EA8                          l4344 4E78                          l4168 455C  
                        l4096 4330                          l4088 4310                          l4520 586C  
                        l4512 5816                          l4280 4D8E                          l4272 4D2A  
                        l4264 4CF8                          l4256 4CB4                          l4248 4C2C  
                        l4192 4A92                          l4184 4A5C                          l4600 492E  
                        l5160 39C4                          l5152 393A                          l5144 37D8  
                        l5136 3670                          l5128 35A0                          l5080 2FC8  
                        l5072 2EC6                          l5064 2E36                          l5056 2DAE  
                        l5048 2CD4                          l5216 58F4                          l5232 5BA4  
                        l5224 5A62                          l4336 63D0                          l5240 5DE6  
                        l5170 5F12                          l4450 513E                          l4442 50DA  
                        l4434 50A8                          l4426 5074                          l4418 5032  
                        l4370 4EFE                          l4362 4ED8                          l4354 4EB8  
                        l4346 4E86                          l4098 433A                          l4530 58C2  
                        l4522 587A                          l4514 5818                          l4506 57D0  
                        l4290 4DF8                          l4282 4D9C                          l4274 4D58  
                        l4266 4D0A                          l4258 4CC2                          l4194 4AA2  
                        l4186 4A6C                          l4178 4A40                          l4610 4A1E  
                        l4602 493E                          l5162 3A06                          l5154 396E  
                        l5146 3830                          l5138 36CA                          l5090 309A  
                        l5082 3010                          l5074 2EDE                          l5066 2E5A  
                        l5058 2DE2                          l5218 592A                          l5234 5BAA  
                        l5226 5A98                          l4338 63EC                          l5242 5DEA  
                        l5250 527C                          l5180 5F6A                          l5172 5F2A  
                        l4460 51AA                          l4452 514C                          l4444 5108  
                        l4428 508A                          l4436 50BA                          l4380 4F38  
                        l4372 4F0E                          l4364 4EDE                          l4356 4EBA  
                        l4348 4E88                          l4532 58D2                          l4524 5898  
                        l4516 5824                          l4508 57D8                          l4620 638C  
                        l4292 4E12                          l4284 4DC6                          l4268 4D18  
                        l4196 4AA8                          l4188 4A7C                          l4612 4A2E  
                        l4604 4972                          l4540 4584                          l5164 3A56  
                        l5156 39A4                          l5148 38AE                          l5092 30F2  
                        l5076 2F5C                          l5228 5ACC                          l5236 5CE6  
                        l4700 3CA2                          l5260 536A                          l5252 5298  
                        l5244 5206                          l5182 5F7A                          l4470 51F8  
                        l4462 51C4                          l4454 5176                          l4438 50C8  
                        l4382 4F4E                          l4374 4F1E                          l4366 4EEC  
                        l4358 4EC2                          l4534 58E0                          l4526 589A  
                        l4518 5860                          l4294 4E2E                          l4278 4D82  
                        l4286 4DCA                          l4198 4AAE                          l4630 5568  
                        l4606 4982                          l4542 4584                          l5166 3AA6  
                        l5158 39B4                          l5238 5CF2                          l4710 3E40  
                        l4702 3CF0                          l5270 6334                          l5262 5396  
                        l5254 52CE                          l5246 521E                          l5192 5FA4  
                        l5184 5F7E                          l5176 5F3E                          l4472 51FA  
                        l4464 51E0                          l4448 5132                          l4456 517A  
                        l4384 4F5E                          l4392 4F7E                          l4376 4F20  
                        l4368 4EEE                          l4480 627E                          l4536 58E2  
                        l4528 589E                          l4616 636A                          l4296 4E3E  
                        l4288 4DE4                          l4640 55E4                          l4632 5570  
                        l4624 5508                          l4608 4A0E                          l4560 46A4  
                        l4552 4636                          l4544 4594                          l5088 307C  
                        l5096 315E                          l4800 158E                          l4712 3EBE  
                        l4704 3D18                          l5280 634C                          l5272 633C  
                        l5264 53F8                          l5256 52FA                          l5248 5246  
                        l3920 643E                          l5194 5FAE                          l5186 5F8C  
                        l5178 5F68                          l4466 51E4                          l4458 5194  
                        l4394 4F8E                          l4386 4F66                          l4378 4F28  
                        l4490 62EC                          l4482 6290                          l4618 638A  
                        l4298 4E4C                          l4650 5664                          l4634 558C  
                        l4642 55F0                          l4626 5518                          l4570 4736  
                        l4562 46AC                          l4554 4654                          l4546 45A4  
                        l5098 31D0                          l4810 1620                          l4802 15B2  
                        l4730 113A                          l4722 10C0                          l4714 3ED4  
                        l4706 3D94                          l5282 6350                          l5274 6340  
                        l5258 5342                          l5266 540C                          l3922 6466  
                        l5290 5C28                          l5196 5FB8                          l4468 51F2  
                        l4396 4F8E                          l4388 4F6A                          l4660 56F6  
                        l4652 5698                          l4644 560C                          l4636 55C0  
                        l4628 5534                          l4580 47D0                          l4572 4740  
                        l4556 4682                          l4548 45DA                          l4900 1E38  
                        l4820 1762                          l4812 1656                          l4804 15D0  
                        l4724 1108                          l4716 3F58                          l4708 3E00  
                        l5284 635C                          l5276 6344                          l5268 5500  
                        l5292 5C56                          l4486 62C6                          l4494 5740  
                        l4662 572A                          l4654 56A0                          l4646 5640  
                        l4638 55C8                          l4590 48B4                          l4582 47FA  
                        l4574 474C                          l4558 4696                          l4566 46CC  
                        l4910 1F08                          l4902 1EA0                          l4830 17B8  
                        l4814 1666                          l4822 1786                          l4806 15E6  
                        l4750 121A                          l4742 11CC                          l4734 1150  
                        l5278 6348                          l3918 6452                          l5294 5C6C  
                        l5286 5BB0                          l4488 62DC                          l4496 5752  
                        l4656 56BC                          l4648 5648                          l4592 48BE  
                        l4584 481A                          l4576 475A                          l4568 4722  
                        l4912 1F2C                          l4920 1F6C                          l4904 1EB8  
                        l4832 17CE                          l4840 1874                          l4816 16CA  
                        l4808 1612                          l4752 1236                          l4744 11DC  
                        l4736 1172                          l4728 111E                          l4680 3B98  
                        l4672 3AFE                          l3880 63B8                          l5296 5C8C  
                        l5288 5BEE                          l4498 5760                          l4658 56C4  
                        l4594 48D4                          l4586 482E                          l4578 47C2  
                        l4930 20AC                          l4922 1F7C                          l4914 1F40  
                        l4906 1ED0                          l4842 1896                          l4818 174A  
                        l4826 179A                          l4754 1334                          l4746 11EA  
                        l4738 1194                          l4682 3BC0                          l4674 3B10  
                        l4666 3ADC                          l3882 63CA                          l5298 647A  
                        l3980 40DE                          l4596 48EA                          l4588 486C  
                        l4940 2106                          l4932 20BC                          l4924 1F8C  
                        l4916 1F50                          l4908 1EF4                          l4844 18BA  
                        l4852 19A0                          l4836 184E                          l4828 17AA  
                        l4772 142C                          l4764 13D2                          l4756 13A0  
                        l4780 1478                          l4748 1206                          l4684 3BEC  
                        l4676 3B18                          l4668 3AE6                          l3876 639E  
                        l3990 4112                          l3982 40E0                          l4598 48FA  
                        l4950 227A                          l4942 2160                          l4934 20CC  
                        l4926 1FF0                          l4918 1F5C                          l4870 1BD8  
                        l4854 19C4                          l4862 1ABA                          l4846 18C8  
                        l4838 1864                          l4782 1494                          l4774 143A  
                        l4766 13F4                          l4758 13BC                          l4694 3C44  
                        l4686 3C14                          l4678 3B58                          l3878 63B0  
                        l3984 40F0                          l3992 411A                          l3976 40C2  
                        l4960 23EC                          l4952 22D2                          l4944 21D2  
                        l4936 20DC                          l4928 2078                          l4880 1D10  
                        l4872 1C0C                          l4864 1AF0                          l4856 19E2  
                        l4848 1934                          l4792 1540                          l4784 14A2  
                        l4776 1462                          l4768 1402                          l4688 3C3C  
                        l4696 3C48                          l3994 412A                          l3986 4100  
                        l3978 40D0                          l4970 2588                          l4962 2446  
                        l4954 232A                          l4946 21E2                          l4938 20F6  
                        l4890 1DB6                          l4882 1D2A                          l4874 1C40  
                        l4866 1B4A                          l4858 1A4E                          l4794 1558  
                        l4786 14F0                          l4698 3C7C                          l3996 4130  
                        l3988 4110                          l4980 26B2                          l4972 25BC  
                        l4964 24A0                          l4956 235E                          l4948 2246  
                        l4892 1DD2                          l4884 1D3A                          l4876 1CF0  
                        l4868 1B7E                          l4796 1566                          l4788 1508  
                        l3998 4142                          l4990 2730                          l4982 26E6  
                        l4974 2614                          l4966 24FA                          l4958 2392  
                        l4894 1E06                          l4886 1D6E                          l4878 1D00  
                        l4992 2766                          l4984 26F6                          l4976 2648  
                        l4968 2554                          l4896 1E18                          l4888 1DA6  
                        l4994 279A                          l4986 2706                          l4978 267C  
                        l4898 1E28                          l4996 27CE                          l4988 2720  
                        l4998 2802                          STR_1 107D                          _LATD 000F8C  
                        u5000 4DE4                          u5001 4DE0                          u5010 4E12  
                        u4210 63B0                          u5011 4E0E                          u4211 63AC  
                        u5100 4EA8                          u5020 4E4C                          u4220 63CA  
                        u5101 4EA4                          u5021 4E48                          u4221 63C6  
                        u5110 4EEC                          u5030 604A                          u4310 6462  
                        u5111 4EE8                          u5031 6046                          u4311 645C  
                        u5200 508A                          u5120 4EFE                          u5040 6088  
                        u6000 17CE                          u5201 5086                          u5121 4EFA  
                        u5041 6084                          u6001 17CA                          u5210 50A8  
                        u5130 4F0E                          u5050 60A6                          u6010 1864  
                        u4330 644E                          u5211 50A4                          u5131 4F0A  
                        u5051 60A2                          u6011 1860                          u4331 6448  
                        u5300 51F2                          u5220 50C8                          u5140 4F4E  
                        u4500 416A                          u5060 60C6                          u6100 1F2C  
                        u6020 1896                          u5301 51EE                          u5221 50C4  
                        u5141 4F4A                          u4501 4166                          u5061 60C2  
                        u6101 1F28                          u6021 1892                          u4325 6464  
                        u5230 50DA                          u5150 4F8E                          u5310 62DC  
                        u4510 417A                          u5070 6116                          u6030 18BA  
                        u4350 6476                          u5231 50D6                          u5151 4F8A  
                        u5311 62D8                          u4511 4176                          u5071 6112  
                        u6031 18B6                          u4351 6470                          u5240 5108  
                        u5160 5004                          u5080 4E86                          u4600 42C0  
                        u4520 41B6                          u5400 58D2                          u5320 5752  
                        u6120 2E5A                          u6040 18C8                          u5241 5104  
                        u5161 5000                          u5081 4E82                          u4601 42BC  
                        u4521 41B2                          u5401 58CE                          u5321 574E  
                        u6121 2E56                          u6041 18C4                          u4345 6450  
                        u5250 511E                          u5170 5026                          u5090 4E98  
                        u4610 42D0                          u4530 41C4                          u4450 40DE  
                        u5410 58E0                          u5330 5760                          u6130 2EDE  
                        u6050 19C4                          u5251 511A                          u5171 5022  
                        u5091 4E94                          u4611 42CC                          u4531 41C0  
                        u4451 40DA                          u5411 58DC                          u5331 575C  
                        u6131 2EDA                          u6115 2172                          u6051 19C0  
                        u6300 5F8C                          u5260 5132                          u5180 5050  
                        u4700 442E                          u4620 4302                          u4540 4232  
                        u4460 40F0                          u5340 57BC                          u5500 486C  
                        u5420 45DA                          u6140 2F5C                          u6060 19E2  
                        u6301 5F88                          u5261 512E                          u5181 504C  
                        u4701 442A                          u4621 42FE                          u4541 422E  
                        u4461 40EC                          u5341 57B8                          u5501 4868  
                        u5421 45D6                          u6205 321C                          u6141 2F58  
                        u6061 19DE                          u4365 6478                          u6310 5FA0  
                        u5270 514C                          u5190 5074                          u4710 444A  
                        u4630 4310                          u4550 424A                          u4470 4100  
                        u5350 5812                          u5510 48D4                          u5430 4654  
                        u6206 3226                          u6150 3010                          u6070 1DD2  
                        u6311 5F9C                          u5271 5148                          u5191 5070  
                        u4711 4446                          u4631 430C                          u4551 4244  
                        u4471 40FC                          u5351 580E                          u5511 48D0  
                        u5431 4650                          u6215 3286                          u6207 3236  
                        u6151 300C                          u6071 1DCE                          u6320 5FC8  
                        u5280 5194                          u4800 4522                          u4720 445A  
                        u4640 432E                          u4560 424C                          u4480 4142  
                        u5360 585C                          u5600 5664                          u5520 48EA  
                        u5440 4682                          u6240 33C6                          u6216 3290  
                        u6160 309A                          u6400 52CE                          u6321 5FC4  
                        u5281 5190                          u4801 451E                          u4721 4456  
                        u4641 432A                          u4481 413E                          u5361 5858  
                        u5601 5660                          u5521 48E6                          u5441 467E  
                        u6241 33C2                          u6225 32DE                          u6217 32A0  
                        u6161 3096                          u6401 52CA                          u6330 5FE8  
                        u5290 51C4                          u4810 4542                          u4730 446C  
                        u4650 4366                          u4570 4274                          u4490 4158  
                        u5370 587A                          u5610 56BC                          u5530 492E  
                        u5450 46A4                          u6226 32E8                          u6170 30F2  
                        u6090 1EF4                          u6410 540C                          u6331 5FE4  
                        u5291 51C0                          u4811 453E                          u4731 4468  
                        u4651 4362                          u4571 4270                          u4491 4154  
                        u5371 5876                          u5611 56B8                          u5531 492A  
                        u5451 46A0                          u6235 338C                          u6227 32F8  
                        u6171 30EE                          u6091 1EF0                          u6411 5408  
                        u6340 5FF8                          u4820 4554                          u4740 4482  
                        u4660 43AC                          u4580 4292                          u5380 588A  
                        u4900 4B14                          u5540 4972                          u6236 3396  
                        u5700 3F58                          u6341 5FF4                          u4821 4550  
                        u4741 447E                          u4661 43A8                          u4581 428E  
                        u5381 5886                          u4901 4B10                          u5541 496E  
                        u6237 33A6                          u6085 1E4E                          u5701 3F54  
                        u6421 542E                          u4830 4570                          u4750 4498  
                        u4670 43E2                          u4590 42B2                          u5390 5898  
                        u4910 4B24                          u5470 4722                          u6270 3A56  
                        u6190 3202                          u6086 1E58                          u5710 1108  
                        u5630 3AFA                          u4831 456C                          u4751 4494  
                        u4671 43DE                          u4591 42AE                          u5391 5894  
                        u4911 4B20                          u5471 471E                          u6271 3A52  
                        u6255 39D6                          u6191 31FE                          u6087 1E68  
                        u5711 1104                          u6351 5D14                          u5631 3AF6  
                        u6431 5456                          u6280 5F2A                          u4760 44AC  
                        u4680 43F2                          u4920 4C9E                          u4840 4A5A  
                        u5560 5534                          u5480 475A                          u5800 12FA  
                        u5720 113A                          u5640 3B10                          u6440 5BEE  
                        u6281 5F26                          u4761 44A8                          u4681 43EE  
                        u4841 4A56                          u5625 56D6                          u5561 5530  
                        u5481 4756                          u5465 46E0                          u6265 3A1C  
                        u6185 318E                          u5721 1136                          u6361 5D3C  
                        u5641 3B0C                          u6441 5BEA                          u6290 5F5E  
                        u4770 44C6                          u4690 441E                          u4930 4CF8  
                        u4850 4A6C                          u5570 558C                          u5490 47D0  
                        u5466 46EA                          u6266 3A26                          u6186 3198  
                        u5810 1334                          u5730 1172                          u6370 5E06  
                        u5650 3C7C                          u4771 44C2                          u4691 441A  
                        u4931 4CF4                          u4851 4A68                          u5571 5588  
                        u5555 49EE                          u5491 47CC                          u5467 46FA  
                        u6267 3A36                          u6187 31A8                          u5811 1330  
                        u5731 116E                          u6371 5E02                          u5651 3C78  
                        u4780 4500                          u4940 4D18                          u4860 4A7C  
                        u5580 55E4                          u5900 1558                          u5820 13A0  
                        u5740 1194                          u5660 3C9A                          u6380 527C  
                        u4781 44FC                          u4941 4D14                          u4925 4C94  
                        u4861 4A78                          u5581 55E0                          u5901 1554  
                        u5821 139C                          u5805 12F0                          u5741 1190  
                        u5661 3C96                          u6381 5278                          u6461 5C4E  
                        u4790 4512                          u4950 4D2A                          u4870 4ABC  
                        u5590 560C                          u5910 1566                          u5830 13BC  
                        u5750 11EA                          u5670 3CF0                          u6390 5298  
                        u6470 5C8C                          u6295 5F54                          u4791 450E  
                        u4951 4D26                          u4871 4AB8                          u5591 5608  
                        u5911 1562                          u5831 13B8                          u5751 11E6  
                        u5671 3CEC                          u6391 5294                          u6471 5C88  
                        u4960 4D58                          u4880 4ACE                          u5920 15D0  
                        u5840 13F4                          u5760 1206                          u5680 3EBE  
                        u4961 4D54                          u4881 4ACA                          u5921 15CC  
                        u5841 13F0                          u5761 1202                          u5681 3EBA  
                        u4970 4D6E                          u4890 4ADE                          u5930 15E6  
                        u5850 1402                          u5770 1236                          u5690 3ED4  
                        u6458 5C14                          u4971 4D6A                          u4891 4ADA  
                        u5931 15E2                          u5851 13FE                          u5771 1232  
                        u5691 3ED0                          u6459 5C28                          u4980 4D82  
                        u5940 1602                          u5860 143A                          u4981 4D7E  
                        u5941 15FE                          u5861 1436                          u4990 4D9C  
                        u5950 1620                          u5870 1494                          u4991 4D98  
                        u5951 161C                          u5871 1490                          u5960 1666  
                        u5880 14A2                          u5961 1662                          u5881 149E  
                        u5785 124C                          u5970 16CA                          u5890 1508  
                        u5786 1256                          u5971 16C6                          u5891 1504  
                        u5795 12A6                          u5787 1266                          u5980 1762  
                        u5796 12B0                          u5981 175E                          u5797 12C0  
                        u5990 17B8                          u5991 17B4                          _TMR0 000FD6  
                        _TMR1 000FCE                          _cp_h 1079                          _cp_l 1075  
                        _dp_h 1009                          _dp_l 1001                          _main 647A  
                        _nanf 641C                          _huge 1061                          _test 0042  
                        _powf 1080                          _size 003E                          _tiny 105D  
                        fsr1h 000FE2                          fsr2h 000FDA                          fsr1l 000FE1  
                        fsr2l 000FD9                          btemp 004A                          prodh 000FF4  
                        prodl 000FF3                          start 000E                 __CFG_IESO$OFF 000000  
             ___fldiv@new_exp 008F                 __CFG_MCLRE$ON 000000                  ___param_bank 000000  
        __size_of_System_init 0036                         ??_ISR 0011          start_timer@timer_opt 0015  
               ___fltol@sign1 00D4               __end_of___fladd 4584                         ?_main 0001  
                       ?_nanf 0015               __end_of___fldiv 5206               __end_of___flneg 62FE  
             __end_of___flmul 4E6A                         ?_powf 00BB               __end_of___flsub 62C6  
             __end_of___fltol 601A               ?_interrupt_init 0001                         _T0CON 000FD5  
                       _T1CON 000FCD                         _LATD0 007C60                         _LATD1 007C61  
                       _LATD2 007C62                         _LATD3 007C63                         _LATD4 007C64  
                       _LATD5 007C65                         _LATD6 007C66                         _LATD7 007C67  
                       i2l107 6136                         i2l211 626A                         i2l108 6202  
                       i2l109 6192                         i2l174 64B8                         i2l298 641A  
                       _TMR1H 000FCF                         _TMR1L 000FCE                         _TRISD 000F95  
               __CFG_PWRT$OFF 000000                __CFG_FCMEN$OFF 000000                         _lg2_h 1029  
                       _lg2_l 1025                         _fabsf 636A                         _count 003C  
                       _errno 00EF                         _ivln2 1019               __end_of_ivln2_h 1075  
             __end_of_ivln2_l 1019                         _two24 1065               __end_of_scalbnf 573C  
                       _sqrtf 4584                         nanf@s 0015                         nanf@u 0019  
              __CFG_BOREN$OFF 000000                         pclath 000FFA                         tablat 000FF5  
            __end_ofi2___wmul 641C                         powf@i 012C                         powf@j 01AC  
                       powf@k 01A0                         powf@n 0180                         powf@r 014C  
                       powf@s 015C                         powf@t 01B0                         powf@u 0174  
                       powf@v 0178                         powf@w 0144                         powf@x 00BB  
                       powf@y 00BF                         powf@z 01B4                         plusw1 000FE3  
                       plusw2 000FDB                         ttemp5 004B                         ttemp6 004E  
                       ttemp7 0052                         status 000FD8                         wtemp8 004B  
             __initialization 62FE                  __end_of_cp_h 107D                  __end_of_cp_l 1079  
                __end_of_dp_h 1011                  __end_of_dp_l 1009                  __end_of_main 648A  
                __end_of_nanf 643E                  __end_of_huge 1065                  __end_of_powf 3ADC  
                __end_of_tiny 1061               ??_dispatch_task 006A                        ??_main 0038  
                      ??_nanf 0019                        ??_powf 00C3                 __activetblptr 000003  
__size_of_calculate_init_tmr0 016E  __size_of_calculate_init_tmr1 014E                        ?_fabsf 0015  
               ?_Sched_Update 0001                        ?_sqrtf 008A              __end_of_add_task 40C2  
                      i2l3840 63F6                        i2l3842 6412                        i2l3952 64B4  
                      i2l3960 6236                        i2l3890 61D0                        i2l3970 6266  
                      i2l3962 6238                        i2l3954 6216                        i2l3884 6120  
                      i2l3956 6224                        i2l3964 6240                        i2l3966 624E  
                      i2l3958 6232                        i2l3888 6142                        i2l3968 625C  
                      _OSCCON 000FD3              __end_of___xxtofl 58F4                  ?_remove_task 001B  
              __CFG_XINST$OFF 000000        __size_of_init_arr_task 0122                        ___flge 601A  
                   ??___fladd 006E                        ___wmul 63D0                     ??___fldiv 0086  
                   ??___flneg 0019                     ??___flmul 001D                     ??___flsub 0036  
                   ??___fltol 00D0              __end_of_init_LED 64A8                        fabsf@u 0019  
                      fabsf@x 0015                        clear_0 6306                        clear_1 6318  
                      clear_2 6324              __end_of_osc_init 64AE                     ??_scalbnf 0034  
                __mediumconst 0000                        powf@s2 018C                        powf@t1 0184  
                      powf@t2 011C                        tblptrh 000FF7                        tblptrl 000FF6  
                      powf@y1 0128                        tblptru 000FF8                        powf@ax 0170  
                      powf@is 0194                        powf@hx 0160                        powf@hy 017C  
                      powf@ix 01A8                        powf@iy 0190                        powf@sn 0188  
              ??_Sched_Update 0007                        sqrtf@i 009B                        sqrtf@m 00AF  
                      sqrtf@q 00A3                        sqrtf@r 00B3                        sqrtf@s 0097  
                      sqrtf@t 00A7                        sqrtf@x 008A                        sqrtf@z 00AB  
                  ___flge@ff1 007E                    ___flge@ff2 0082                  ___xxtofl@arg 0062  
                ___xxtofl@exp 0061                  ___xxtofl@val 002E                    __accesstop 0060  
     __end_of__initialization 632A                    ___flneg@f1 0015                 ___rparam_used 000001  
                  ___fltol@f1 00CC                __pcstackCOMRAM 0001                 __end_of_lg2_h 102D  
               __end_of_lg2_l 1029                 __end_of_fabsf 639E                 __end_of_ivln2 101D  
               __end_of_two24 1069                 __end_of_sqrtf 4A40                    __end_of_L1 105D  
                  __end_of_L2 1059                    __end_of_L3 1055                    __end_of_L4 1051  
                  __end_of_L5 104D                    __end_of_L6 1049                    __end_of_P1 1045  
                  __end_of_P2 1041                    __end_of_P3 103D                    __end_of_P4 1039  
                  __end_of_P5 1035                    __end_of_bp 1071                    __end_of_cp 1021  
                   ?i2___wmul 0001                  ?_start_timer 0015               __CFG_OSC$INTIO7 000000  
               _init_arr_task 5CE6                       ??_fabsf 0019                       ??_sqrtf 008E  
                  __pbssBANK0 00D6                    __pnvCOMRAM 0046            __size_of_init_task 010A  
                     ?___flge 007E                       ?___wmul 0015              ??_interrupt_init 0015  
          __size_of_tmr0_init 000A            __size_of_tmr1_init 000A                     ?_add_task 001B  
                  ??i2___wmul 0005            __size_of_timer_ISR 0006                     ?___xxtofl 002E  
              ?_init_arr_task 0001                  add_task@data 002E                  add_task@temp 0060  
                   ?_init_LED 0001                 ??_System_init 0038                       __Hparam 0000  
                   ?_osc_init 0001                       __Lparam 0000           _calculate_init_tmr0 58F4  
         _calculate_init_tmr1 5A62          __end_of_Sched_Update 6204          __size_of_remove_task 0302  
             __size_of___flge 0106                remove_task@cur 0029                       ___fladd 40C2  
              remove_task@pre 0025                remove_task@pos 0027                       ___fldiv 4E6A  
                     ___flneg 62C6                       ___flmul 4A40                       ___flsub 627E  
                     ___fltol 5F12               __size_of___wmul 0026                  __psmallconst 1000  
                     __pcinit 62FE                       __ramtop 1000                       __ptext0 647A  
                     __ptext1 5BB0                       __ptext2 643E                       __ptext3 6452  
                     __ptext4 6466                       __ptext5 5206                       __ptext6 6334  
                     __ptext7 639E                       __ptext8 648A                       __ptext9 6494  
                  ??_add_task 0030               fp__toggle_LED_0 0000               fp__toggle_LED_2 0000  
             fp__toggle_LED_4 0000                  __size_of_ISR 6276                       _ivln2_h 1071  
                     _ivln2_l 1015                    ??___xxtofl 0032             __end_of_init_task 5F12  
                     _scalbnf 5508          ?_calculate_init_tmr0 0001          ?_calculate_init_tmr1 0001  
              __pintcode_body 6204          end_of_initialization 632A             __end_of_tmr0_init 649E  
           __end_of_tmr1_init 6494                    ??_init_LED 0015                       int_func 6204  
         i2___wmul@multiplier 0001             __end_of_timer_ISR 64BA                    ??_osc_init 0015  
                     powf@p_h 019C                       powf@p_l 0164                       powf@s_h 016C  
                     powf@t_h 0168                       powf@s_l 0130                       powf@t_l 0134  
                     powf@z_h 0120                       powf@z_l 0124                       postdec1 000FE5  
                     postdec2 000FDD                       postinc0 000FEE                       postinc1 000FE6  
                     postinc2 000FDE           __end_of_System_init 636A                       sqrtf@ix 00B7  
              add_task@period 0023         __end_of_dispatch_task 5CE6               ??_init_arr_task 001B  
                 ___fladd@grs 0075         ??_calculate_init_tmr0 0038         ??_calculate_init_tmr1 0038  
               ___xxtofl@sign 0060                 ?_toggle_LED_0 0001                 ?_toggle_LED_2 0001  
               ?_toggle_LED_4 0001          __size_of_start_timer 0032                   ___fldiv@grs 0091  
                 ___fldiv@rem 008A                   ___flmul@grs 0023                __end_of___flge 6120  
              __end_of___wmul 63F6              i2___wmul@product 0005           start_initialization 62FE  
                 __end_of_ISR 627E             __size_ofi2___wmul 0026                ??_toggle_LED_0 0015  
              ??_toggle_LED_2 0015                ??_toggle_LED_4 0015                   __end_of_lg2 1031  
                 __end_of_ovt 1025         __size_of_Sched_Update 00E4                   _System_init 6334  
                    ??___flge 0086                      ??___wmul 0019              Sched_Update@temp 000F  
            remove_task@delay 0023                     ___fladd@a 006A                     ___fladd@b 0066  
                   ___fldiv@a 0082                     ___fldiv@b 007E                   __pbssBIGRAM 01CC  
                   ___flmul@a 0019                     ___flmul@b 0015                   __pbssCOMRAM 0038  
           __size_of_add_task 05E6                     ___flsub@a 007A                     ___flsub@b 0076  
               __pcstackBANK0 0060                 __pcstackBANK1 0100             __end_ofsqrtf@tiny 1015  
           __size_of___xxtofl 01B8                  _Sched_Update 6120                  _current_time 0044  
                   __pnvBANK0 00F1             __size_of_init_LED 000A                     __pintcode 0008  
                    ?___fladd 0066                      ?___fldiv 007E                      ?___flneg 0015  
           __size_of_osc_init 0006                      ?___flmul 0015                      ?___flsub 0076  
                    ?___fltol 00CC                   add_task@cur 0066                   add_task@pre 0064  
                   fabsf@F463 0038                   __smallconst 1000                      ?_scalbnf 002E  
               remove_task@id 001B                __size_of_fabsf 0034                     _init_task 5E08  
              __size_of_sqrtf 04BC                     _powf$1302 01A4                     _powf$1310 013C  
                   _powf$1303 0154                     _powf$1311 0140                     _powf$1304 0148  
                   _powf$1312 0108                     _powf$1305 0198                     _powf$1313 010C  
                   _powf$1306 0138                     _powf$1314 0110                     _powf$1315 0114  
                   _powf$1307 0100                     _powf$1316 0118                     _powf$1308 0104  
                   _powf$1309 0158                     _list_head 0040                ___wmul@product 0019  
                   _tmr0_init 6494                      _PIE1bits 000F9D                     _tmr1_init 648A  
               ??_remove_task 001F                      i2u423_40 6132                      i2u423_41 612E  
                    i2u424_40 61D0                      i2u424_41 61CC                      i2u441_40 6224  
                    i2u441_41 6220                      _PIR1bits 000F9E                      i2u442_40 6232  
                    i2u442_41 622E                      i2u443_40 624E                      i2u443_41 624A  
                    i2u444_40 625C                      i2u444_41 6258      _calculate_init_tmr0$1294 01BC  
    _calculate_init_tmr0$1295 01C0      _calculate_init_tmr0$1296 01C4      _calculate_init_tmr0$1297 01C8  
        __end_of_toggle_LED_0 6466          __end_of_toggle_LED_2 6452          __end_of_toggle_LED_4 647A  
    _calculate_init_tmr1$1300 01C4      _calculate_init_tmr1$1301 01C8      _calculate_init_tmr1$1298 01BC  
    _calculate_init_tmr1$1299 01C0                 add_task@delay 001B                 add_task@index 0068  
                   _timer_ISR 64B4                    powf@yisint 0150                 _timer0Counter 0046  
               _timer1Counter 00F1             ___wmul@multiplier 0015                      i2___wmul 63F6  
     __size_of_interrupt_init 0006                    ?_init_task 0001                    ?_tmr0_init 0001  
                  ?_tmr1_init 0001                      __Hrparam 0000                      __Lrparam 0000  
                  ?_timer_ISR 0001              __size_of___fladd 04C2              __size_of___fldiv 039C  
         __end_of_remove_task 5508              __size_of___flneg 0038              __size_of___flmul 042A  
            __size_of___flsub 0048              __size_of___fltol 0108         i2___wmul@multiplicand 0003  
 __end_of_calculate_init_tmr0 5A62   __end_of_calculate_init_tmr1 5BB0                      _add_task 3ADC  
               ??_start_timer 0017                      ___xxtofl 573C         __end_of_init_arr_task 5E08  
          init_arr_task@index 001B              __size_of_scalbnf 0234                      __ptext10 64A8  
                    __ptext11 64AE                      __ptext20 4584                      __ptext12 5E08  
                    __ptext21 641C                      __ptext13 3ADC                      __ptext30 4E6A  
                    __ptext22 601A                      __ptext14 5CE6                      __ptext31 5F12  
                    __ptext23 5508                      __ptext15 63D0                      __ptext24 4A40  
                    __ptext16 649E                      __ptext33 64B4                      __ptext25 636A  
                    __ptext17 5A62                      __ptext34 6120                      __ptext26 573C  
                    __ptext18 58F4                      __ptext35 63F6                      __ptext27 627E  
                    __ptext19 1080                      __ptext36 0000                      __ptext28 40C2  
                    __ptext29 62C6                      _arr_task 01CC                      _init_LED 649E  
               __size_of_main 0010                 __size_of_nanf 0022                 __size_of_powf 2A5C  
      __size_of_dispatch_task 0136                  ?_System_init 0001          powf@__xc8_float_word 01B8  
                    _osc_init 64A8                      _tempNode 00D6                      int$flags 004A  
            add_task@callback 002B                    _INTCONbits 000FF2                   ??_init_task 0038  
                    scalbnf@n 0032                      scalbnf@u 0060                      scalbnf@x 002E  
                    scalbnf@y 0064           __end_of_start_timer 63D0                      intlevel2 0000  
                   sqrtf@tiny 1011         __size_of_toggle_LED_0 0014         __size_of_toggle_LED_2 0014  
       __size_of_toggle_LED_4 0014                   ??_tmr0_init 0015                   ??_tmr1_init 0015  
            add_task@temp_197 0062                   _remove_task 5206                   ??_timer_ISR 0011  
               _dispatch_task 5BB0                _interrupt_init 64AE                  _toggle_LED_0 6452  
                _toggle_LED_2 643E                  _toggle_LED_4 6466                 ___fladd@signs 0072  
       sqrtf@__xc8_float_word 009F                  ___fladd@aexp 0073                  ___fladd@bexp 0074  
